(dp0
S'salesforce'
p1
F0.4
sS'h.264'
p2
F0.5
sS'biopython'
p3
F0.5
sS'autoboxing'
p4
F0.5
sS'userscripts'
p5
F0.5
sS'unobtrusive-validation'
p6
F0.5
sS'prefix'
p7
F0.5
sS'sparse-matrix'
p8
I0
sS'sleep'
p9
F0.2
sS'bytecode'
p10
F0.5
sS'roslyn'
p11
F0.5
sS'ssms-2008'
p12
F0.5
sS'crtp'
p13
F0.4
sS'audiounit'
p14
I0
sS'html5'
p15
I1
sS'typeerror'
p16
I1
sS'xts'
p17
F0.3
sS'windows-ce'
p18
F0.5
sS'mpmovieplayercontroller'
p19
F0.5
sS'zxing'
p20
F0.5
sS'esb'
p21
F0.5
sS'openmpi'
p22
F0.5
sS'matlab'
p23
I0
sS'endianness'
p24
F0.3
sS'new-operator'
p25
I1
sS'lwuit-form'
p26
F0.5
sS'findwindow'
p27
F0.5
sS'xtk'
p28
F0.5
sS'html5-canvas'
p29
F0.1
sS'cluster-computing'
p30
F0.5
sS'flwor'
p31
I1
sS'filenotfoundexception'
p32
F0.5
sS'bufferedinputstream'
p33
F0.5
sS'prototypejs'
p34
I1
sS'void'
p35
I1
sS'monodevelop'
p36
I0
sS'spring-roo'
p37
F0.5
sS'cfc'
p38
F0.5
sS'replication'
p39
I1
sS'smack'
p40
F0.5
sS'tostring'
p41
F0.4
sS'prepared-statement'
p42
I1
sS'namespaces'
p43
F0.2
sS'derived-class'
p44
I1
sS'idictionary'
p45
F0.5
sS'async-ctp'
p46
I0
sS'voip'
p47
F0.5
sS'jpopupmenu'
p48
I0
sS'unity3d'
p49
I0
sS'spring-transactions'
p50
F0.5
sS'open-source'
p51
F0.1
sS'jprogressbar'
p52
F0.3
sS'knockout-mapping-plugin'
p53
F0.5
sS'cmd'
p54
F0.8
sS'upload'
p55
F0.3
sS'rabbitmq'
p56
I0
sS'vector'
p57
F0.1
sS'google-closure-library'
p58
F0.5
sS'relational-algebra'
p59
F0.5
sS'computed-columns'
p60
I0
sS'atk4'
p61
F0.5
sS'visualvm'
p62
F0.5
sS'application-pool'
p63
F0.5
sS'application.cfc'
p64
F0.5
sS'runtime.exec'
p65
F0.5
sS'vhdl'
p66
I0
sS'nsdata'
p67
F0.5
sS'dynamics-crm'
p68
F0.4
sS'osdev'
p69
F0.5
sS'chef'
p70
F0.5
sS'category-theory'
p71
F0.5
sS'ilist'
p72
F0.5
sS'kivy'
p73
F0.5
sS'jtreetable'
p74
F0.5
sS'expressions'
p75
F0.5
sS'theory'
p76
F0.5
sS'qt-quick'
p77
F0.5
sS'msysgit'
p78
F0.5
sS'hide'
p79
I1
sS'numberformat'
p80
I1
sS'bittorrent'
p81
F0.5
sS'android-intent'
p82
F0.3
sS'workflow'
p83
I1
sS'bdd'
p84
F0.2
sS'development-environment'
p85
F0.5
sS'mainframe'
p86
F0.1
sS'tablelayout'
p87
F0.5
sS'solrnet'
p88
F0.5
sS'amazon-web-services'
p89
F0.1
sS'ipad'
p90
I1
sS'lotus-domino'
p91
F0.6
sS'web2py'
p92
F0.5
sS'metadata'
p93
F0.5
sS'textures'
p94
F0.1
sS'tcpclient'
p95
F0.5
sS'widget'
p96
I0
sS'mef'
p97
I1
sS'log4net'
p98
I0
sS'code-contracts'
p99
F0.5
sS'mel'
p100
F0.5
sS'jasmine'
p101
F0.5
sS'sunspot'
p102
F0.5
sS'pygtk'
p103
F0.2
sS'achartengine'
p104
F0.5
sS'lgpl'
p105
I0
sS'tornado'
p106
F0.6
sS'facebook-opengraph'
p107
F0.5
sS's-expression'
p108
F0.5
sS'broadcastreceiver'
p109
F0.5
sS'const'
p110
F0.2
sS'axapta'
p111
F0.4
sS'placeholder'
p112
F0.5
sS'mex'
p113
F0.5
sS'forward-declaration'
p114
F0.4
sS'cardlayout'
p115
F0.5
sS'substance'
p116
F0.5
sS'reactive-programming'
p117
F0.2
sS'oracle9i'
p118
F0.5
sS'ajax'
p119
I1
sS'anchor'
p120
F0.5
sS'itunes'
p121
F0.5
sS'pooling'
p122
F0.5
sS'orm'
p123
F0.2
sS'indentation'
p124
F0.5
sS'sass'
p125
F0.1
sS'curve-fitting'
p126
F0.5
sS'license-key'
p127
I1
sS'jquery-ajax'
p128
I1
sS'projection'
p129
F0.5
sS'classification'
p130
F0.5
sS'rtos'
p131
F0.1
sS'opengraph'
p132
F0.5
sS'ribbon'
p133
F0.5
sS'replace'
p134
I1
sS'nsmutabledata'
p135
F0.5
sS'trigger.io'
p136
F0.5
sS'unix'
p137
F0.1
sS'pyramid'
p138
F0.8
sS'mysqldump'
p139
F0.5
sS'printf'
p140
I1
sS'parameter-passing'
p141
F0.4
sS'logback'
p142
F0.5
sS'byte'
p143
F0.6
sS'getchar'
p144
F0.5
sS'plot'
p145
I0
sS'mediawiki'
p146
F0.5
sS'elementtree'
p147
F0.5
sS'fortran90'
p148
F0.1
sS'fstream'
p149
F0.4
sS'lwp'
p150
F0.5
sS'episerver'
p151
F0.2
sS'bundler'
p152
F0.6
sS'backgroundworker'
p153
F0.5
sS'data-warehouse'
p154
F0.4
sS'dijkstra'
p155
F0.5
sS'rebol'
p156
F0.3
sS'overhead'
p157
F0.5
sS'back-button'
p158
F0.5
sS'dns'
p159
F0.5
sS'tokenize'
p160
I0
sS'file-exists'
p161
F0.5
sS'composer-php'
p162
I0
sS'annotations'
p163
F0.5
sS'cpu-registers'
p164
I1
sS'swap'
p165
I1
sS'jmx'
p166
F0.1
sS'sql-management-studio'
p167
F0.5
sS'jms'
p168
F0.8
sS'twos-complement'
p169
F0.5
sS'nokogiri'
p170
I0
sS'lazarus'
p171
F0.1
sS'backbone-relational'
p172
I0
sS'content-script'
p173
F0.5
sS'roxygen'
p174
F0.5
sS'jsplitpane'
p175
I1
sS'joosy'
p176
F0.5
sS'oracle11gr2'
p177
F0.5
sS'sequence-points'
p178
F0.5
sS'a-star'
p179
F0.5
sS'wix3.6'
p180
F0.6
sS'wix3.5'
p181
F0.5
sS'computer-vision'
p182
F0.3
sS'word'
p183
F0.8
sS'onclicklistener'
p184
F0.5
sS'pharo'
p185
I1
sS'function-overloading'
p186
F0.5
sS'setup'
p187
F0.5
sS'eclipse'
p188
I1
sS'doctype'
p189
F0.3
sS'stoppropagation'
p190
F0.5
sS'jtable'
p191
I0
sS'compiler-optimization'
p192
F0.9
sS'nine-patch'
p193
I1
sS'mq'
p194
F0.5
sS'erb'
p195
F0.5
sS'jquery-mobile'
p196
I0
sS'eager-loading'
p197
F0.5
sS'scripting'
p198
F0.5
sS'xpages-ssjs'
p199
I1
sS'spring-jms'
p200
F0.5
sS'wordpress-theming'
p201
F0.5
sS'member-function-pointers'
p202
F0.5
sS'smtp'
p203
F0.4
sS'git-checkout'
p204
F0.5
sS'titanium'
p205
F0.5
sS'automated-refactoring'
p206
F0.5
sS'fibonacci'
p207
F0.5
sS'scheduling'
p208
F0.5
sS'uac'
p209
F0.5
sS'plist'
p210
F0.4
sS'absolute'
p211
F0.5
sS'xdebug'
p212
F0.5
sS'linker-error'
p213
F0.5
sS'sybase-ase'
p214
F0.7
sS'vertical-alignment'
p215
F0.5
sS'lvalue'
p216
F0.6
sS'sharepoint'
p217
I1
sS'line-breaks'
p218
F0.5
sS'clojurescript'
p219
F0.5
sS'avfoundation'
p220
I1
sS'actionscript'
p221
I0
sS'.net-3.5'
p222
I1
sS'simplexml'
p223
F0.5
sS'nhibernate'
p224
I0
sS'core-graphics'
p225
I0
sS'winsock'
p226
I0
sS'iboutlet'
p227
I1
sS'hgignore'
p228
F0.5
sS'abstraction'
p229
F0.5
sS'pig'
p230
F0.5
sS'const-correctness'
p231
F0.5
sS'swing'
p232
F0.1
sS'yesod'
p233
F0.5
sS'abstracttablemodel'
p234
F0.5
sS'diagram'
p235
F0.5
sS'plyr'
p236
F0.7
sS'ibm-midrange'
p237
F0.5
sS'iis-7'
p238
F0.2
sS'calayer'
p239
I0
sS'disassembly'
p240
F0.5
sS'multi-module'
p241
F0.5
sS'telerik-mvc'
p242
F0.5
sS'types'
p243
F0.3
sS'ehcache'
p244
F0.4
sS'dijit'
p245
F0.5
sS'sparql'
p246
F0.2
sS'assignment-operator'
p247
F0.2
sS'webfonts'
p248
F0.5
sS'alias'
p249
F0.4
sS'joomla-template'
p250
I0
sS'jenkins-plugins'
p251
I0
sS'correlation'
p252
F0.5
sS'time-complexity'
p253
I1
sS'order'
p254
F0.8
sS'bit-fields'
p255
F0.5
sS'jcheckbox'
p256
F0.4
sS'enable-if'
p257
F0.6
sS'eigen'
p258
F0.5
sS'xlib'
p259
F0.5
sS'jpeg'
p260
I1
sS'hadoop'
p261
I1
sS'syntax-error'
p262
F0.2
sS'xsl-fo'
p263
F0.5
sS'pascal'
p264
F0.5
sS'spring-data-jpa'
p265
F0.5
sS'concurrency'
p266
F0.2
sS'keyboard'
p267
F0.4
sS'wlan'
p268
I1
sS'classpath'
p269
I1
sS'wicket-1.5'
p270
F0.5
sS'textbox'
p271
F0.3
sS'jquery-ui-autocomplete'
p272
F0.5
sS'appstore-approval'
p273
F0.2
sS'amazon-cloudfront'
p274
F0.5
sS'uuid'
p275
F0.5
sS'fxml'
p276
F0.5
sS'email-attachments'
p277
F0.4
sS'fwrite'
p278
F0.5
sS'fix'
p279
F0.5
sS'android-ndk'
p280
F0.7
sS'lookbehind'
p281
F0.5
sS'nonblocking'
p282
F0.5
sS'glassfish'
p283
F0.4
sS'visualworks'
p284
F0.5
sS'fade'
p285
F0.5
sS'hibernate-search'
p286
F0.5
sS'hidden'
p287
F0.5
sS'parallel-extensions'
p288
F0.5
sS'16-bit'
p289
F0.5
sS'clr'
p290
F0.8
sS'css-float'
p291
I0
sS'application-restart'
p292
I1
sS'onclick'
p293
F0.3
sS'fragment'
p294
I0
sS'semantic-markup'
p295
F0.2
sS'slicing'
p296
I0
sS'refactoring'
p297
I1
sS'object-create'
p298
F0.5
sS'jinja2'
p299
F0.1
sS'ext.net'
p300
F0.5
sS'interrupt'
p301
F0.5
sS'multidimensional'
p302
F0.1
sS'environment-variables'
p303
F0.5
sS'decorator'
p304
I1
sS'addclass'
p305
F0.5
sS'instanceof'
p306
I1
sS'linear-programming'
p307
F0.5
sS'repaint'
p308
F0.1
sS'cloudera'
p309
F0.5
sS'grammar'
p310
F0.5
sS'left-join'
p311
I1
sS'selenium-ide'
p312
F0.2
sS'lwuit-textfield'
p313
F0.5
sS'prism-4'
p314
F0.4
sS'odbc'
p315
F0.5
sS'private-members'
p316
F0.5
sS'subquery'
p317
F0.3
sS'right-to-left'
p318
F0.5
sS'hql'
p319
F0.5
sS'timeout'
p320
F0.2
sS'each'
p321
I0
sS'google-analytics'
p322
I1
sS'jfreechart'
p323
F0.5
sS'orchardcms'
p324
F0.5
sS'css-position'
p325
I1
sS'git-revert'
p326
F0.5
sS'perfect-forwarding'
p327
F0.5
sS'adobe'
p328
F0.2
sS'mdm'
p329
F0.5
sS'interop'
p330
F0.5
sS'functional-programming'
p331
F0.3
sS'android-manifest'
p332
F0.4
sS'tridion-content-delivery'
p333
F0.2
sS'gridbaglayout'
p334
F0.7
sS'bcp'
p335
F0.5
sS'mdx'
p336
I0
sS'mysql-python'
p337
F0.5
sS'tcplistener'
p338
F0.5
sS'mongoid'
p339
I0
sS'greatest-n-per-group'
p340
F0.1
sS'ring'
p341
I0
sS'filesystemwatcher'
p342
F0.5
sS'whitespace'
p343
I1
sS'jtoolbar'
p344
F0.2
sS'gradient'
p345
F0.5
sS'ios5'
p346
F0.3
sS'sms'
p347
F0.2
sS'infragistics'
p348
F0.5
sS'mason'
p349
F0.5
sS'smo'
p350
F0.1
sS'ghci'
p351
I1
sS'dsl'
p352
F0.5
sS'sml'
p353
F0.5
sS'sprintf'
p354
I0
sS'core-location'
p355
I1
sS'algebraic-data-types'
p356
I1
sS'aggregateroot'
p357
F0.6
sS'rm'
p358
F0.5
sS'type-erasure'
p359
I0
sS'tthread'
p360
F0.5
sS'datacontractserializer'
p361
I0
sS'ado.net'
p362
I1
sS'foundation'
p363
F0.5
sS'dereference'
p364
F0.3
sS'firemonkey'
p365
F0.5
sS'openshift'
p366
F0.4
sS'nsarray'
p367
I1
sS'free'
p368
F0.2
sS'pyqt4'
p369
I0
sS'spring-ldap'
p370
F0.5
sS'tooltwist'
p371
F0.5
sS'segmentation-fault'
p372
F0.4
sS'collation'
p373
F0.5
sS'sheet'
p374
I1
sS'filenames'
p375
F0.5
sS'md5'
p376
I1
sS'mvp'
p377
F0.5
sS'higher-rank-types'
p378
I1
sS'xargs'
p379
F0.5
sS'listview'
p380
I1
sS'logging'
p381
F0.2
sS'ckeditor'
p382
F0.5
sS'client-server'
p383
F0.6
sS'gwt-maven-plugin'
p384
F0.5
sS'activerecord'
p385
I1
sS'atl'
p386
F0.5
sS'javafx'
p387
F0.5
sS'openssl'
p388
F0.5
sS'filter'
p389
I1
sS'mvc'
p390
F0.3
sS'iso'
p391
F0.5
sS'signature'
p392
F0.5
sS'xul'
p393
F0.5
sS'benchmarking'
p394
F0.2
sS'windows-mobile'
p395
F0.7
sS'javamail'
p396
I0
sS'table-variable'
p397
F0.5
sS'indexed-view'
p398
F0.5
sS'carrierwave'
p399
F0.5
sS'flowlayoutpanel'
p400
F0.5
sS'changelistener'
p401
F0.5
sS'undefined-behavior'
p402
I1
sS'hook'
p403
F0.1
sS'mingw'
p404
F0.5
sS'java-7'
p405
F0.3
sS'ssrs-reports'
p406
F0.5
sS'polygon'
p407
F0.5
sS'tpl-dataflow'
p408
I0
sS'strncpy'
p409
F0.5
sS'allegro5'
p410
F0.5
sS'xib'
p411
F0.5
sS'smartgwt'
p412
F0.1
sS'xslt-2.0'
p413
F0.1
sS'icefaces'
p414
F0.5
sS'service'
p415
I1
sS'struts'
p416
I0
sS'slidetoggle'
p417
F0.5
sS'twisted'
p418
F0.5
sS'web-audio'
p419
F0.5
sS'visual-studio-2008'
p420
F0.1
sS'normalization'
p421
F0.5
sS'jstl'
p422
F0.5
sS'upshot'
p423
F0.5
sS'visual-studio-2005'
p424
F0.5
sS'listen'
p425
F0.5
sS'background-image'
p426
I0
sS'windbg'
p427
F0.1
sS'decompiling'
p428
F0.5
sS'tclientdataset'
p429
F0.5
sS'function-templates'
p430
F0.5
sS'yield'
p431
I0
sS'xpath-1.0'
p432
F0.5
sS'task'
p433
F0.2
sS'cdata'
p434
F0.2
sS'memory-barriers'
p435
F0.5
sS'uinavigationbar'
p436
I1
sS'yacc'
p437
F0.1
sS'biginteger'
p438
I1
sS'target'
p439
F0.3
sS'keyword'
p440
F0.5
sS'tree'
p441
F0.4
sS'windows-azure-queues'
p442
F0.5
sS'ebay'
p443
F0.5
sS'project'
p444
F0.5
sS'file-upload'
p445
I1
sS'zend-framework'
p446
F0.5
sS'aether'
p447
F0.5
sS'hierarchical-data'
p448
I1
sS'void-pointers'
p449
I1
sS'treeview'
p450
I1
sS'dot-product'
p451
F0.5
sS'referential-integrity'
p452
F0.5
sS'uiview'
p453
F0.1
sS'build-automation'
p454
F0.2
sS'django-south'
p455
F0.5
sS'flex-lexer'
p456
F0.5
sS'websocket'
p457
F0.1
sS'filemaker'
p458
F0.5
sS'ram'
p459
F0.5
sS'discriminated-union'
p460
I0
sS'intentservice'
p461
F0.5
sS'shell'
p462
F0.1
sS'cloudfoundry'
p463
I0
sS'angularjs'
p464
I0
sS'compareto'
p465
F0.3
sS'ocean'
p466
F0.5
sS'inputstreamreader'
p467
F0.5
sS'plpgsql'
p468
F0.5
sS'latency'
p469
F0.5
sS'dbms'
p470
F0.3
sS'redbean'
p471
F0.5
sS'blazeds'
p472
F0.5
sS'yui3'
p473
I0
sS'indexes'
p474
F0.5
sS'many-to-many'
p475
F0.7
sS'ebean'
p476
F0.5
sS'chess'
p477
I1
sS'mkmapview'
p478
F0.1
sS'microsoft-metro'
p479
I0
sS'git-diff'
p480
F0.5
sS'visual-studio'
p481
I1
sS'python-import'
p482
I1
sS'three.js'
p483
I0
sS'transactions'
p484
I0
sS'noclassdeffounderror'
p485
F0.5
sS'object'
p486
I1
sS'xsd'
p487
F0.5
sS'metrics'
p488
F0.2
sS'character-encoding'
p489
F0.5
sS'varargs'
p490
F0.1
sS'ostream'
p491
F0.4
sS'pivot-table'
p492
F0.5
sS'ssl-certificate'
p493
F0.1
sS'invoke'
p494
F0.5
sS'file-rename'
p495
I1
sS'promotions'
p496
I1
sS'webcam'
p497
F0.3
sS'swingworker'
p498
F0.1
sS'dom'
p499
I1
sS'pageobjects'
p500
F0.6
sS'visualsvn-server'
p501
I0
sS'medical'
p502
F0.5
sS'playframework-1.x'
p503
F0.1
sS'jpopup'
p504
F0.5
sS'flot'
p505
F0.5
sS'leaflet'
p506
F0.5
sS'npgsql'
p507
F0.5
sS'heap-memory'
p508
F0.5
sS'wildcard'
p509
F0.5
sS'dos'
p510
F0.4
sS'language-agnostic'
p511
F0.4
sS'tform'
p512
F0.5
sS'sum'
p513
I1
sS'dot'
p514
F0.5
sS'heuristics'
p515
F0.5
sS'selected'
p516
F0.5
sS'flex4.5'
p517
F0.5
sS'saga'
p518
I0
sS'autotest'
p519
F0.5
sS'immutability'
p520
F0.3
sS'random'
p521
F0.1
sS'html-parsing'
p522
I0
sS'case-class'
p523
F0.5
sS'cancan'
p524
F0.5
sS'syntax'
p525
F0.1
sS'mqseries'
p526
F0.5
sS'font-face'
p527
F0.5
sS'remoting'
p528
F0.5
sS'hibernate-validator'
p529
F0.5
sS'qstring'
p530
F0.5
sS'icicles'
p531
F0.5
sS'cmis'
p532
F0.5
sS'unmanaged'
p533
I1
sS'pki'
p534
F0.4
sS'd2'
p535
F0.2
sS'visualforce'
p536
F0.5
sS'cout'
p537
F0.5
sS'toast'
p538
F0.5
sS'projects-and-solutions'
p539
F0.5
sS'execution'
p540
I0
sS'layout'
p541
I1
sS'imagecreatefrompng'
p542
F0.5
sS'objectinputstream'
p543
I0
sS'graph-algorithm'
p544
I1
sS'implementation'
p545
F0.5
sS'menu'
p546
I1
sS'criteria-api'
p547
F0.1
sS'cross-platform'
p548
F0.5
sS'gson'
p549
F0.5
sS'celery'
p550
F0.5
sS'ocx'
p551
F0.5
sS'java-ee-6'
p552
F0.5
sS'form-for'
p553
F0.5
sS'rserve'
p554
F0.5
sS'ldap'
p555
I0
sS'evolutionary-algorithm'
p556
F0.5
sS'setup.py'
p557
F0.5
sS'ocr'
p558
F0.5
sS'appender'
p559
F0.5
sS'speech-to-text'
p560
I0
sS'runnable'
p561
F0.3
sS'qgraphicsview'
p562
F0.5
sS'parser-generator'
p563
F0.1
sS'cryptography'
p564
F0.1
sS'shortest-path'
p565
I0
sS'pass-by-reference'
p566
I1
sS'blur'
p567
F0.5
sS'stop'
p568
F0.6
sS'c3p0'
p569
F0.5
sS'fadein'
p570
I1
sS'report'
p571
F0.1
sS'internet-explorer-9'
p572
I1
sS'network-programming'
p573
F0.4
sS'delete'
p574
I1
sS'quotes'
p575
I1
sS'couchbase'
p576
I0
sS'idioms'
p577
I1
sS'async-await'
p578
I0
sS'fscanf'
p579
F0.5
sS'ienumerable'
p580
I1
sS'cors'
p581
I0
sS'patch'
p582
F0.5
sS'symfony-forms'
p583
F0.3
sS'architecture'
p584
I1
sS'release'
p585
F0.5
sS'nsthread'
p586
F0.5
sS'clickonce'
p587
I0
sS'bam'
p588
F0.5
sS'iterate'
p589
I1
sS'require'
p590
F0.3
sS'atomic'
p591
F0.3
sS'fosuserbundle'
p592
F0.5
sS'isolation-level'
p593
F0.5
sS'pyside'
p594
F0.5
sS'build.xml'
p595
F0.5
sS'wpf-controls'
p596
I1
sS'simd'
p597
F0.3
sS'shared-memory'
p598
I0
sS'strcat'
p599
I1
sS'jquery-plugins'
p600
F0.5
sS'jaxb2'
p601
F0.5
sS'nsmutablestring'
p602
F0.3
sS'cublas'
p603
F0.5
sS'pojo'
p604
F0.1
sS'misra'
p605
F0.5
sS'directshow.net'
p606
F0.5
sS'web-applications'
p607
I1
sS'portable-class-library'
p608
F0.5
sS'cics'
p609
F0.5
sS'correlated-subquery'
p610
F0.5
sS'findstr'
p611
F0.5
sS'calling-convention'
p612
I1
sS'spring-batch'
p613
F0.5
sS'unix-timestamp'
p614
F0.1
sS'load-testing'
p615
F0.1
sS'static-libraries'
p616
I0
sS'garbage-collection'
p617
F0.2
sS'delphi'
p618
F0.1
sS'ivalueconverter'
p619
F0.5
sS'urllib'
p620
F0.5
sS'mud'
p621
F0.5
sS'implicit'
p622
F0.5
sS'class-design'
p623
I1
sS'openfiledialog'
p624
F0.5
sS'data.table'
p625
I1
sS'posix'
p626
F0.2
sS'irb'
p627
F0.5
sS'irc'
p628
F0.8
sS'compilation'
p629
F0.4
sS'lapply'
p630
F0.3
sS'snap-framework'
p631
F0.5
sS'type-inference'
p632
I0
sS'git-filter-branch'
p633
F0.5
sS'fparsec'
p634
F0.5
sS'nslog'
p635
F0.5
sS'openstack'
p636
F0.1
sS'access-modifiers'
p637
F0.5
sS'w3c-validation'
p638
I0
sS'jquery-validate'
p639
I1
sS'equals'
p640
F0.3
sS'mobile-website'
p641
F0.5
sS'constexpr'
p642
I1
sS'cdn'
p643
F0.5
sS'gnu-make'
p644
F0.2
sS'ctypes'
p645
I0
sS'preprocessor'
p646
F0.1
sS'try-catch-finally'
p647
I1
sS'nstimer'
p648
I1
sS'openjpa'
p649
F0.5
sS'cllocationmanager'
p650
F0.5
sS'rtti'
p651
F0.5
sS'introspection'
p652
I1
sS'wx'
p653
F0.5
sS'coq'
p654
F0.5
sS'gdi+'
p655
F0.5
sS'sd-card'
p656
I1
sS'claims-based-identity'
p657
I0
sS'triggers'
p658
F0.4
sS'dalvik'
p659
F0.5
sS'adapter'
p660
I0
sS'cocos2d-x'
p661
F0.6
sS'control-flow'
p662
F0.5
sS'lotus-formula'
p663
F0.5
sS'facet'
p664
F0.5
sS'return-type'
p665
F0.5
sS'tfs2010'
p666
I0
sS'marmalade'
p667
F0.1
sS'docbook'
p668
F0.5
sS'logic'
p669
I1
sS'global-variables'
p670
I1
sS'login'
p671
I1
sS'xforms'
p672
F0.5
sS'com'
p673
I1
sS'highcharts'
p674
I0
sS'android-gallery'
p675
F0.7
sS'bison'
p676
F0.5
sS'elf'
p677
F0.5
sS'grails-2.0'
p678
F0.5
sS'double-precision'
p679
F0.5
sS'innerhtml'
p680
F0.2
sS'height'
p681
F0.5
sS'gxt'
p682
F0.4
sS'web-parts'
p683
F0.1
sS'duplicate-removal'
p684
F0.5
sS'kohana'
p685
F0.1
sS'blending'
p686
F0.5
sS'default-constructor'
p687
F0.5
sS'diff'
p688
F0.5
sS'guid'
p689
I1
sS'kinect'
p690
F0.1
sS'latitude-longitude'
p691
F0.5
sS'linux-device-driver'
p692
F0.4
sS'magento-1.4'
p693
F0.5
sS'codeigniter'
p694
I0
sS'fortran'
p695
I0
sS'union'
p696
F0.1
sS'dicom'
p697
F0.4
sS'erlang-shell'
p698
I0
sS'shoulda'
p699
F0.5
sS'tabs'
p700
I1
sS'numerical-methods'
p701
F0.5
sS'haxe'
p702
F0.3
sS'html5-audio'
p703
F0.5
sS'compare-and-swap'
p704
F0.5
sS'numpy'
p705
F0.1
sS'containers'
p706
F0.2
sS'partial-classes'
p707
F0.1
sS'website'
p708
I1
sS'operator-keyword'
p709
F0.4
sS'file-get-contents'
p710
F0.5
sS'html5-video'
p711
F0.2
sS'inputstream'
p712
F0.5
sS'ankhsvn'
p713
F0.5
sS'foreign-collection'
p714
F0.5
sS'intentfilter'
p715
F0.5
sS'directshow'
p716
F0.2
sS'primitive-types'
p717
F0.5
sS'lift'
p718
I1
sS'web-hosting'
p719
F0.5
sS'core-animation'
p720
I0
sS'extract'
p721
F0.6
sS'datatable'
p722
I1
sS'memory-model'
p723
F0.5
sS'exception'
p724
I1
sS'save'
p725
F0.5
sS'aix'
p726
F0.5
sS'lua-table'
p727
F0.2
sS'gnu'
p728
F0.3
sS'iqueryable'
p729
F0.5
sS'queryover'
p730
F0.1
sS'privatekey'
p731
F0.5
sS'typoscript'
p732
F0.7
sS'air'
p733
F0.3
sS'formatting'
p734
F0.3
sS'32-bit'
p735
F0.5
sS'virtex'
p736
F0.5
sS'tablemodel'
p737
F0.5
sS'hamcrest'
p738
I0
sS'cwnd'
p739
F0.5
sS'visual-studio-2012'
p740
I1
sS'procedure'
p741
I0
sS'visual-studio-2010'
p742
I1
sS'has-many'
p743
F0.5
sS'linked-server'
p744
F0.5
sS'project-management'
p745
F0.5
sS'joomla1.6'
p746
F0.5
sS'jspinner'
p747
F0.5
sS'joomla1.5'
p748
F0.5
sS'data-structures'
p749
I1
sS'ip'
p750
F0.4
sS'boost-bind'
p751
F0.5
sS'quartz-scheduler'
p752
F0.5
sS'libxml'
p753
F0.5
sS'il'
p754
F0.5
sS'io'
p755
I1
sS'casting'
p756
I1
sS'mouse'
p757
F0.5
sS'cpu-cache'
p758
F0.5
sS'netbeans-6.9'
p759
F0.2
sS'uistoryboard'
p760
F0.5
sS'specialization'
p761
F0.5
sS'jquery-live'
p762
F0.5
sS'roslyn-ctp'
p763
F0.5
sS'recursion'
p764
I1
sS'make'
p765
F0.4
sS'couchdb'
p766
F0.5
sS'google-apps-script'
p767
I0
sS'string-comparison'
p768
F0.5
sS'leiningen'
p769
I0
sS'easymock'
p770
I1
sS'undefined-reference'
p771
F0.5
sS'split'
p772
I1
sS'extjs4'
p773
I0
sS'lithium'
p774
F0.5
sS'log4j'
p775
F0.1
sS'member-variables'
p776
F0.5
sS'maven-release-plugin'
p777
F0.5
sS'templates'
p778
F0.1
sS'google-spreadsheet'
p779
F0.5
sS'nio'
p780
F0.5
sS'nil'
p781
F0.7
sS'buildroot'
p782
F0.5
sS'raii'
p783
F0.3
sS'vectorization'
p784
I0
sS'permutation'
p785
F0.5
sS'successor-arithmetics'
p786
F0.5
sS'jslint'
p787
F0.4
sS'javascriptmvc'
p788
F0.5
sS'protected'
p789
F0.6
sS'android-fragments'
p790
F0.7
sS'ternary-operator'
p791
F0.5
sS'diagramming'
p792
F0.5
sS'template-engine'
p793
F0.3
sS'contextmenu'
p794
I0
sS'min'
p795
I1
sS'cross-threading'
p796
F0.5
sS'eps'
p797
F0.5
sS'centos'
p798
F0.5
sS'nullreferenceexception'
p799
I0
sS'uisplitviewcontroller'
p800
I0
sS'client'
p801
F0.5
sS'casperjs'
p802
I0
sS'casbah'
p803
F0.5
sS'gzip'
p804
F0.1
sS'settimeout'
p805
I0
sS'akka'
p806
F0.5
sS'console-application'
p807
I1
sS'websphere-portal'
p808
F0.5
sS'asihttprequest'
p809
F0.4
sS'fseek'
p810
F0.5
sS'solaris'
p811
I0
sS'dependency-properties'
p812
F0.5
sS'mipmaps'
p813
F0.5
sS'soft-references'
p814
F0.8
sS'unicode-string'
p815
F0.1
sS'group-concat'
p816
F0.5
sS'advantage-database-server'
p817
F0.5
sS'opengl-3'
p818
F0.5
sS'genetic-programming'
p819
F0.5
sS'currying'
p820
F0.5
sS'memory-address'
p821
I1
sS'iplimage'
p822
F0.5
sS'cfquery'
p823
F0.5
sS'google-plus'
p824
F0.5
sS'c#-to-f#'
p825
F0.5
sS'visualization'
p826
F0.6
sS'android-sdcard'
p827
F0.5
sS'datagridviewcolumn'
p828
F0.5
sS'xmlhttprequest'
p829
F0.1
sS'dealloc'
p830
F0.2
sS'vertica'
p831
F0.5
sS'agile'
p832
F0.3
sS'msxml'
p833
I0
sS'opencl'
p834
F0.1
sS'character'
p835
F0.6
sS'opencv'
p836
F0.1
sS'tuples'
p837
I1
sS'collections'
p838
F0.4
sS'floating-point-conversion'
p839
F0.5
sS'servicemix'
p840
F0.5
sS'database-design'
p841
F0.4
sS'bnd'
p842
F0.5
sS'path-finding'
p843
F0.5
sS'static-members'
p844
F0.2
sS'maya'
p845
I1
sS'supervisord'
p846
F0.5
sS'most-vexing-parse'
p847
I1
sS'structuremap'
p848
F0.5
sS'filestream'
p849
F0.5
sS'microcontroller'
p850
F0.1
sS'linked-list'
p851
I1
sS'appendto'
p852
I1
sS'opa'
p853
F0.5
sS'background'
p854
I1
sS'performance'
p855
F0.2
sS'unique'
p856
I1
sS'freebsd'
p857
F0.5
sS'd'
p858
I1
sS'daemon'
p859
F0.4
sS'delphi-xe'
p860
I0
sS'visible'
p861
I1
sS'flash-player'
p862
F0.5
sS'seaside'
p863
I0
sS'scikit-learn'
p864
I0
sS'zoom'
p865
F0.5
sS'time-series'
p866
F0.3
sS'memory-leaks'
p867
I1
sS'rstudio'
p868
F0.5
sS'delphi-xe2'
p869
I1
sS'form-validation'
p870
F0.5
sS'code-review'
p871
I0
sS'fancybox'
p872
I1
sS'ole'
p873
I1
sS'preg-match-all'
p874
I1
sS'autowired'
p875
F0.7
sS'pom.xml'
p876
I1
sS'nsmutabledictionary'
p877
F0.5
sS'connection-string'
p878
F0.1
sS'jaas'
p879
F0.5
sS'httpresponse'
p880
F0.5
sS'junit4'
p881
F0.1
sS'onchange'
p882
F0.5
sS'word-vba'
p883
F0.5
sS'spring-aop'
p884
F0.5
sS'masm32'
p885
F0.5
sS'bounded-wildcard'
p886
I1
sS'jtabbedpane'
p887
F0.4
sS'monogame'
p888
F0.5
sS'facebook-php-sdk'
p889
F0.5
sS'applescript'
p890
F0.5
sS'comments'
p891
I1
sS'pcap.net'
p892
I1
sS'wso2'
p893
F0.5
sS'audio-processing'
p894
F0.5
sS'rdfa'
p895
F0.5
sS'armv7'
p896
I1
sS'android-listview'
p897
I0
sS'uml'
p898
I0
sS'uigesturerecognizer'
p899
I1
sS'integer-promotion'
p900
F0.5
sS'geocoding'
p901
F0.5
sS'internet-explorer-7'
p902
F0.5
sS'visio'
p903
F0.5
sS'jsonp'
p904
F0.3
sS'servicestack'
p905
F0.5
sS'paypal-api'
p906
I0
sS'repository'
p907
F0.1
sS'stringbuffer'
p908
F0.5
sS'barcode'
p909
I0
sS'solrj'
p910
F0.5
sS'failure-slice'
p911
F0.5
sS'c#-4.0'
p912
F0.3
sS'app-store'
p913
I0
sS'sift'
p914
F0.5
sS'plc'
p915
F0.5
sS'zend-acl'
p916
F0.5
sS'substitution'
p917
F0.5
sS'post'
p918
I1
sS'super'
p919
F0.5
sS'properties'
p920
I1
sS'ownerdraw'
p921
F0.4
sS'jquery'
p922
F0.1
sS'colorbox'
p923
F0.2
sS'ui-automation'
p924
F0.5
sS'postgresql'
p925
F0.1
sS'interface-builder'
p926
F0.5
sS'google-maps'
p927
I0
sS'foreign-keys'
p928
F0.5
sS'ontouchlistener'
p929
F0.5
sS'vb6-migration'
p930
F0.7
sS'swingx'
p931
F0.5
sS'joomla'
p932
I0
sS'wordpress-plugin'
p933
F0.7
sS'azure'
p934
F0.4
sS'commit'
p935
F0.2
sS'asp.net-3.5'
p936
F0.5
sS'query-optimization'
p937
I1
sS'virtual-inheritance'
p938
F0.5
sS'browser-addons'
p939
F0.5
sS'filesize'
p940
F0.5
sS'soa'
p941
F0.5
sS'primitive'
p942
I1
sS'contains'
p943
F0.5
sS'autohotkey'
p944
F0.1
sS'javac'
p945
F0.4
sS'isapi-rewrite'
p946
F0.1
sS'sugarcrm'
p947
F0.5
sS'parsing'
p948
F0.2
sS'rendering'
p949
I0
sS'sos'
p950
F0.1
sS'haskell'
p951
I0
sS'doctrine'
p952
F0.5
sS'sfml'
p953
F0.5
sS'initializer-list'
p954
F0.5
sS'direct3d'
p955
F0.5
sS'vb.net-2010'
p956
F0.7
sS'msp430'
p957
F0.5
sS'jdbc'
p958
F0.5
sS'gis'
p959
F0.4
sS'compression'
p960
I0
sS'combinatorics'
p961
F0.5
sS'sortedlist'
p962
F0.5
sS'configuration-files'
p963
F0.5
sS'transform'
p964
F0.1
sS'gallery'
p965
F0.5
sS'css-box-shadow'
p966
F0.5
sS'width'
p967
I1
sS'common-lisp'
p968
F0.1
sS'wordpress'
p969
I1
sS'editor'
p970
F0.2
sS'spring'
p971
F0.2
sS'sqldatareader'
p972
F0.5
sS'rcpp'
p973
F0.5
sS'mongodb-php'
p974
F0.7
sS'war'
p975
F0.5
sS'httpclient'
p976
F0.5
sS'fork'
p977
F0.5
sS'imageicon'
p978
F0.5
sS'sqlalchemy'
p979
F0.5
sS'fpga'
p980
I0
sS'eclipse-emf'
p981
F0.5
sS'preg-match'
p982
F0.4
sS'sql-loader'
p983
F0.2
sS'paypal'
p984
F0.4
sS'computational-geometry'
p985
F0.3
sS'raytracing'
p986
F0.5
sS'notifications'
p987
F0.5
sS'apache-poi'
p988
I0
sS'catalyst'
p989
F0.1
sS'heap'
p990
I1
sS'monomac'
p991
F0.5
sS'android-linearlayout'
p992
F0.6
sS'gwt2'
p993
F0.5
sS'buildr'
p994
I0
sS'voicexml'
p995
F0.5
sS'clearcase'
p996
F0.5
sS'arrays'
p997
F0.2
sS'devexpress'
p998
F0.5
sS'jboss'
p999
I0
sS'access-vba'
p1000
F0.1
sS'android-edittext'
p1001
F0.5
sS'google-maps-markers'
p1002
I0
sS'bulkinsert'
p1003
F0.5
sS'autoconf'
p1004
I0
sS'powershell'
p1005
F0.2
sS'youtube-api'
p1006
I0
sS'trim'
p1007
F0.5
sS'passenger'
p1008
I0
sS'obfuscation'
p1009
F0.5
sS'proc-sql'
p1010
F0.5
sS'cfadmin'
p1011
F0.5
sS'deque'
p1012
I1
sS'syscall'
p1013
F0.5
sS'request'
p1014
I1
sS'abstract'
p1015
I1
sS'decrypt'
p1016
I0
sS'recommendation-engine'
p1017
F0.5
sS'postscript'
p1018
I1
sS'full-text-search'
p1019
I0
sS'winsock2'
p1020
F0.5
sS'timezone'
p1021
I1
sS'attr'
p1022
F0.2
sS'archive'
p1023
F0.8
sS'day-cq'
p1024
F0.5
sS'logical-operators'
p1025
I1
sS'auto-increment'
p1026
F0.5
sS'uipickerview'
p1027
F0.5
sS'index'
p1028
I1
sS'excel'
p1029
F0.1
sS'actor'
p1030
I0
sS'entity-framework-4'
p1031
F0.3
sS'sybase'
p1032
F0.5
sS'readonly'
p1033
F0.1
sS'inkscape'
p1034
F0.5
sS'jenkins'
p1035
F0.5
sS'depth-buffer'
p1036
F0.5
sS'depot'
p1037
F0.5
sS'pymongo'
p1038
F0.2
sS'sendfile'
p1039
F0.5
sS'jinternalframe'
p1040
F0.5
sS'models'
p1041
F0.5
sS'jaxb'
p1042
F0.9
sS'dotnet-httpclient'
p1043
F0.5
sS'asterisk'
p1044
I0
sS'urllib2'
p1045
F0.1
sS'webserver'
p1046
F0.5
sS'objectify'
p1047
F0.5
sS'rhino-mocks'
p1048
F0.5
sS'hashcode'
p1049
F0.3
sS'bigdecimal'
p1050
F0.2
sS'bitbucket'
p1051
F0.5
sS'tablecellrenderer'
p1052
F0.5
sS'modx-evolution'
p1053
I1
sS'chrono'
p1054
F0.5
sS'setinterval'
p1055
F0.5
sS'debian'
p1056
F0.5
sS'scala'
p1057
F0.1
sS'mouselistener'
p1058
F0.5
sS'getjson'
p1059
F0.2
sS'ddd-repositories'
p1060
I1
sS'cohesion'
p1061
F0.5
sS'javax.imageio'
p1062
F0.5
sS'slf4j'
p1063
I1
sS'time'
p1064
I1
sS'push'
p1065
F0.4
sS'codeblocks'
p1066
F0.5
sS'unidata'
p1067
F0.5
sS'blockingqueue'
p1068
F0.5
sS'osx'
p1069
I1
sS'managed'
p1070
F0.5
sS'twitter-bootstrap'
p1071
I0
sS'iterator'
p1072
I0
sS'watcom'
p1073
F0.5
sS'objective-c-runtime'
p1074
F0.5
sS'global'
p1075
F0.1
sS'focus'
p1076
F0.5
sS'rownumber'
p1077
F0.5
sS'themes'
p1078
F0.5
sS'selection'
p1079
F0.2
sS'informix'
p1080
F0.5
sS'subclass'
p1081
F0.5
sS'realbasic'
p1082
F0.5
sS'primes'
p1083
F0.1
sS'guava'
p1084
F0.2
sS'row'
p1085
F0.5
sS'google-fusion-tables'
p1086
F0.5
sS'varnish'
p1087
F0.5
sS'freertos'
p1088
F0.5
sS'inline-block'
p1089
F0.4
sS'flask'
p1090
I1
sS'jmf'
p1091
F0.5
sS'flash'
p1092
I1
sS'fetchxml'
p1093
F0.5
sS'jvm'
p1094
I0
sS'paintcomponent'
p1095
F0.5
sS'http-post'
p1096
I0
sS'jtextarea'
p1097
F0.2
sS'grails-domain-class'
p1098
F0.5
sS'excel-formula'
p1099
I0
sS'predicate'
p1100
F0.5
sS'string'
p1101
I1
sS'functional-testing'
p1102
I1
sS'plasticscm'
p1103
F0.5
sS'android-canvas'
p1104
F0.5
sS'drawrect'
p1105
I0
sS'nsdictionary'
p1106
I1
sS'global-asax'
p1107
I0
sS'x86-64'
p1108
F0.9
sS'open-uri'
p1109
F0.5
sS'ocpjp'
p1110
F0.5
sS'switch-statement'
p1111
F0.1
sS'floating-point'
p1112
F0.3
sS'datetime'
p1113
F0.3
sS'jettison'
p1114
F0.1
sS'uimanager'
p1115
F0.2
sS'slider'
p1116
F0.5
sS'pointer-arithmetic'
p1117
F0.5
sS'ms-access-2010'
p1118
F0.3
sS'jqgrid'
p1119
F0.5
sS'freemarker'
p1120
F0.5
sS'solver'
p1121
F0.5
sS'tablerow'
p1122
F0.5
sS'die'
p1123
F0.5
sS'gui'
p1124
I0
sS'fftw'
p1125
F0.5
sS'function-pointers'
p1126
I1
sS'standards'
p1127
F0.5
sS'eclipse-jdt'
p1128
F0.5
sS'div'
p1129
F0.4
sS'nhibernate-mapping'
p1130
I0
sS'multiprocessing'
p1131
I1
sS'zebra-printers'
p1132
F0.5
sS'ip-address'
p1133
I1
sS'gremlin'
p1134
F0.5
sS'sandcastle'
p1135
F0.5
sS'edittext'
p1136
F0.5
sS'javascript-events'
p1137
I1
sS'restkit'
p1138
F0.1
sS'ireport'
p1139
F0.5
sS'phpunit'
p1140
F0.6
sS'java-util-scanner'
p1141
F0.5
sS'pinvoke'
p1142
F0.4
sS'nsfilemanager'
p1143
F0.5
sS'simpledateformat'
p1144
I0
sS'django-queryset'
p1145
F0.5
sS'gitattributes'
p1146
F0.5
sS'netty'
p1147
F0.5
sS'windows-installer'
p1148
F0.5
sS'corba'
p1149
F0.1
sS'cgpoint'
p1150
F0.5
sS'iphone-sdk-5.0'
p1151
F0.5
sS'nested-lists'
p1152
I1
sS'64bit'
p1153
F0.4
sS'beautifulsoup'
p1154
F0.1
sS'reporting-services'
p1155
I0
sS'ssis'
p1156
I0
sS'ampersand'
p1157
F0.5
sS'iphone-sdk-3.0'
p1158
F0.4
sS'relational'
p1159
F0.5
sS'boost'
p1160
F0.2
sS'opencart'
p1161
F0.5
sS'gtk'
p1162
F0.5
sS'mergesort'
p1163
I0
sS'ektron'
p1164
F0.6
sS'ios4'
p1165
F0.6
sS'transparency'
p1166
F0.1
sS'tlistview'
p1167
F0.2
sS'f#-3.0'
p1168
F0.5
sS'bouncycastle'
p1169
F0.5
sS'aptana3'
p1170
I0
sS'gawk'
p1171
F0.5
sS'fgetcsv'
p1172
F0.5
sS'windows-8'
p1173
F0.5
sS'sealed'
p1174
F0.5
sS'xcode4.3'
p1175
F0.4
sS'xcode4.2'
p1176
I0
sS'wcf-client'
p1177
I0
sS'mockups'
p1178
F0.5
sS'apache'
p1179
I1
sS'realloc'
p1180
I1
sS'c++builder-xe2'
p1181
I1
sS'windows-7'
p1182
F0.2
sS'data-manipulation'
p1183
F0.8
sS'childbrowser'
p1184
F0.5
sS'automator'
p1185
F0.5
sS'vb.net'
p1186
F0.4
sS'strtok'
p1187
F0.5
sS'treemap'
p1188
F0.5
sS'xslt-grouping'
p1189
F0.3
sS'jquery-ui'
p1190
I1
sS'queue'
p1191
I0
sS'delimiter'
p1192
F0.5
sS'multicast'
p1193
F0.5
sS'objective-c-2.0'
p1194
F0.5
sS'short-circuiting'
p1195
F0.5
sS'coremidi'
p1196
I0
sS'explain-plan'
p1197
F0.5
sS'navigation'
p1198
F0.5
sS'grails-controller'
p1199
I1
sS'facebook-fanpage'
p1200
F0.5
sS'android-service'
p1201
I1
sS'ipc'
p1202
F0.1
sS'keymapping'
p1203
F0.5
sS'box-api'
p1204
I1
sS'android-widget'
p1205
F0.3
sS'apache-camel'
p1206
F0.5
sS'ls'
p1207
F0.3
sS'dvcs'
p1208
F0.5
sS'licensing'
p1209
F0.5
sS'mongodb-csharp'
p1210
F0.5
sS'bookmarks'
p1211
F0.5
sS'tuple-unpacking'
p1212
F0.5
sS'intellij-idea'
p1213
F0.5
sS'regex'
p1214
F0.2
sS'httpd'
p1215
F0.5
sS'google-nativeclient'
p1216
F0.6
sS'c-preprocessor'
p1217
F0.3
sS'shared-ptr'
p1218
I0
sS'hector'
p1219
F0.5
sS'mouseevent'
p1220
I1
sS'recursive-query'
p1221
F0.5
sS'wicket'
p1222
F0.5
sS'live'
p1223
F0.1
sS'comparison-operators'
p1224
F0.5
sS'dbpedia'
p1225
F0.5
sS'iphone'
p1226
F0.1
sS'https'
p1227
I0
sS'httpwebrequest'
p1228
F0.1
sS'quartz.net'
p1229
F0.5
sS'scope'
p1230
I0
sS'ruby-1.9.3'
p1231
F0.4
sS'checkout'
p1232
F0.5
sS'unsigned'
p1233
F0.2
sS'android-activity'
p1234
F0.2
sS'pylint'
p1235
F0.5
sS'coldfusion-10'
p1236
F0.2
sS'reinterpret-cast'
p1237
F0.5
sS'facebook-iframe'
p1238
I0
sS'monotouch'
p1239
F0.4
sS'blackberry-jde'
p1240
F0.5
sS'nested-class'
p1241
F0.5
sS'petrel'
p1242
F0.5
sS'google-closure-compiler'
p1243
F0.1
sS'associative-array'
p1244
F0.2
sS'memory-alignment'
p1245
F0.5
sS'scalar'
p1246
F0.6
sS'cas'
p1247
F0.5
sS'entity-framework-4.3'
p1248
F0.5
sS'jmenubar'
p1249
F0.5
sS'entity-framework-4.1'
p1250
F0.5
sS'cat'
p1251
F0.5
sS'flowlayout'
p1252
F0.5
sS'ninject'
p1253
F0.6
sS'printing'
p1254
F0.5
sS'k-means'
p1255
F0.1
sS'iframe'
p1256
I1
sS'anti-patterns'
p1257
F0.5
sS'use-case'
p1258
I1
sS'progressdialog'
p1259
F0.5
sS'pickle'
p1260
F0.5
sS'cad'
p1261
F0.5
sS'cabasicanimation'
p1262
F0.5
sS'sql-injection'
p1263
I1
sS'django-rest-framework'
p1264
F0.5
sS'nunit'
p1265
I0
sS'nexus'
p1266
F0.1
sS'symfony1'
p1267
F0.4
sS'errno'
p1268
F0.5
sS'va-list'
p1269
F0.5
sS'substring'
p1270
F0.3
sS'bonecp'
p1271
I0
sS'phpstorm'
p1272
I0
sS'uiimagepickercontroller'
p1273
F0.5
sS'c++11'
p1274
F0.1
sS'rvalue-reference'
p1275
I1
sS'simulation'
p1276
F0.5
sS'copy-constructor'
p1277
I1
sS'lazy-sequences'
p1278
F0.5
sS'simulink'
p1279
F0.5
sS'lxml'
p1280
I0
sS'monitoring'
p1281
F0.5
sS'managed-bean'
p1282
F0.5
sS'fpc'
p1283
F0.5
sS'distributed-computing'
p1284
F0.6
sS'tilt'
p1285
F0.5
sS'asmx'
p1286
F0.5
sS'range'
p1287
F0.4
sS'android-alarms'
p1288
I1
sS's4'
p1289
F0.5
sS'threadpool'
p1290
F0.1
sS'jsf-2'
p1291
F0.2
sS'jtableheader'
p1292
F0.5
sS'adminhtml'
p1293
F0.5
sS'optimal'
p1294
F0.5
sS'xhtml'
p1295
I1
sS'signal-handling'
p1296
F0.5
sS'map'
p1297
I0
sS'product'
p1298
F0.5
sS'centering'
p1299
F0.5
sS'implicits'
p1300
F0.5
sS'itemrenderer'
p1301
F0.5
sS'clone'
p1302
I1
sS'zend-route'
p1303
F0.5
sS'blobstore'
p1304
F0.5
sS'windows-mobile-6.5'
p1305
F0.5
sS'activereports'
p1306
F0.5
sS'membership'
p1307
F0.4
sS'accesscontrolexception'
p1308
F0.5
sS'aop'
p1309
I1
sS'date'
p1310
I1
sS'rows'
p1311
I1
sS'bit-shift'
p1312
F0.5
sS'data'
p1313
I1
sS'compatibility'
p1314
F0.6
sS'data-management'
p1315
F0.5
sS'dynamic-arrays'
p1316
F0.4
sS'html.dropdownlistfor'
p1317
F0.5
sS'ssl'
p1318
I1
sS'cfml'
p1319
I1
sS'html-lists'
p1320
I1
sS'stdio'
p1321
F0.5
sS'stdin'
p1322
I1
sS'explicit'
p1323
F0.5
sS'corona'
p1324
I0
sS'prototypal-inheritance'
p1325
F0.3
sS'fluent'
p1326
F0.5
sS'type-systems'
p1327
F0.5
sS'sandbox'
p1328
I0
sS'sh'
p1329
I0
sS'language-lawyer'
p1330
I1
sS'lookup-tables'
p1331
F0.5
sS'ghc'
p1332
F0.2
sS'batch-processing'
p1333
F0.5
sS'zedgraph'
p1334
F0.5
sS'dojo'
p1335
F0.5
sS'template-meta-programming'
p1336
F0.5
sS'csrf'
p1337
F0.5
sS'writeablebitmapex'
p1338
I0
sS'conditional-comments'
p1339
F0.5
sS'recordset'
p1340
F0.5
sS'xmldocument'
p1341
F0.5
sS'thread-local'
p1342
F0.5
sS'graphviz'
p1343
F0.5
sS'proguard'
p1344
F0.5
sS'nl2br'
p1345
F0.5
sS'counterclockwise'
p1346
F0.5
sS'zend-navigation'
p1347
F0.5
sS'google-earth'
p1348
F0.5
sS'blackberry-webworks'
p1349
I0
sS'event-dispatch-thread'
p1350
F0.5
sS'stack-trace'
p1351
F0.4
sS'preg-split'
p1352
F0.5
sS'virtual-functions'
p1353
F0.5
sS'accordion'
p1354
F0.5
sS'cstring'
p1355
I1
sS'asp.net-membership'
p1356
F0.5
sS'nscopying'
p1357
F0.5
sS'globalization'
p1358
I0
sS'uilabel'
p1359
I1
sS'forms'
p1360
I1
sS'yaml'
p1361
F0.5
sS'window'
p1362
I1
sS'gem'
p1363
F0.2
sS'saxon'
p1364
F0.4
sS'cache-control'
p1365
F0.5
sS'flex3'
p1366
F0.2
sS'main'
p1367
F0.1
sS'puzzle'
p1368
F0.5
sS'flex4'
p1369
F0.5
sS'treeset'
p1370
I0
sS'vtk'
p1371
I0
sS'html-form'
p1372
F0.5
sS'ember.js'
p1373
I1
sS'websphere-7'
p1374
F0.5
sS'error-handling'
p1375
I1
sS'views'
p1376
F0.5
sS'stringbuilder'
p1377
F0.6
sS'pass-by-value'
p1378
F0.5
sS'rake'
p1379
F0.8
sS'processes'
p1380
F0.5
sS'file-download'
p1381
F0.5
sS'swi-prolog'
p1382
F0.1
sS'safari'
p1383
F0.5
sS'uitabbarcontroller'
p1384
F0.5
sS'macvim'
p1385
F0.5
sS'nhibernate-criteria'
p1386
F0.5
sS'permissions'
p1387
I1
sS'xll'
p1388
F0.5
sS'equality'
p1389
F0.5
sS'tridion'
p1390
I0
sS'pseudo-element'
p1391
F0.5
sS'opera'
p1392
I0
sS'config'
p1393
F0.5
sS'ntlm'
p1394
F0.5
sS'gerrit'
p1395
I0
sS'xmlns'
p1396
I1
sS'random-forest'
p1397
F0.5
sS'admob'
p1398
F0.5
sS'typetraits'
p1399
F0.6
sS'lwuit'
p1400
F0.5
sS'date-format'
p1401
F0.5
sS'code-duplication'
p1402
F0.5
sS'pycharm'
p1403
I0
sS'cscope'
p1404
F0.5
sS'jboss-arquillian'
p1405
I0
sS'el'
p1406
F0.1
sS'r'
p1407
I0
sS'jquery-animate'
p1408
I1
sS'ecmascript-5'
p1409
F0.5
sS'vim-plugin'
p1410
F0.4
sS'httpwebresponse'
p1411
F0.5
sS'highstock'
p1412
F0.5
sS'wrap'
p1413
I1
sS'printwriter'
p1414
F0.5
sS'php-5.3'
p1415
F0.5
sS'c++'
p1416
F0.1
sS'sql-server-express'
p1417
F0.1
sS'csharpcodeprovider'
p1418
I0
sS'public-key-encryption'
p1419
F0.5
sS'object-pascal'
p1420
I1
sS'task-parallel-library'
p1421
F0.1
sS'grails-plugin'
p1422
F0.5
sS'canvas'
p1423
F0.4
sS'fopen'
p1424
F0.5
sS'jackson'
p1425
I0
sS'space'
p1426
F0.5
sS'rounding'
p1427
I0
sS'winjs'
p1428
F0.5
sS'factory'
p1429
F0.5
sS'ejb'
p1430
I1
sS'mahout'
p1431
F0.5
sS'poco'
p1432
F0.2
sS'event-store'
p1433
F0.5
sS'elastic-beanstalk'
p1434
F0.5
sS'internet'
p1435
F0.5
sS'code-first'
p1436
I0
sS'formula'
p1437
F0.5
sS'idataerrorinfo'
p1438
F0.5
sS'modelform'
p1439
F0.5
sS'jfilechooser'
p1440
F0.2
sS'hibernate'
p1441
I1
sS'silex'
p1442
F0.5
sS'goto'
p1443
I1
sS'crawling'
p1444
F0.5
sS'derived'
p1445
I1
sS'argv'
p1446
I1
sS'extbase'
p1447
F0.5
sS'cut'
p1448
F0.5
sS'android-ui'
p1449
F0.5
sS'dependencies'
p1450
F0.5
sS'postsharp'
p1451
F0.5
sS'eclipse-plugin'
p1452
I0
sS'phpexcel'
p1453
I0
sS'css-border-radius'
p1454
F0.4
sS'dispatcher'
p1455
F0.5
sS'google-api-java-client'
p1456
F0.5
sS'fabric'
p1457
F0.1
sS'eventaggregator'
p1458
F0.5
sS'database-normalization'
p1459
F0.5
sS'oci'
p1460
F0.5
sS'idhttp'
p1461
F0.5
sS'cube'
p1462
F0.1
sS'ocaml'
p1463
F0.5
sS'os.system'
p1464
F0.5
sS'yui'
p1465
F0.5
sS'sitefinity'
p1466
F0.5
sS'lockscreen'
p1467
F0.5
sS'vbscript'
p1468
F0.3
sS'routes'
p1469
F0.4
sS'micro-optimization'
p1470
I1
sS'nsmanagedobject'
p1471
F0.5
sS'view'
p1472
F0.8
sS'windows-explorer'
p1473
F0.4
sS'lambda'
p1474
I1
sS'android-resources'
p1475
I1
sS'rxtx'
p1476
I1
sS'rms'
p1477
F0.4
sS'variables'
p1478
F0.4
sS'rtsp'
p1479
F0.5
sS'client-side'
p1480
F0.1
sS'acceptance-testing'
p1481
F0.5
sS'nested'
p1482
F0.4
sS'itextsharp'
p1483
F0.5
sS'event-dispatching'
p1484
I1
sS'message'
p1485
F0.5
sS'open'
p1486
F0.5
sS'angular'
p1487
F0.5
sS'size'
p1488
I0
sS'uniqueidentifier'
p1489
F0.5
sS'exists'
p1490
F0.5
sS'webdeploy'
p1491
F0.5
sS'iad'
p1492
F0.5
sS'naudio'
p1493
F0.5
sS'flask-sqlalchemy'
p1494
F0.5
sS'yii'
p1495
F0.1
sS'params'
p1496
F0.5
sS'constants'
p1497
I1
sS'nginx'
p1498
I1
sS'crash-dumps'
p1499
F0.5
sS'treeviewitem'
p1500
F0.5
sS'structures'
p1501
I1
sS'friend'
p1502
F0.5
sS'monkeypatching'
p1503
F0.8
sS'django-socialauth'
p1504
F0.5
sS'movabletype'
p1505
F0.5
sS'silverlight-toolkit'
p1506
I0
sS'progress-bar'
p1507
F0.5
sS'session-variables'
p1508
I1
sS'vimscript'
p1509
I0
sS'function-object'
p1510
F0.5
sS'textreader'
p1511
F0.5
sS'wcf-binding'
p1512
F0.5
sS'padding'
p1513
F0.5
sS'short'
p1514
F0.5
sS'ingres'
p1515
F0.5
sS'yii-mvc'
p1516
F0.5
sS'plsqldeveloper'
p1517
F0.4
sS'copy'
p1518
I1
sS'visitor-pattern'
p1519
F0.5
sS'png'
p1520
I0
sS'business-connector'
p1521
F0.5
sS'asp.net-ajax'
p1522
I1
sS'robots.txt'
p1523
F0.5
sS'gpgpu'
p1524
F0.5
sS'sqldependency'
p1525
F0.5
sS'resourcebundle'
p1526
F0.5
sS'perl-data-structures'
p1527
F0.3
sS'lucene'
p1528
F0.7
sS'applet'
p1529
I1
sS'future'
p1530
F0.4
sS'spring-integration'
p1531
F0.5
sS'eclipse-plugin-dev'
p1532
F0.5
sS'ffmpeg'
p1533
I0
sS'amazon-s3'
p1534
I0
sS'zsh'
p1535
F0.5
sS'browser'
p1536
I0
sS'dependency-management'
p1537
F0.5
sS'linux-kernel'
p1538
F0.1
sS'seam'
p1539
I0
sS'mvvm'
p1540
F0.1
sS'hateoas'
p1541
F0.1
sS'image-manipulation'
p1542
F0.5
sS'bufferedimage'
p1543
F0.5
sS'ant'
p1544
F0.1
sS'coderush-xpress'
p1545
F0.5
sS'sax'
p1546
I1
sS'jquery-selectors'
p1547
F0.5
sS'sas'
p1548
F0.5
sS'mechanize'
p1549
I0
sS'nsurlconnection'
p1550
I0
sS'any'
p1551
F0.5
sS'facebook-graph-api'
p1552
F0.1
sS'cassandra'
p1553
F0.4
sS'silverlight-4.0'
p1554
I1
sS'progress-4gl'
p1555
F0.1
sS'uipopovercontroller'
p1556
F0.5
sS'glassfish-3'
p1557
F0.5
sS'backbone-views'
p1558
F0.5
sS'pseudocode'
p1559
I1
sS'zoo'
p1560
I0
sS'sharepoint-2007'
p1561
F0.5
sS'device-driver'
p1562
F0.5
sS'backwards-compatibility'
p1563
F0.5
sS'animation'
p1564
F0.3
sS'type-parameter'
p1565
I1
sS'wcf'
p1566
I0
sS'andengine'
p1567
F0.3
sS'local-variables'
p1568
F0.5
sS'gmail'
p1569
F0.5
sS'meta-tags'
p1570
F0.1
sS'windowbuilder'
p1571
F0.5
sS'internet-explorer-8'
p1572
I1
sS'artificial-intelligence'
p1573
F0.3
sS'buffer'
p1574
F0.2
sS'watir-webdriver'
p1575
I0
sS'c99'
p1576
F0.3
sS'code-behind'
p1577
F0.5
sS'libsvm'
p1578
I1
sS'insets'
p1579
I1
sS'scalatest'
p1580
F0.5
sS'c++03'
p1581
F0.3
sS'software-engineering'
p1582
F0.5
sS'mobile-safari'
p1583
I1
sS'where-clause'
p1584
F0.5
sS'xampp'
p1585
F0.4
sS'backbone.js'
p1586
I1
sS'google-places-api'
p1587
I0
sS'latex'
p1588
F0.5
sS'kendo-ui'
p1589
F0.1
sS'textarea'
p1590
F0.1
sS'c++-cx'
p1591
F0.5
sS'icmp'
p1592
F0.5
sS'viewmodel'
p1593
F0.5
sS'nltk'
p1594
F0.5
sS'selenium-grid'
p1595
I0
sS'isolatedstorage'
p1596
F0.5
sS'key-bindings'
p1597
F0.5
sS'zend-db'
p1598
I0
sS'webbrowser-control'
p1599
I0
sS'uitextfield'
p1600
I1
sS'vfp'
p1601
F0.5
sS'salt'
p1602
F0.5
sS'android-contentprovider'
p1603
I0
sS'screen-scraping'
p1604
I0
sS'nlp'
p1605
F0.1
sS'nls'
p1606
F0.2
sS'nspredicate'
p1607
F0.1
sS'qoq'
p1608
F0.5
sS'show'
p1609
F0.5
sS'lotus'
p1610
F0.5
sS'biztalk-2009'
p1611
F0.5
sS'selenium2'
p1612
F0.1
sS'subprocess'
p1613
I0
sS'datagrid'
p1614
F0.5
sS'monads'
p1615
I1
sS'wcf-data-services'
p1616
F0.1
sS'programming-languages'
p1617
F0.1
sS'treemodel'
p1618
F0.1
sS'bytebuffer'
p1619
F0.1
sS'google-apps-marketplace'
p1620
I0
sS'shibboleth'
p1621
F0.5
sS'breakpoints'
p1622
F0.5
sS'injection'
p1623
F0.5
sS'xml'
p1624
F0.2
sS'upgrade'
p1625
F0.5
sS'xmi'
p1626
F0.5
sS'macros'
p1627
F0.1
sS'phantomjs'
p1628
I0
sS'g++'
p1629
I0
sS'32bit-64bit'
p1630
F0.5
sS'erd'
p1631
I1
sS'street-address'
p1632
F0.5
sS'tridion-2011'
p1633
I0
sS'cpack'
p1634
I1
sS'datatemplate'
p1635
I0
sS'c#-2.0'
p1636
F0.5
sS'verilog'
p1637
F0.1
sS'boolean-logic'
p1638
F0.4
sS'reset'
p1639
F0.5
sS'fft'
p1640
F0.4
sS'query-string'
p1641
F0.5
sS'uitextview'
p1642
F0.5
sS'get'
p1643
I1
sS'string-concatenation'
p1644
F0.5
sS'cx-oracle'
p1645
F0.5
sS'mongoengine'
p1646
F0.5
sS'clang'
p1647
I0
sS'autoload'
p1648
F0.5
sS'ramaze'
p1649
F0.5
sS'geb'
p1650
F0.5
sS'instance'
p1651
I0
sS'ssh'
p1652
F0.1
sS'azure-configuration'
p1653
F0.5
sS'sse'
p1654
F0.5
sS'j2mepolish'
p1655
F0.3
sS'accelerate-framework'
p1656
F0.5
sS'repa'
p1657
F0.5
sS'jtextfield'
p1658
I0
sS'mapper'
p1659
F0.5
sS'datamapper'
p1660
I1
sS'android-layout'
p1661
F0.5
sS'finalizer'
p1662
F0.3
sS'webapp2'
p1663
F0.5
sS'nullptr'
p1664
F0.5
sS'active-pattern'
p1665
F0.5
sS'postgis'
p1666
F0.1
sS'itemscontrol'
p1667
F0.1
sS'jtextpane'
p1668
F0.1
sS'androidplot'
p1669
F0.5
sS'texture-mapping'
p1670
F0.5
sS'source'
p1671
F0.5
sS'sonar'
p1672
I1
sS'tika'
p1673
F0.5
sS'java.util.concurrent'
p1674
F0.6
sS'where'
p1675
I1
sS'http-headers'
p1676
F0.1
sS'kernel'
p1677
I0
sS'installshield'
p1678
F0.5
sS'spork'
p1679
F0.5
sS'datatables'
p1680
F0.5
sS'siblings'
p1681
F0.5
sS'fullcalendar'
p1682
F0.5
sS'preg-replace-callback'
p1683
F0.5
sS'comparable'
p1684
F0.6
sS'closures'
p1685
F0.4
sS'findbugs'
p1686
F0.7
sS'add-in'
p1687
F0.5
sS'socket.io'
p1688
F0.7
sS'nsis'
p1689
F0.5
sS'tablesorter'
p1690
F0.5
sS'javabeans'
p1691
F0.5
sS'nsobject'
p1692
I0
sS'calendar'
p1693
I0
sS'rmi'
p1694
F0.5
sS'defaulttablemodel'
p1695
F0.5
sS'tiles2'
p1696
F0.5
sS'powerpoint'
p1697
F0.5
sS'android-animation'
p1698
F0.2
sS'camping'
p1699
F0.5
sS'runtime'
p1700
I1
sS'actionscript-3'
p1701
I0
sS'urlfetch'
p1702
I0
sS'label'
p1703
I1
sS'xtext'
p1704
F0.5
sS'getattr'
p1705
F0.5
sS'ios-provisioning'
p1706
F0.5
sS'streaming'
p1707
I1
sS'import'
p1708
F0.4
sS'fusioncharts'
p1709
F0.5
sS'jta'
p1710
F0.5
sS'screen'
p1711
F0.5
sS'quartz-graphics'
p1712
I0
sS'google-cloud-storage'
p1713
F0.5
sS'.net-4.5'
p1714
I0
sS'jobs'
p1715
F0.5
sS'parent'
p1716
F0.5
sS'websphere'
p1717
F0.1
sS'uml-modeling'
p1718
F0.5
sS'pthreads'
p1719
F0.5
sS'typedef'
p1720
I1
sS'.net-4.0'
p1721
I1
sS'bitset'
p1722
F0.5
sS'nsnumber'
p1723
F0.8
sS'highlight'
p1724
I1
sS'serialization'
p1725
I1
sS'spark'
p1726
F0.5
sS'cli'
p1727
I1
sS'expression-blend'
p1728
I0
sS'concurrenthashmap'
p1729
F0.5
sS'parentheses'
p1730
F0.5
sS'format-specifiers'
p1731
F0.5
sS'richfaces'
p1732
F0.5
sS'exchange-server'
p1733
F0.1
sS'uipageviewcontroller'
p1734
I0
sS'mono'
p1735
F0.1
sS'binomial-heap'
p1736
F0.5
sS'viewwillappear'
p1737
I1
sS'indy10'
p1738
F0.2
sS'trigonometry'
p1739
I1
sS'google-docs'
p1740
F0.5
sS'gwt'
p1741
F0.1
sS'bufferedreader'
p1742
I1
sS'zend-framework2'
p1743
F0.5
sS'mkannotationview'
p1744
I1
sS'redgate'
p1745
F0.5
sS'modal-dialog'
p1746
F0.3
sS'comet'
p1747
I1
sS'left-recursion'
p1748
F0.5
sS'inversion-of-control'
p1749
F0.1
sS'expression'
p1750
I1
sS'selenium-webdriver'
p1751
I0
sS'forecasting'
p1752
F0.5
sS'filtering'
p1753
F0.5
sS'cabal'
p1754
F0.5
sS'workflow-foundation-4'
p1755
F0.5
sS'stream'
p1756
I0
sS'solid-principles'
p1757
F0.5
sS'idl-programming-language'
p1758
F0.5
sS'osx-lion'
p1759
I1
sS'cursor'
p1760
F0.1
sS'robotics'
p1761
F0.5
sS'array-key'
p1762
F0.5
sS'system-verilog'
p1763
F0.1
sS'search-engine'
p1764
F0.5
sS'spring-data'
p1765
F0.5
sS'begininvoke'
p1766
F0.5
sS'vdsp'
p1767
F0.5
sS'pod'
p1768
I1
sS'twig'
p1769
I0
sS'curl'
p1770
F0.1
sS'jnlp'
p1771
F0.5
sS'messagebox'
p1772
F0.5
sS'prolog-setof'
p1773
F0.4
sS'tuning'
p1774
F0.5
sS'accelerometer'
p1775
I0
sS'cql'
p1776
F0.5
sS'encryption'
p1777
I0
sS'adfs'
p1778
F0.5
sS'ruby-on-rails-3.1'
p1779
I1
sS'trie'
p1780
F0.5
sS'ruby-on-rails-3.2'
p1781
F0.5
sS'testng'
p1782
F0.7
sS'prototype'
p1783
I0
sS'visual-foxpro'
p1784
F0.5
sS'zope'
p1785
F0.5
sS'rdbms'
p1786
I1
sS'sitecore'
p1787
I0
sS'apache-felix'
p1788
F0.1
sS'libgdx'
p1789
F0.5
sS'traversal'
p1790
I0
sS'mocking'
p1791
F0.3
sS'e-commerce'
p1792
F0.5
sS'common-table-expression'
p1793
F0.6
sS'external'
p1794
F0.5
sS'anorm'
p1795
I0
sS'declaration'
p1796
I1
sS'variable-assignment'
p1797
I1
sS'ironpython'
p1798
F0.5
sS'nsurlrequest'
p1799
F0.5
sS'ruby'
p1800
F0.1
sS'protocols'
p1801
F0.5
sS'magento-1.5'
p1802
F0.5
sS'case'
p1803
F0.4
sS'tomcat7'
p1804
F0.5
sS'with-statement'
p1805
I1
sS'www-mechanize'
p1806
F0.5
sS'magento-1.6'
p1807
F0.5
sS'fluent-nhibernate'
p1808
I0
sS'microsoft-sync-framework'
p1809
F0.5
sS'profiler'
p1810
F0.1
sS'alarmmanager'
p1811
F0.5
sS'coldfusion'
p1812
I1
sS'center'
p1813
I1
sS'shared-libraries'
p1814
I0
sS'margin'
p1815
F0.5
sS'layout-inflater'
p1816
F0.5
sS'cq5'
p1817
F0.5
sS'smart-pointers'
p1818
I1
sS'ezpublish'
p1819
F0.5
sS'oledb'
p1820
F0.1
sS'stdout'
p1821
F0.4
sS'blas'
p1822
F0.3
sS'mongolab'
p1823
F0.5
sS'mql'
p1824
F0.5
sS'boost-spirit'
p1825
I0
sS'ubuntu-10.04'
p1826
F0.5
sS'telephony'
p1827
F0.5
sS'cobol'
p1828
F0.2
sS'archiva'
p1829
I0
sS'jni'
p1830
I0
sS'datastore'
p1831
F0.5
sS'datagridview'
p1832
F0.5
sS'ascii'
p1833
I1
sS'ivy'
p1834
F0.5
sS'smalltalk'
p1835
F0.5
sS'pdftk'
p1836
F0.5
sS'binary'
p1837
F0.2
sS'design-patterns'
p1838
I1
sS'saml'
p1839
I0
sS'jface'
p1840
F0.5
sS'group-by'
p1841
F0.3
sS'fractals'
p1842
F0.5
sS'locking'
p1843
I0
sS'itertools'
p1844
F0.5
sS'createprocess'
p1845
F0.5
sS'command-line-arguments'
p1846
I1
sS'kernighan-and-ritchie'
p1847
F0.5
sS'authentication'
p1848
F0.1
sS'code-analysis'
p1849
I1
sS'interbase'
p1850
F0.5
sS'capybara'
p1851
F0.5
sS'hxt'
p1852
F0.5
sS'cloudflare'
p1853
F0.5
sS'events'
p1854
I1
sS'member-functions'
p1855
I1
sS'datepart'
p1856
F0.5
sS'hadoop-streaming'
p1857
I0
sS'parcelable'
p1858
F0.5
sS'media-queries'
p1859
I1
sS'rfid'
p1860
F0.5
sS'driver'
p1861
I0
sS'allocation'
p1862
F0.5
sS'type-safety'
p1863
I1
sS'edges'
p1864
F0.5
sS'div-layouts'
p1865
F0.5
sS'cakephp-2.1'
p1866
F0.3
sS'virtual-machine'
p1867
F0.2
sS'android-viewpager'
p1868
F0.5
sS'extern'
p1869
F0.6
sS'wpf'
p1870
I1
sS'higher-order-functions'
p1871
F0.5
sS'crystal-reports'
p1872
F0.5
sS'break'
p1873
F0.5
sS'tracking'
p1874
F0.5
sS'undefined'
p1875
F0.2
sS'data-mining'
p1876
F0.5
sS'pycassa'
p1877
F0.5
sS'watin'
p1878
F0.5
sS'data-modeling'
p1879
F0.5
sS'markup'
p1880
F0.5
sS'ctags'
p1881
F0.5
sS'value-of'
p1882
F0.5
sS'system.drawing'
p1883
I0
sS'backbone.marionette'
p1884
F0.5
sS'prototype-programming'
p1885
F0.5
sS'worklight'
p1886
I1
sS'bottle'
p1887
F0.5
sS'na'
p1888
F0.3
sS'model'
p1889
F0.4
sS'modem'
p1890
F0.5
sS'seam2'
p1891
F0.5
sS'java-web-start'
p1892
I0
sS'nosql'
p1893
F0.7
sS'codeigniter-2'
p1894
F0.5
sS'jquery-ui-datepicker'
p1895
F0.5
sS'c89'
p1896
F0.5
sS'radio-button'
p1897
F0.4
sS'neon'
p1898
I0
sS'slime'
p1899
F0.3
sS'rest'
p1900
I0
sS'sublimetext'
p1901
F0.5
sS'gdb'
p1902
I0
sS'jshint'
p1903
F0.5
sS'entity-framework-5'
p1904
F0.5
sS'cocos2d'
p1905
I0
sS'clos'
p1906
F0.5
sS'internationalization'
p1907
I0
sS'gdi'
p1908
F0.5
sS'template-templates'
p1909
I0
sS'msvcrt'
p1910
F0.5
sS'greasemonkey'
p1911
F0.5
sS'action-filter'
p1912
F0.5
sS'look-and-feel'
p1913
I0
sS'autocad'
p1914
F0.5
sS'struct'
p1915
F0.3
sS'generator'
p1916
F0.1
sS'ruby-on-rails'
p1917
F0.2
sS'imagebutton'
p1918
F0.5
sS'mmap'
p1919
F0.2
sS'google-docs-api'
p1920
F0.5
sS'static-initialization'
p1921
F0.5
sS'd3.js'
p1922
F0.6
sS'sqlite3'
p1923
F0.6
sS'firewall'
p1924
F0.5
sS'decompression'
p1925
F0.5
sS'nerdtree'
p1926
I0
sS'pow'
p1927
F0.5
sS'stopwatch'
p1928
F0.5
sS'android-textview'
p1929
I1
sS'downcasting'
p1930
I1
sS'styles'
p1931
I1
sS'indexeddb'
p1932
F0.5
sS'biztalk-2010'
p1933
I0
sS'rubygems'
p1934
I1
sS'android-lifecycle'
p1935
F0.5
sS'libc'
p1936
F0.5
sS'support-vector-machines'
p1937
F0.5
sS'swig'
p1938
F0.5
sS'amd'
p1939
F0.4
sS'dart'
p1940
I0
sS'one-to-many'
p1941
F0.5
sS'chainsaw'
p1942
F0.2
sS'lwjgl'
p1943
F0.5
sS'grid'
p1944
F0.1
sS'database-schema'
p1945
I0
sS'hibernate-mapping'
p1946
F0.5
sS'using'
p1947
I1
sS'enums'
p1948
I1
sS'bochs'
p1949
I0
sS'aspectj'
p1950
F0.5
sS'parent-child'
p1951
F0.5
sS'silverlight'
p1952
F0.1
sS'avaudioplayer'
p1953
F0.6
sS'intel'
p1954
F0.1
sS'custom-action'
p1955
F0.5
sS'memmove'
p1956
F0.5
sS'const-cast'
p1957
F0.5
sS'wscript'
p1958
F0.5
sS'nullable'
p1959
F0.2
sS'extendscript'
p1960
F0.5
sS'jvm-arguments'
p1961
I1
sS'stdmap'
p1962
I0
sS'unique-ptr'
p1963
F0.5
sS'eventmachine'
p1964
F0.5
sS'blackberry'
p1965
F0.8
sS'datawindow'
p1966
F0.1
sS'facebook-page'
p1967
F0.5
sS'computer-science'
p1968
I1
sS'django-queries'
p1969
F0.5
sS'strcmp'
p1970
I1
sS'jquery-ui-dialog'
p1971
F0.5
sS'grouping'
p1972
F0.4
sS'fonts'
p1973
I1
sS'cisco'
p1974
I0
sS'cxf'
p1975
F0.7
sS'dcg'
p1976
F0.5
sS'conditional'
p1977
I1
sS'udev'
p1978
F0.5
sS'prolog-toplevel'
p1979
F0.5
sS'regex-negation'
p1980
F0.1
sS'erase'
p1981
F0.5
sS'cgcontext'
p1982
F0.5
sS'return-value'
p1983
F0.5
sS'table'
p1984
I1
sS'fgets'
p1985
F0.1
sS'xss'
p1986
I0
sS'matching'
p1987
F0.5
sS'explode'
p1988
I1
sS'dynamic-linking'
p1989
F0.5
sS'literals'
p1990
F0.5
sS'windows'
p1991
F0.1
sS'rpm'
p1992
F0.5
sS'kml'
p1993
F0.5
sS'ejb-3.0'
p1994
F0.5
sS'ejb-3.1'
p1995
F0.5
sS'string-literals'
p1996
F0.5
sS'pypy'
p1997
F0.5
sS'toad'
p1998
I1
sS'exit'
p1999
F0.5
sS'special-folders'
p2000
F0.5
sS'ddl'
p2001
F0.8
sS'sql-server-2008-r2'
p2002
I1
sS'content'
p2003
I1
sS'inno-setup'
p2004
F0.1
sS'android-imageview'
p2005
F0.2
sS'assembly'
p2006
F0.6
sS'database-performance'
p2007
F0.5
sS'function-composition'
p2008
F0.5
sS'rdfs'
p2009
F0.5
sS'tdd'
p2010
I0
sS'cc-mode'
p2011
I1
sS'iar'
p2012
F0.5
sS'jscrollbar'
p2013
F0.5
sS'bazaar'
p2014
F0.2
sS'class-method'
p2015
F0.5
sS'movieclip'
p2016
I1
sS'crystal-reports-2010'
p2017
F0.5
sS'comparison'
p2018
F0.4
sS'fuelphp'
p2019
F0.5
sS'firebird'
p2020
F0.1
sS'package'
p2021
I1
sS'ack'
p2022
F0.5
sS'azureservicebus'
p2023
F0.5
sS'spss'
p2024
I0
sS'acs'
p2025
I0
sS'struts2'
p2026
F0.2
sS'cuda'
p2027
I1
sS'confluence'
p2028
F0.4
sS'marshalling'
p2029
F0.5
sS'autotools'
p2030
F0.1
sS'backup'
p2031
F0.5
sS'nullpointerexception'
p2032
F0.3
sS'knitr'
p2033
F0.5
sS'sharedpreferences'
p2034
I0
sS'outlook'
p2035
F0.5
sS'relativelayout'
p2036
F0.5
sS'azure-storage-tables'
p2037
F0.3
sS'orientation'
p2038
I1
sS'instruments'
p2039
I0
sS'image'
p2040
I1
sS'sql'
p2041
F0.2
sS'prolog-dif'
p2042
F0.2
sS'jena'
p2043
I0
sS'charts'
p2044
I0
sS'sqlclient'
p2045
F0.5
sS'stringstream'
p2046
I1
sS'pivot'
p2047
F0.7
sS'database-partitioning'
p2048
F0.5
sS'cdi'
p2049
I0
sS'.net-2.0'
p2050
F0.5
sS'jaxp'
p2051
F0.5
sS'opengl'
p2052
F0.1
sS'iocp'
p2053
I0
sS'arel'
p2054
F0.5
sS'hex'
p2055
F0.7
sS'styling'
p2056
F0.5
sS'decode'
p2057
F0.5
sS'jquery-on'
p2058
I1
sS'emacs'
p2059
F0.3
sS'ipv4'
p2060
F0.1
sS'uiwebview'
p2061
I1
sS'ipv6'
p2062
F0.4
sS'dust.js'
p2063
I0
sS'npapi'
p2064
F0.5
sS'liferay'
p2065
I0
sS'mouseenter'
p2066
I1
sS'mvc-editor-templates'
p2067
F0.5
sS'odata'
p2068
F0.4
sS'semaphore'
p2069
F0.7
sS'apache-karaf'
p2070
F0.5
sS'haml'
p2071
I1
sS'semantic-web'
p2072
F0.6
sS'lazy-evaluation'
p2073
F0.4
sS'svm'
p2074
F0.5
sS'android-asynctask'
p2075
F0.3
sS'functor'
p2076
F0.5
sS'android-logcat'
p2077
F0.5
sS'multitasking'
p2078
F0.5
sS'framebuffer'
p2079
F0.5
sS'utf-16'
p2080
F0.5
sS'openxml'
p2081
F0.5
sS'gorm'
p2082
I1
sS'ntfs'
p2083
F0.5
sS'pull'
p2084
F0.4
sS'mathml'
p2085
F0.5
sS'dynamic-allocation'
p2086
F0.5
sS'windows-phone-7.1'
p2087
F0.5
sS'embedded'
p2088
F0.2
sS'default'
p2089
F0.5
sS'asp.net-mvc-3'
p2090
F0.1
sS'core-plot'
p2091
I0
sS'asp.net-mvc-4'
p2092
F0.6
sS'ioc-container'
p2093
F0.5
sS'graph-theory'
p2094
F0.5
sS'topshelf'
p2095
I0
sS'deadlock'
p2096
F0.4
sS'rust'
p2097
F0.5
sS'.net-assembly'
p2098
F0.5
sS'entity-attribute-value'
p2099
F0.4
sS'delphi-6'
p2100
F0.5
sS'delphi-5'
p2101
F0.5
sS'android-alertdialog'
p2102
I1
sS'cakephp-appmodel'
p2103
F0.5
sS'inner-classes'
p2104
F0.2
sS'nstextfield'
p2105
F0.5
sS'rvo'
p2106
F0.5
sS'excel-2007'
p2107
F0.3
sS'rvm'
p2108
I0
sS'boost-spirit-qi'
p2109
F0.5
sS'cryptoapi'
p2110
F0.5
sS'loops'
p2111
I0
sS'objective-c'
p2112
F0.2
sS'asynchronous'
p2113
F0.1
sS'apply-templates'
p2114
F0.5
sS'file'
p2115
F0.1
sS'facebook-javascript-sdk'
p2116
I0
sS'ax'
p2117
F0.4
sS'coded-ui-tests'
p2118
F0.5
sS'allocator'
p2119
F0.5
sS'mysql-real-escape-string'
p2120
F0.5
sS'zend-auth'
p2121
F0.5
sS'ajaxcontroltoolkit'
p2122
F0.5
sS'urlconnection'
p2123
F0.5
sS'clearcase-ucm'
p2124
F0.5
sS'omnithreadlibrary'
p2125
F0.5
sS'sql-server'
p2126
F0.1
sS'mmapi'
p2127
F0.5
sS'storage'
p2128
F0.4
sS'mouse-listeners'
p2129
F0.5
sS'gettext'
p2130
F0.5
sS'simple-html-dom'
p2131
F0.5
sS'virtual-memory'
p2132
F0.6
sS'prism'
p2133
I0
sS'declarative-services'
p2134
F0.5
sS'genetic-algorithm'
p2135
F0.6
sS'spatial'
p2136
F0.5
sS'type-conversion'
p2137
I1
sS'rspec-rails'
p2138
F0.5
sS'opacity'
p2139
F0.3
sS'openid'
p2140
F0.5
sS'javafx-2'
p2141
F0.5
sS'expandoobject'
p2142
F0.5
sS'screen-readers'
p2143
F0.5
sS'windows-authentication'
p2144
F0.5
sS'powershell-ise'
p2145
F0.5
sS'datasnap'
p2146
F0.5
sS'richtextbox'
p2147
F0.5
sS'jframe'
p2148
F0.4
sS'loading'
p2149
F0.5
sS'registry'
p2150
F0.5
sS'unit-of-work'
p2151
F0.5
sS'rpy2'
p2152
F0.1
sS'stringtemplate'
p2153
F0.5
sS'nswindow'
p2154
F0.5
sS'picturebox'
p2155
F0.5
sS'str-replace'
p2156
F0.3
sS'pool'
p2157
F0.5
sS'wxwidgets'
p2158
I0
sS'simplepie'
p2159
F0.5
sS'assert'
p2160
I1
sS'n-tier'
p2161
I1
sS'informatica'
p2162
F0.3
sS'masm'
p2163
F0.5
sS'powershell-v2.0'
p2164
F0.2
sS'strong-typing'
p2165
F0.5
sS'scroll'
p2166
F0.5
sS'raphael'
p2167
F0.1
sS'classcastexception'
p2168
I0
sS'validator'
p2169
F0.5
sS'typechecking'
p2170
F0.5
sS'spring-test'
p2171
I0
sS'directory'
p2172
F0.6
sS'collision-detection'
p2173
I1
sS'extjs-mvc'
p2174
I0
sS'nasm'
p2175
F0.5
sS'cpu'
p2176
F0.1
sS'telerik-grid'
p2177
F0.5
sS'bytearray'
p2178
F0.5
sS'semantic'
p2179
F0.5
sS'embedded-resource'
p2180
F0.2
sS'duplicates'
p2181
F0.2
sS'google-spreadsheet-api'
p2182
F0.5
sS'graphics'
p2183
F0.3
sS'java-8'
p2184
F0.7
sS'drag-and-drop'
p2185
F0.4
sS'strtotime'
p2186
I0
sS'mp4'
p2187
F0.5
sS'web-worker'
p2188
F0.5
sS'openlayers'
p2189
F0.5
sS'mp3'
p2190
F0.1
sS'x509certificate'
p2191
F0.5
sS'encapsulation'
p2192
F0.5
sS'sieve-of-eratosthenes'
p2193
F0.4
sS'scalaz'
p2194
I1
sS'disk'
p2195
F0.5
sS'children'
p2196
F0.5
sS'naming-conventions'
p2197
F0.2
sS'kobold2d'
p2198
F0.5
sS'system.reflection'
p2199
F0.5
sS'git-workflow'
p2200
F0.5
sS'icons'
p2201
F0.1
sS'drracket'
p2202
F0.5
sS'tr'
p2203
F0.1
sS'java-ee'
p2204
F0.1
sS'mktime'
p2205
I1
sS'wmi'
p2206
F0.5
sS'tk'
p2207
F0.5
sS'sympy'
p2208
F0.5
sS'nodes'
p2209
F0.5
sS'java-me'
p2210
F0.4
sS'qpainter'
p2211
I0
sS'ccache'
p2212
F0.5
sS'mysql-error-1064'
p2213
I0
sS'edi'
p2214
F0.5
sS'memory-management'
p2215
I1
sS'generics'
p2216
F0.1
sS'webrequest'
p2217
F0.4
sS'eclipse-gef'
p2218
F0.5
sS'webgrid'
p2219
F0.1
sS'mpi'
p2220
F0.1
sS'overlay'
p2221
F0.5
sS'matlab-guide'
p2222
F0.5
sS'ical'
p2223
I0
sS'fortran95'
p2224
F0.5
sS'gfortran'
p2225
I0
sS'amazon-ebs'
p2226
F0.4
sS'dapper'
p2227
F0.5
sS'xstream'
p2228
F0.5
sS'push-notification'
p2229
I0
sS'condition'
p2230
I0
sS'referential-transparency'
p2231
F0.5
sS'jcr'
p2232
F0.5
sS'datatrigger'
p2233
F0.5
sS'lisp'
p2234
F0.1
sS'tampermonkey'
p2235
F0.5
sS't4'
p2236
F0.5
sS'bpmn'
p2237
F0.4
sS'list'
p2238
F0.2
sS'mapreduce'
p2239
I1
sS'sqlcommand'
p2240
I0
sS'ext-gwt'
p2241
I0
sS'reference-type'
p2242
F0.5
sS'winddk'
p2243
F0.5
sS'google-maps-api-2'
p2244
F0.5
sS'google-maps-api-3'
p2245
F0.2
sS'domain-driven-design'
p2246
I0
sS'glsl'
p2247
I1
sS'dexterity'
p2248
F0.5
sS'cookies'
p2249
I1
sS'gridview'
p2250
F0.5
sS'nsxmlparser'
p2251
I1
sS'sync'
p2252
F0.5
sS'clob'
p2253
F0.5
sS'jeditorpane'
p2254
F0.5
sS'design'
p2255
I1
sS'qml'
p2256
F0.1
sS'plugins'
p2257
I1
sS'omniauth'
p2258
F0.5
sS'makemaker'
p2259
F0.5
sS'listbox'
p2260
I1
sS'page-object-gem'
p2261
F0.5
sS'monad-transformers'
p2262
F0.5
sS'intptr'
p2263
F0.5
sS'html-email'
p2264
I0
sS'xor'
p2265
I1
sS'sbt'
p2266
F0.2
sS'frameworks'
p2267
F0.2
sS'abi'
p2268
F0.5
sS'file-locking'
p2269
F0.5
sS'ast'
p2270
F0.5
sS'flash-builder'
p2271
I0
sS'reshape2'
p2272
F0.5
sS'public'
p2273
I1
sS'yield-return'
p2274
F0.2
sS'inline-assembly'
p2275
I0
sS'cronexpression'
p2276
F0.5
sS'session-timeout'
p2277
F0.5
sS'image-resizing'
p2278
F0.5
sS'memcached'
p2279
I0
sS'nant'
p2280
I0
sS'standards-compliance'
p2281
F0.5
sS'saxparser'
p2282
F0.6
sS'escaping'
p2283
I1
sS'tags'
p2284
I1
sS'web-security'
p2285
F0.2
sS'org-mode'
p2286
I0
sS'proc'
p2287
I1
sS'library-project'
p2288
F0.5
sS'mule'
p2289
F0.5
sS'firebase'
p2290
I0
sS'hashtable'
p2291
F0.2
sS'trunk'
p2292
F0.5
sS'pygobject'
p2293
I0
sS'jlist'
p2294
I0
sS'titanium-mobile'
p2295
F0.5
sS'arraycollection'
p2296
F0.5
sS'legend'
p2297
F0.5
sS'thrift'
p2298
F0.5
sS'side-effects'
p2299
F0.5
sS'caliburn.micro'
p2300
F0.5
sS'jax-ws'
p2301
F0.6
sS'start-job'
p2302
F0.5
sS'anonymous-function'
p2303
F0.2
sS'html-agility-pack'
p2304
I0
sS'popen'
p2305
F0.5
sS'c++-cli'
p2306
I0
sS'intellisense'
p2307
F0.5
sS'countif'
p2308
F0.5
sS'plone'
p2309
F0.2
sS'emulator'
p2310
I0
sS'graph'
p2311
I0
sS'action'
p2312
F0.5
sS'tesseract'
p2313
I0
sS'openfire'
p2314
F0.5
sS'unmanagedresources'
p2315
F0.5
sS'rename'
p2316
I1
sS'jre'
p2317
F0.2
sS'agi'
p2318
F0.5
sS'shuffle'
p2319
F0.5
sS'jailbreak'
p2320
F0.5
sS'layer'
p2321
F0.5
sS'tmux'
p2322
F0.2
sS'vim'
p2323
I0
sS'joomla2.5'
p2324
I0
sS'factory-pattern'
p2325
F0.8
sS'href'
p2326
I1
sS'pretty-print'
p2327
F0.5
sS'tfsbuild'
p2328
F0.4
sS'linear-algebra'
p2329
I1
sS'composite-primary-key'
p2330
I1
sS'jbutton'
p2331
F0.4
sS'select'
p2332
F0.2
sS'plinq'
p2333
I0
sS'oracle-apex'
p2334
F0.5
sS'executable'
p2335
F0.5
sS'basm'
p2336
F0.5
sS'helper'
p2337
F0.5
sS'foxpro'
p2338
F0.5
sS'gnat'
p2339
F0.5
sS'distinct'
p2340
F0.5
sS'crystal-reports-2008'
p2341
F0.5
sS'playframework-2.0'
p2342
I1
sS'binary-search-tree'
p2343
I1
sS'game-center'
p2344
F0.5
sS'qemu'
p2345
F0.4
sS'vi'
p2346
F0.2
sS'authorization'
p2347
F0.5
sS'spdy'
p2348
F0.5
sS'temp-tables'
p2349
F0.5
sS'logcat'
p2350
F0.5
sS'lambdaj'
p2351
F0.5
sS'nimbus'
p2352
F0.5
sS'operators'
p2353
F0.2
sS'rvalue'
p2354
F0.3
sS'actionlistener'
p2355
F0.1
sS'concurrentmodification'
p2356
F0.5
sS'concatenation'
p2357
F0.1
sS'itext'
p2358
F0.5
sS'dom-manipulation'
p2359
F0.5
sS'ssis-data-transformations'
p2360
F0.5
sS'generic-programming'
p2361
F0.5
sS'avr'
p2362
F0.3
sS'speech-recognition'
p2363
F0.2
sS'git-branch'
p2364
F0.5
sS'webkit'
p2365
F0.2
sS'git'
p2366
F0.4
sS'homebrew'
p2367
F0.5
sS'radgrid'
p2368
F0.5
sS'opengl-es'
p2369
I1
sS'query-expressions'
p2370
F0.5
sS'dex'
p2371
F0.2
sS'azure-worker-roles'
p2372
F0.5
sS'gql'
p2373
F0.5
sS'scala-2.10'
p2374
F0.5
sS'jdk'
p2375
F0.2
sS'large-files'
p2376
F0.6
sS'des'
p2377
F0.5
sS'for-loop'
p2378
I1
sS'sql-azure'
p2379
F0.3
sS'autocomplete'
p2380
I0
sS'netbeans-7'
p2381
F0.5
sS'mvvm-light'
p2382
F0.5
sS'inotifycollectionchanged'
p2383
F0.5
sS'azure-web-roles'
p2384
F0.5
sS'jdt'
p2385
F0.5
sS'tail-recursion'
p2386
F0.4
sS'history'
p2387
F0.5
sS'compare'
p2388
I1
sS'jsoup'
p2389
F0.1
sS'synchronized'
p2390
F0.9
sS'division'
p2391
I1
sS'attached-properties'
p2392
F0.5
sS'share'
p2393
F0.3
sS'virtuemart'
p2394
F0.5
sS'mathematica-8'
p2395
F0.5
sS'f#'
p2396
I0
sS'magento'
p2397
F0.1
sS'numbers'
p2398
I1
sS'jackrabbit'
p2399
F0.5
sS'exclude'
p2400
F0.5
sS'try-finally'
p2401
F0.5
sS'visual-studio-debugging'
p2402
F0.8
sS'strlen'
p2403
F0.5
sS'tapestry'
p2404
F0.4
sS'axis'
p2405
F0.5
sS'git-commit'
p2406
F0.5
sS'csh'
p2407
F0.5
sS'axis2'
p2408
F0.5
sS'apache2'
p2409
I0
sS'blackberry-editfield'
p2410
F0.5
sS'mapi'
p2411
F0.5
sS'pattern-matching'
p2412
F0.1
sS'csc'
p2413
F0.2
sS'visual-studio-express'
p2414
I0
sS'maps'
p2415
F0.5
sS'null-terminated'
p2416
F0.5
sS'pygame'
p2417
F0.1
sS'machine-learning'
p2418
I1
sS'mutable'
p2419
F0.5
sS'matplotlib-basemap'
p2420
F0.5
sS'csv'
p2421
I0
sS'opengl-es-2.0'
p2422
F0.5
sS'textview'
p2423
F0.5
sS'idisposable'
p2424
F0.1
sS'placement-new'
p2425
F0.7
sS'cjk'
p2426
F0.3
sS'powerbuilder'
p2427
F0.5
sS'excel-2010'
p2428
F0.5
sS'objdump'
p2429
F0.5
sS'extjs4.1'
p2430
I0
sS'resultset'
p2431
I1
sS'mapping'
p2432
F0.5
sS'sikuli'
p2433
I0
sS'rbac'
p2434
F0.5
sS'xilinx'
p2435
F0.5
sS'plane'
p2436
F0.5
sS'coldfusion-9'
p2437
I0
sS'coldfusion-8'
p2438
F0.1
sS'bioinformatics'
p2439
I1
sS'iasyncresult'
p2440
F0.5
sS'lazy-loading'
p2441
F0.5
sS'freepascal'
p2442
F0.1
sS'response'
p2443
F0.5
sS'text-editor'
p2444
F0.5
sS'scss'
p2445
F0.4
sS'argparse'
p2446
F0.1
sS'appcelerator-mobile'
p2447
F0.5
sS'github'
p2448
I0
sS'android-dialog'
p2449
F0.5
sS'sse2'
p2450
F0.3
sS'prerequisites'
p2451
I0
sS'lookahead'
p2452
F0.3
sS'documentation'
p2453
F0.1
sS'wav'
p2454
F0.5
sS'automation'
p2455
F0.6
sS'django'
p2456
I1
sS'fixed-point'
p2457
F0.5
sS'callback'
p2458
I1
sS'java.util.date'
p2459
F0.5
sS'hsqldb'
p2460
F0.5
sS'iis-express'
p2461
F0.5
sS'nvidia'
p2462
I0
sS'inline'
p2463
F0.1
sS'egg'
p2464
F0.5
sS'servlets'
p2465
F0.3
sS'blackberry-playbook'
p2466
F0.5
sS'uninstall'
p2467
F0.5
sS'deserialization'
p2468
F0.3
sS'checkbox'
p2469
I1
sS'2d-array'
p2470
I1
sS'hierarchy'
p2471
F0.5
sS'xmpp'
p2472
F0.5
sS'mockito'
p2473
I0
sS'asp.net-4.0'
p2474
I0
sS'ssh-keys'
p2475
F0.5
sS'redefinition'
p2476
F0.5
sS'producer-consumer'
p2477
F0.5
sS'observablecollection'
p2478
I0
sS'knapsack-problem'
p2479
F0.5
sS'code-generation'
p2480
I1
sS'installer'
p2481
F0.5
sS'forms-authentication'
p2482
I1
sS'custom-controls'
p2483
F0.5
sS'mongodb-query'
p2484
I0
sS'streamwriter'
p2485
I1
sS'infinite-loop'
p2486
F0.3
sS'conversion-operator'
p2487
F0.5
sS'call'
p2488
I1
sS'psycopg2'
p2489
I0
sS'sqldf'
p2490
F0.5
sS'selenium'
p2491
F0.1
sS'filechannel'
p2492
F0.2
sS'continuations'
p2493
F0.5
sS'html'
p2494
F0.3
sS'dynamic-memory-allocation'
p2495
I1
sS'version'
p2496
F0.5
sS'pcm'
p2497
I1
sS'nmap'
p2498
F0.5
sS'arguments'
p2499
I1
sS'type-providers'
p2500
I1
sS'return'
p2501
I0
sS'playframework'
p2502
F0.1
sS'stackpanel'
p2503
F0.5
sS'timestamp'
p2504
I1
sS'sencha-touch'
p2505
F0.1
sS'internet-explorer'
p2506
I1
sS'show-hide'
p2507
I0
sS'jruby'
p2508
F0.8
sS'getelementbyid'
p2509
F0.5
sS'io-redirection'
p2510
I0
sS'ms-office'
p2511
F0.5
sS'game-engine'
p2512
I1
sS'amazon-ec2'
p2513
I0
sS'google-earth-plugin'
p2514
F0.5
sS'microsoft-test-manager'
p2515
F0.5
sS'service-broker'
p2516
F0.5
sS'r5rs'
p2517
F0.4
sS'assemblies'
p2518
F0.5
sS'gitlab'
p2519
F0.5
sS'nservicebus'
p2520
F0.5
sS'refresh'
p2521
F0.5
sS'gradle'
p2522
I1
sS'2d'
p2523
F0.5
sS'token'
p2524
F0.5
sS'innodb'
p2525
F0.1
sS'fadeout'
p2526
F0.5
sS'windows-phone'
p2527
F0.5
sS'jmeter'
p2528
I0
sS'listgrid'
p2529
F0.5
sS'gpu-programming'
p2530
F0.5
sS'outputstream'
p2531
F0.5
sS'stored-procedures'
p2532
F0.1
sS'fluent-interface'
p2533
I1
sS'qr-code'
p2534
F0.5
sS'java-6'
p2535
I1
sS'reduce'
p2536
F0.5
sS'ocunit'
p2537
F0.5
sS'crontab'
p2538
F0.5
sS'jtogglebutton'
p2539
F0.5
sS'quartz-2d'
p2540
F0.5
sS'expandablelistview'
p2541
F0.5
sS'single-sign-on'
p2542
I0
sS'connect'
p2543
I1
sS'fbo'
p2544
F0.5
sS'neo4j'
p2545
F0.5
sS'content-management-system'
p2546
F0.2
sS'search'
p2547
I1
sS'modx-revolution'
p2548
I0
sS'ko.observablearray'
p2549
F0.5
sS'ftp'
p2550
F0.5
sS'join'
p2551
F0.5
sS'sencha'
p2552
F0.5
sS'preg-replace'
p2553
F0.1
sS'spacing'
p2554
I1
sS'cpu-architecture'
p2555
F0.5
sS'task-queue'
p2556
F0.5
sS'db2400'
p2557
F0.5
sS'for-comprehension'
p2558
F0.5
sS'evaluation'
p2559
F0.5
sS'initialization'
p2560
F0.2
sS'netbeans'
p2561
I0
sS'dotnetnuke'
p2562
I1
sS'gpl'
p2563
F0.5
sS'autofac'
p2564
F0.1
sS'dynamics-crm-2011'
p2565
F0.5
sS'bing-maps-api'
p2566
F0.5
sS'intrinsics'
p2567
F0.5
sS'localization'
p2568
I1
sS'ios'
p2569
F0.1
sS'linq-to-objects'
p2570
F0.5
sS'haskell-platform'
p2571
F0.5
sS'proxy'
p2572
I1
sS'members'
p2573
F0.5
sS'css'
p2574
I1
sS'put'
p2575
F0.8
sS'fluid-layout'
p2576
F0.5
sS'sicstus-prolog'
p2577
F0.4
sS'bash'
p2578
F0.1
sS'kol'
p2579
F0.5
sS'definition'
p2580
F0.5
sS'pyyaml'
p2581
I1
sS'launch'
p2582
F0.4
sS'drupal'
p2583
F0.3
sS'django-forms'
p2584
F0.2
sS'positioning'
p2585
I1
sS'round'
p2586
F0.5
sS'django-models'
p2587
F0.2
sS'openldap'
p2588
F0.5
sS'cakephp-2.0'
p2589
I0
sS'assign'
p2590
F0.5
sS'gnumakefiles'
p2591
F0.5
sS'singleton'
p2592
F0.2
sS'ios-simulator'
p2593
I1
sS'probability'
p2594
F0.6
sS'encoding'
p2595
I1
sS'bsxfun'
p2596
F0.5
sS'webforms'
p2597
I1
sS'kext'
p2598
F0.5
sS'operator-overloading'
p2599
I0
sS'windows-runtime'
p2600
I0
sS'jogl'
p2601
F0.5
sS'notify'
p2602
F0.7
sS'htc'
p2603
F0.1
sS'servicebus'
p2604
F0.5
sS'lucene-index'
p2605
F0.5
sS'xml-namespaces'
p2606
F0.5
sS'cfwheels'
p2607
F0.5
sS'bluetooth-lowenergy'
p2608
F0.5
sS'razor'
p2609
I1
sS'connection-pooling'
p2610
F0.5
sS'core.autocrlf'
p2611
F0.5
sS'compile-time-constant'
p2612
F0.5
sS'jet'
p2613
F0.5
sS'pandoc'
p2614
F0.5
sS'binaryfiles'
p2615
I1
sS'jetty'
p2616
I1
sS'effective-java'
p2617
F0.4
sS'railo'
p2618
F0.2
sS'spock'
p2619
F0.5
sS'silverstripe'
p2620
F0.5
sS'statement'
p2621
F0.5
sS'cluster-analysis'
p2622
F0.1
sS'bitmap'
p2623
I1
sS'weblogic'
p2624
F0.5
sS'zeromq'
p2625
F0.4
sS'scheme'
p2626
F0.4
sS'store'
p2627
F0.5
sS'schema'
p2628
F0.5
sS'fortran77'
p2629
F0.5
sS'glasspane'
p2630
F0.5
sS'option'
p2631
F0.4
sS'relationship'
p2632
F0.5
sS'cross-browser'
p2633
F0.5
sS'informatica-powercenter'
p2634
F0.5
sS'expression-trees'
p2635
I0
sS'filesystems'
p2636
F0.5
sS'core-image'
p2637
F0.5
sS'gpu'
p2638
F0.5
sS'moq'
p2639
F0.4
sS'methodinfo'
p2640
I1
sS'translation'
p2641
F0.6
sS'html-select'
p2642
F0.3
sS'serializable'
p2643
F0.5
sS'tfs'
p2644
F0.1
sS'alfresco'
p2645
F0.3
sS'tortoisehg'
p2646
F0.5
sS'grep'
p2647
I0
sS'phpmailer'
p2648
F0.5
sS'fold'
p2649
F0.7
sS'stl'
p2650
F0.1
sS'.htaccess'
p2651
F0.5
sS'robotlegs'
p2652
F0.5
sS'windows-xp'
p2653
F0.5
sS'dts'
p2654
F0.5
sS'liferay-theme'
p2655
I1
sS'gps'
p2656
I1
sS'virtual-destructor'
p2657
F0.5
sS'rspec2'
p2658
F0.7
sS'debugging'
p2659
F0.4
sS'input-validation'
p2660
F0.5
sS'uiscrollview'
p2661
I0
sS'bho'
p2662
F0.5
sS'django-celery'
p2663
F0.5
sS'chipmunk'
p2664
I0
sS'mootools'
p2665
F0.5
sS'bitwise'
p2666
F0.1
sS'python-module'
p2667
F0.5
sS'wysiwyg'
p2668
F0.5
sS'nsurl'
p2669
I0
sS'jasper-reports'
p2670
F0.2
sS'monodroid'
p2671
F0.5
sS'segue'
p2672
F0.5
sS'null'
p2673
I1
sS'dynamics'
p2674
F0.5
sS'nutch'
p2675
F0.5
sS'image-icon'
p2676
F0.5
sS'drop-down-menu'
p2677
I1
sS'windows-server-2008'
p2678
F0.5
sS'windows-phone-8'
p2679
F0.5
sS'fltk'
p2680
F0.5
sS'self'
p2681
I1
sS'windows-phone-7'
p2682
I1
sS'tinymce'
p2683
I0
sS'python-2.6'
p2684
I1
sS'port'
p2685
F0.5
sS'dynamics-crm-online'
p2686
F0.3
sS'mcrypt'
p2687
I1
sS'endeca'
p2688
I0
sS'sharepoint-2010'
p2689
I0
sS'windows-embedded-compact'
p2690
F0.5
sS'symfony2'
p2691
I1
sS'bde'
p2692
F0.5
sS'jsf'
p2693
I1
sS'flash-builder4.5'
p2694
F0.5
sS'components'
p2695
F0.5
sS'exec'
p2696
F0.7
sS'bug-tracking'
p2697
F0.5
sS'data.frame'
p2698
I0
sS'nsoperationqueue'
p2699
F0.2
sS'linq-to-xml'
p2700
F0.1
sS'sts-springsourcetoolsuite'
p2701
F0.5
sS'static-constructor'
p2702
F0.5
sS'jsp'
p2703
F0.9
sS'cygwin'
p2704
F0.1
sS'masstransit'
p2705
I0
sS'jpql'
p2706
F0.5
sS'alpha'
p2707
F0.5
sS'shared-objects'
p2708
F0.5
sS'selector'
p2709
I1
sS'qthread'
p2710
F0.5
sS'pdfbox'
p2711
F0.5
sS'exe'
p2712
F0.5
sS'crosstab'
p2713
F0.8
sS'executable-jar'
p2714
I0
sS'mathematical-optimization'
p2715
F0.5
sS'mobile'
p2716
F0.1
sS'app-engine-ndb'
p2717
F0.4
sS'init'
p2718
F0.5
sS'gin'
p2719
F0.5
sS'nsdateformatter'
p2720
I0
sS'phonegap'
p2721
I1
sS'getter'
p2722
F0.5
sS'caching'
p2723
I0
sS'velocity'
p2724
F0.5
sS'microsoft'
p2725
F0.5
sS'android-arrayadapter'
p2726
F0.5
sS'httphandler'
p2727
F0.5
sS'wsgi'
p2728
F0.3
sS'rtc'
p2729
I0
sS'compact-framework'
p2730
F0.3
sS'google-tv'
p2731
F0.5
sS'xcode'
p2732
F0.2
sS'binary-tree'
p2733
F0.8
sS'tastypie'
p2734
F0.5
sS'scrollview'
p2735
F0.2
sS'node.js'
p2736
I1
sS'circular-dependency'
p2737
F0.5
sS'session'
p2738
I1
sS'rtp'
p2739
F0.5
sS'networkx'
p2740
F0.5
sS'entity'
p2741
F0.7
sS'name-mangling'
p2742
F0.5
sS'find'
p2743
I0
sS'hornetq'
p2744
F0.5
sS'nscoding'
p2745
F0.4
sS'typo3'
p2746
F0.1
sS'cell'
p2747
I0
sS'in-app-purchase'
p2748
F0.5
sS'parameters'
p2749
I1
sS'ssms'
p2750
F0.5
sS'hdfs'
p2751
F0.6
sS'base-class'
p2752
F0.3
sS'stress-testing'
p2753
F0.1
sS'distributed'
p2754
F0.5
sS'fileapi'
p2755
F0.5
sS'google-play'
p2756
I1
sS'html-dom'
p2757
F0.5
sS'maven-surefire-plugin'
p2758
F0.5
sS'factor'
p2759
F0.5
sS'backbone-events'
p2760
I0
sS'circle'
p2761
F0.5
sS'jdom'
p2762
F0.1
sS'template-specialization'
p2763
F0.3
sS'std'
p2764
I1
sS'cell-array'
p2765
F0.5
sS'web-browser'
p2766
F0.5
sS'joomla-extensions'
p2767
F0.1
sS'scala-collections'
p2768
F0.5
sS'express'
p2769
I1
sS'js-test-driver'
p2770
I0
sS'computer-architecture'
p2771
F0.5
sS'synchronization'
p2772
F0.1
sS'data-access-layer'
p2773
F0.5
sS'.each'
p2774
F0.5
sS'sitecore6'
p2775
I0
sS'cloud9-ide'
p2776
F0.5
sS'xml-parsing'
p2777
F0.3
sS'continuous-integration'
p2778
F0.5
sS'egit'
p2779
F0.5
sS'roles'
p2780
F0.5
sS'drupal-modules'
p2781
F0.5
sS'tcl'
p2782
I0
sS'crc'
p2783
F0.5
sS'graph-databases'
p2784
F0.5
sS'double'
p2785
F0.5
sS'cmdlet'
p2786
F0.5
sS'factory-girl'
p2787
I0
sS'git-rebase'
p2788
F0.5
sS'crm'
p2789
I0
sS'function-calls'
p2790
F0.5
sS'set'
p2791
F0.4
sS'equinox'
p2792
F0.5
sS'unicode'
p2793
F0.1
sS'seq'
p2794
F0.5
sS'text-files'
p2795
I0
sS'locale'
p2796
F0.5
sS'iteration'
p2797
F0.5
sS'core-audio'
p2798
I0
sS'mongoose'
p2799
F0.5
sS'phpmyadmin'
p2800
F0.5
sS'web-services'
p2801
I0
sS'touch'
p2802
F0.5
sS'sed'
p2803
I0
sS'migration'
p2804
F0.5
sS'to-date'
p2805
F0.5
sS'seo'
p2806
I1
sS'move-semantics'
p2807
F0.2
sS'arm'
p2808
I0
sS'sequences'
p2809
F0.5
sS'uiinterfaceorientation'
p2810
F0.3
sS'decltype'
p2811
F0.7
sS'protobuf-net'
p2812
F0.5
sS'scala-java-interop'
p2813
I1
sS'keypress'
p2814
F0.7
sS'itunesconnect'
p2815
F0.5
sS'jvm-hotspot'
p2816
F0.5
sS'unions'
p2817
I1
sS'mutex'
p2818
F0.1
sS'xna-4.0'
p2819
I0
sS'clisp'
p2820
F0.5
sS'screen-orientation'
p2821
F0.5
sS'ms-access'
p2822
F0.1
sS'popup'
p2823
I0
sS'imagemagick'
p2824
F0.5
sS'xslt'
p2825
F0.2
sS'japplet'
p2826
F0.5
sS'javascript'
p2827
F0.2
sS'custom-attributes'
p2828
F0.5
sS'scalability'
p2829
I1
sS'parser-combinators'
p2830
F0.5
sS'integration-testing'
p2831
F0.5
sS'json-encode'
p2832
I0
sS'mirth'
p2833
F0.5
sS'interface'
p2834
F0.2
sS'sql-server-ce'
p2835
F0.5
sS'pcap'
p2836
I0
sS'4gl'
p2837
F0.6
sS'metaprogramming'
p2838
I0
sS'modalviewcontroller'
p2839
F0.5
sS'c'
p2840
F0.1
sS'binary-data'
p2841
F0.5
sS'folding'
p2842
F0.8
sS'sfinae'
p2843
F0.7
sS'boto'
p2844
I0
sS'hyperlink'
p2845
I1
sS'gae-datastore'
p2846
I0
sS'arraylist'
p2847
F0.1
sS'primary-key'
p2848
I1
sS'pdo'
p2849
I1
sS'if-statement'
p2850
I1
sS'connection'
p2851
F0.5
sS'context'
p2852
I1
sS'azure-storage-blobs'
p2853
F0.1
sS'pdf'
p2854
F0.5
sS'pde'
p2855
F0.5
sS'mean'
p2856
I1
sS'dynamics-ax-2012'
p2857
F0.5
sS'load'
p2858
F0.7
sS'geolocation'
p2859
F0.5
sS'markdown'
p2860
F0.5
sS'ruby-on-rails-3'
p2861
F0.1
sS'array-push'
p2862
F0.5
sS'datediff'
p2863
F0.5
sS'web-config'
p2864
F0.5
sS'rad'
p2865
F0.5
sS'exception-handling'
p2866
I1
sS'header'
p2867
I1
sS'agents'
p2868
F0.5
sS'pointfree'
p2869
I1
sS'linux'
p2870
I0
sS'mylyn'
p2871
F0.5
sS'long-integer'
p2872
I0
sS'asdf'
p2873
F0.5
sS'dataimporthandler'
p2874
F0.5
sS'ps'
p2875
F0.5
sS'facebook-fql'
p2876
F0.5
sS'java'
p2877
F0.1
sS'shopify'
p2878
F0.1
sS'exc-bad-access'
p2879
F0.5
sS'swc'
p2880
F0.3
sS'rewrite'
p2881
F0.5
sS'destructor'
p2882
I1
sS'embedded-linux'
p2883
F0.7
sS'extension-methods'
p2884
I1
sS'special-characters'
p2885
F0.5
sS'asp.net-mvc-routing'
p2886
F0.2
sS'variable-scope'
p2887
I1
sS'dup'
p2888
F0.5
sS'adb'
p2889
F0.1
sS'using-statement'
p2890
F0.5
sS'will-paginate'
p2891
F0.5
sS'data-binding'
p2892
I1
sS'swt'
p2893
F0.5
sS'font-lock'
p2894
F0.5
sS'nsdate'
p2895
I0
sS'google-chrome'
p2896
I1
sS'one-to-one'
p2897
F0.5
sS'kerberos'
p2898
I0
sS'gas'
p2899
F0.5
sS'covariance'
p2900
F0.1
sS'rspec'
p2901
I1
sS'multidimensional-array'
p2902
I1
sS'overloading'
p2903
F0.2
sS'serversocket'
p2904
F0.3
sS'func'
p2905
F0.5
sS'rdtsc'
p2906
F0.5
sS'gac'
p2907
F0.2
sS'imap'
p2908
F0.5
sS'appmobi'
p2909
F0.5
sS'ravendb'
p2910
F0.5
sS'comparator'
p2911
F0.5
sS'responsive-design'
p2912
F0.1
sS'partial-views'
p2913
F0.2
sS'project-euler'
p2914
I0
sS'invokelater'
p2915
F0.5
sS'optimization'
p2916
F0.2
sS'directoryservices'
p2917
F0.5
sS'screen-size'
p2918
F0.5
sS'shift'
p2919
F0.5
sS'drawable'
p2920
F0.5
sS'bookmarklet'
p2921
F0.5
sS'prolog'
p2922
I0
sS'boost-phoenix'
p2923
F0.5
sS'malloc'
p2924
I0
sS'increment'
p2925
I1
sS'jpa'
p2926
F0.3
sS'gmock'
p2927
F0.5
sS'calculator'
p2928
F0.3
sS'binding'
p2929
F0.4
sS'facelets'
p2930
I0
sS'activex'
p2931
F0.5
sS'numerical'
p2932
F0.5
sS'hover'
p2933
I1
sS'symfony-1.4'
p2934
F0.2
sS'uitableview'
p2935
I1
sS'signal-processing'
p2936
F0.2
sS'activesupport'
p2937
F0.5
sS'vaadin'
p2938
F0.5
sS'updatepanel'
p2939
F0.2
sS'dunit'
p2940
F0.2
sS'cclayer'
p2941
F0.5
sS'libcurl'
p2942
F0.5
sS'webgl'
p2943
I0
sS'x64'
p2944
F0.5
sS'text-to-speech'
p2945
F0.5
sS'phonegap-plugins'
p2946
F0.5
sS'coffeescript'
p2947
F0.3
sS'jpa-2.0'
p2948
F0.1
sS'model-binding'
p2949
F0.3
sS'geoserver'
p2950
F0.5
sS'octal'
p2951
F0.5
sS'matlab-figure'
p2952
F0.6
sS'real-world-haskell'
p2953
F0.5
sS'string.format'
p2954
F0.3
sS'composition'
p2955
F0.5
sS'shiro'
p2956
F0.5
sS'interpolation'
p2957
F0.2
sS'passwords'
p2958
I1
sS'temporary'
p2959
F0.6
sS'x86'
p2960
F0.1
sS'applicative'
p2961
F0.5
sS'freebase'
p2962
F0.5
sS'automatic-ref-counting'
p2963
F0.5
sS'tiff'
p2964
F0.5
sS'alert'
p2965
I1
sS'css-transition'
p2966
F0.4
sS'cucumber'
p2967
F0.3
sS'user'
p2968
F0.7
sS'static-methods'
p2969
I1
sS'aggregate'
p2970
F0.1
sS'mips'
p2971
F0.5
sS'mousemove'
p2972
I1
sS'tsql'
p2973
F0.1
sS'stack'
p2974
F0.4
sS'ssrs-2008'
p2975
F0.2
sS'gsp'
p2976
I0
sS'sha1'
p2977
F0.5
sS'tasm'
p2978
F0.5
sS'xpathnavigator'
p2979
F0.5
sS'database'
p2980
I1
sS'blackberry-simulator'
p2981
F0.5
sS'getelementsbyclassname'
p2982
F0.3
sS'memoization'
p2983
F0.5
sS'analysis'
p2984
F0.7
sS'delphi-prism'
p2985
F0.7
sS'googletest'
p2986
F0.5
sS'flags'
p2987
F0.5
sS'normals'
p2988
F0.5
sS'jboss-weld'
p2989
F0.5
sS'ultragrid'
p2990
F0.5
sS'c++builder'
p2991
F0.5
sS'jtree'
p2992
I0
sS'decimal'
p2993
I1
sS'distutils'
p2994
F0.1
sS'antlr'
p2995
I1
sS'python-2.7'
p2996
I1
sS'user-defined-functions'
p2997
F0.1
sS'writeablebitmap'
p2998
I1
sS'office-interop'
p2999
F0.5
sS'unique-constraint'
p3000
F0.3
sS'mysql'
p3001
F0.2
sS'xslcompiledtransform'
p3002
F0.5
sS'conditional-compilation'
p3003
F0.5
sS'jdeveloper'
p3004
I0
sS'to-char'
p3005
F0.5
sS'visual-studio-lightswitch'
p3006
F0.5
sS'alignment'
p3007
F0.5
sS'mysqli'
p3008
F0.1
sS'dynamics-ax'
p3009
F0.5
sS'hello-world'
p3010
F0.5
sS'libpcap'
p3011
I0
sS'keyevent'
p3012
F0.5
sS'quicklisp'
p3013
I0
sS'ormlite'
p3014
F0.5
sS'numeric'
p3015
I1
sS'teechart'
p3016
F0.5
sS'signals'
p3017
I1
sS'signalr'
p3018
I1
sS'rgb'
p3019
F0.5
sS'siteedit'
p3020
F0.5
sS'location'
p3021
F0.8
sS'jmenuitem'
p3022
F0.5
sS'input'
p3023
I1
sS'executorservice'
p3024
F0.2
sS'reportviewer'
p3025
F0.5
sS'transformation'
p3026
I0
sS'finder'
p3027
F0.2
sS'python-2.x'
p3028
F0.2
sS'associations'
p3029
F0.5
sS'game-physics'
p3030
F0.2
sS'varchar'
p3031
F0.2
sS'jcomponent'
p3032
I0
sS'finalize'
p3033
F0.5
sS'format'
p3034
I0
sS'uistoryboardsegue'
p3035
F0.5
sS'aggregation'
p3036
I0
sS'header-files'
p3037
F0.2
sS'quest'
p3038
F0.1
sS'private'
p3039
F0.8
sS'insert'
p3040
I1
sS'integer'
p3041
I1
sS'bit'
p3042
I1
sS'enumerable'
p3043
F0.5
sS'ifstream'
p3044
F0.5
sS'linqpad'
p3045
F0.4
sS'documentum'
p3046
F0.1
sS'memory'
p3047
F0.5
sS'case-sensitive'
p3048
I1
sS'sql-server-2012'
p3049
F0.5
sS'anonymous-class'
p3050
F0.4
sS'nsview'
p3051
F0.5
sS'manifest'
p3052
I1
sS'ignore'
p3053
F0.5
sS'surfaceview'
p3054
F0.5
sS'api'
p3055
I1
sS'mapkit'
p3056
I0
sS'variant'
p3057
F0.2
sS'terminology'
p3058
F0.6
sS'branching-and-merging'
p3059
F0.5
sS'methods'
p3060
I0
sS'class-diagram'
p3061
F0.5
sS'dllimport'
p3062
F0.5
sS'delayed-job'
p3063
I1
sS'google-api'
p3064
I1
sS'same-origin-policy'
p3065
F0.5
sS'traits'
p3066
F0.8
sS'wxpython'
p3067
I0
sS'slice'
p3068
F0.5
sS'simple-form'
p3069
F0.5
sS'apc'
p3070
F0.5
sS'imageview'
p3071
F0.7
sS'sizeof'
p3072
I0
sS'android-actionbar'
p3073
F0.4
sS'jquery-tablesorter'
p3074
F0.5
sS'virtualenv'
p3075
F0.2
sS'read-eval-print-loop'
p3076
F0.5
sS'netbeans-platform'
p3077
F0.5
sS'cvs2svn'
p3078
F0.5
sS'glibc'
p3079
I0
sS'warnings'
p3080
F0.2
sS'integration'
p3081
F0.5
sS'layout-manager'
p3082
F0.4
sS'market'
p3083
F0.4
sS'erlang'
p3084
F0.1
sS'iphone-web-app'
p3085
F0.2
sS'notepad++'
p3086
F0.5
sS'glob'
p3087
F0.4
sS'either'
p3088
I0
sS'cgi'
p3089
I0
sS'telerik'
p3090
F0.4
sS'teradata'
p3091
F0.1
sS'newline'
p3092
F0.1
sS'run'
p3093
F0.5
sS'objective-c-blocks'
p3094
F0.1
sS'export-to-excel'
p3095
F0.5
sS'git-submodules'
p3096
F0.1
sS'processing'
p3097
F0.5
sS'method-overloading'
p3098
F0.5
sS'use'
p3099
I1
sS'event-sourcing'
p3100
F0.5
sS'castle-windsor'
p3101
F0.1
sS'jdbctemplate'
p3102
F0.5
sS'asp.net-web-api'
p3103
I0
sS'wget'
p3104
F0.5
sS'wsdl'
p3105
I0
sS'diazo'
p3106
F0.5
sS'rapidminer'
p3107
F0.5
sS'grand-central-dispatch'
p3108
I1
sS'certificate'
p3109
I0
sS'relational-database'
p3110
F0.5
sS'text-mining'
p3111
I1
sS'github-api'
p3112
F0.5
sS'sql-order-by'
p3113
I0
sS'idl'
p3114
F0.5
sS'jasperserver'
p3115
F0.4
sS'syntactic-sugar'
p3116
I1
sS'messaging'
p3117
I1
sS'webview'
p3118
I1
sS'ide'
p3119
F0.4
sS'socketchannel'
p3120
F0.5
sS'block'
p3121
I0
sS'unmarshalling'
p3122
F0.5
sS'hudson'
p3123
F0.5
sS'real-time'
p3124
F0.5
sS'makefile'
p3125
I1
sS'active-directory'
p3126
I0
sS'priority-queue'
p3127
I1
sS'crash'
p3128
I1
sS'gtkmm'
p3129
F0.5
sS'tridion2009'
p3130
F0.5
sS'web-crawler'
p3131
F0.5
sS'perl'
p3132
F0.1
sS'pcre'
p3133
F0.1
sS'asp.net-mvc'
p3134
F0.3
sS'span'
p3135
F0.4
sS'propel'
p3136
F0.2
sS'instance-variables'
p3137
F0.5
sS'openerp'
p3138
I0
sS'jax-rs'
p3139
F0.2
sS'sequence'
p3140
I1
sS'stylesheet'
p3141
F0.3
sS'submit'
p3142
I1
sS'u2'
p3143
F0.5
sS'heroku'
p3144
I0
sS'handler'
p3145
I1
sS'mstest'
p3146
F0.1
sS'dynamics-ax-2009'
p3147
F0.5
sS'static-linking'
p3148
I1
sS'coderush'
p3149
F0.3
sS'android-xml'
p3150
F0.5
sS'xpath'
p3151
I0
sS'document.ready'
p3152
F0.3
sS'sizzle'
p3153
F0.5
sS'c#-5.0'
p3154
F0.5
sS'c-strings'
p3155
I1
sS'linq'
p3156
F0.2
sS'encode'
p3157
F0.8
sS'atoi'
p3158
I1
sS'readdir'
p3159
F0.5
sS'branch'
p3160
I0
sS'sdl'
p3161
F0.1
sS'line'
p3162
I1
sS'requestfactory'
p3163
F0.5
sS'sdk'
p3164
F0.1
sS'groovy'
p3165
I1
sS'utc'
p3166
F0.5
sS'partitioning'
p3167
F0.5
sS'combobox'
p3168
I0
sS'wait'
p3169
I1
sS'propertychangelistener'
p3170
F0.5
sS'middleware'
p3171
I1
sS'gstreamer'
p3172
I0
sS'floating-accuracy'
p3173
F0.4
sS'cin'
p3174
F0.3
sS'dynamic'
p3175
I0
sS'cil'
p3176
F0.2
sS'javascript-objects'
p3177
F0.4
sS'labview'
p3178
F0.5
sS'std-pair'
p3179
F0.5
sS'virtualtreeview'
p3180
F0.5
sS'execvp'
p3181
F0.5
sS'pure-virtual'
p3182
F0.2
sS'classloader'
p3183
F0.1
sS'quickfix'
p3184
F0.5
sS'operating-system'
p3185
I1
sS'business-intelligence'
p3186
I0
sS'hash'
p3187
F0.8
sS'security'
p3188
I0
sS'domxpath'
p3189
F0.5
sS'fread'
p3190
F0.5
sS'unsafe'
p3191
F0.5
sS'accessibility'
p3192
F0.5
sS'hashes'
p3193
F0.5
sS'char'
p3194
F0.6
sS'tomcat6'
p3195
F0.2
sS'xslt-1.0'
p3196
F0.1
sS'oauth-2.0'
p3197
F0.1
sS'nsuserdefaults'
p3198
I0
sS'rally'
p3199
I1
sS'parsec'
p3200
F0.1
sS'dbgrid'
p3201
I1
sS'cross-compiling'
p3202
F0.6
sS'vsto'
p3203
I0
sS'cmake'
p3204
I0
sS'amqp'
p3205
F0.8
sS'gnuplot'
p3206
F0.5
sS'strtol'
p3207
I1
sS'variadic-functions'
p3208
F0.5
sS'epoll'
p3209
F0.5
sS'nan'
p3210
F0.5
sS'jce'
p3211
F0.6
sS'scrapy'
p3212
F0.5
sS'nav'
p3213
F0.5
sS'igraph'
p3214
F0.5
sS'jcl'
p3215
F0.5
sS'get-childitem'
p3216
F0.5
sS'pandas'
p3217
I0
sS'draw'
p3218
F0.5
sS'llvm'
p3219
F0.2
sS'memory-mapped-files'
p3220
F0.4
sS'linear-regression'
p3221
F0.5
sS'mongodb'
p3222
F0.1
sS'scrum'
p3223
I1
sS'lucene.net'
p3224
I0
sS'posixct'
p3225
F0.5
sS'libtool'
p3226
F0.4
sS'eval'
p3227
F0.2
sS'drupal-views'
p3228
F0.5
sS'linq-to-sql'
p3229
I1
sS'buildout'
p3230
F0.5
sS'outlook-vba'
p3231
I0
sS'structure'
p3232
I0
sS'expressionengine'
p3233
F0.4
sS'svn'
p3234
F0.1
sS'webdriver'
p3235
F0.6
sS'plotmath'
p3236
F0.5
sS'algorithm'
p3237
F0.1
sS'jradiobutton'
p3238
I0
sS'svg'
p3239
I1
sS'uploadify'
p3240
F0.5
sS'system-calls'
p3241
F0.5
sS'youtube'
p3242
F0.1
sS'divide-and-conquer'
p3243
F0.5
sS'jpanel'
p3244
I1
sS'ternary'
p3245
F0.5
sS'oracle'
p3246
F0.1
sS'selenium-rc'
p3247
I0
sS'specs2'
p3248
F0.5
sS'for-in-loop'
p3249
F0.5
sS'oop'
p3250
F0.2
sS'ef-code-first'
p3251
F0.5
sS'msbuild'
p3252
F0.1
sS'scons'
p3253
I0
sS'hashmap'
p3254
F0.1
sS'tstringlist'
p3255
F0.4
sS'redis'
p3256
F0.1
sS'intersystems-cache'
p3257
F0.2
sS'json.net'
p3258
I1
sS'bigdata'
p3259
F0.4
sS'bioconductor'
p3260
F0.5
sS'toggle'
p3261
F0.2
sS'gd'
p3262
F0.3
sS'ggplot2'
p3263
F0.2
sS'jgit'
p3264
I0
sS'go'
p3265
I0
sS'automake'
p3266
F0.1
sS'java-2d'
p3267
F0.2
sS'jsse'
p3268
F0.5
sS'information-retrieval'
p3269
F0.7
sS'cython'
p3270
F0.5
sS'nsnotification'
p3271
F0.5
sS'nsstring'
p3272
F0.4
sS'condition-variable'
p3273
F0.5
sS'base64'
p3274
F0.5
sS'send'
p3275
F0.5
sS'javascript-library'
p3276
F0.5
sS'multicore'
p3277
F0.4
sS'istream'
p3278
I1
sS'sas-macro'
p3279
F0.5
sS'eclipse-rcp'
p3280
I1
sS'suite'
p3281
F0.5
sS'include'
p3282
F0.2
sS'dom-traversal'
p3283
F0.5
sS'getline'
p3284
I0
sS'resources'
p3285
F0.5
sS'testcomplete'
p3286
F0.5
sS'uninitialized'
p3287
F0.5
sS'sage'
p3288
F0.5
sS'mixins'
p3289
F0.7
sS'spring.net'
p3290
F0.5
sS'gtk3'
p3291
I0
sS'ms-access-2007'
p3292
F0.2
sS'sorting'
p3293
I1
sS'facebook'
p3294
I0
sS'loadlibrary'
p3295
F0.5
sS'stackoverflow'
p3296
I1
sS'mixing'
p3297
F0.8
sS'nsmanagedobjectcontext'
p3298
I0
sS'petapoco'
p3299
F0.5
sS'viewstate'
p3300
F0.5
sS'entitymanager'
p3301
F0.5
sS'options-menu'
p3302
I1
sS'import-from-excel'
p3303
F0.4
sS'udid'
p3304
I1
sS'mercurial'
p3305
F0.3
sS'button'
p3306
I1
sS'colors'
p3307
I1
sS'hive'
p3308
F0.1
sS'artifactory'
p3309
F0.5
sS'try-catch'
p3310
I1
sS'olap'
p3311
I0
sS'geospatial'
p3312
F0.5
sS'parallel.foreach'
p3313
I0
sS'rack'
p3314
F0.5
sS'versioning'
p3315
F0.3
sS'clojure'
p3316
I0
sS'biztalk'
p3317
F0.3
sS'zk'
p3318
F0.5
sS'asp-classic'
p3319
F0.5
sS'surefire'
p3320
F0.5
sS'elisp'
p3321
F0.4
sS'nsfetchedresultscontrolle'
p3322
F0.5
sS'cron'
p3323
F0.6
sS'autoit'
p3324
F0.5
sS'video'
p3325
F0.5
sS'membership-provider'
p3326
F0.5
sS'download'
p3327
F0.5
sS'icalendar'
p3328
F0.5
sS'tortoisesvn'
p3329
F0.3
sS'click'
p3330
I1
sS'append'
p3331
I0
sS'sql-server-2008'
p3332
F0.2
sS'x++'
p3333
F0.5
sS'html-helper'
p3334
F0.5
sS'git-clone'
p3335
F0.5
sS'sql-server-2000'
p3336
F0.4
sS'pipes'
p3337
F0.5
sS'sql-server-2005'
p3338
F0.2
sS'box2d'
p3339
F0.5
sS'user-controls'
p3340
I1
sS'hlist'
p3341
F0.5
sS'winforms'
p3342
I1
sS'volatile'
p3343
F0.4
sS'vb6'
p3344
F0.1
sS'bar-chart'
p3345
F0.5
sS'jdo'
p3346
I1
sS'cordova'
p3347
F0.5
sS'magento-admin'
p3348
I0
sS'3d'
p3349
I1
sS'drools'
p3350
I0
sS'winapi'
p3351
F0.1
sS'ms-access-2003'
p3352
F0.5
sS'drupal-7'
p3353
F0.1
sS'drupal-6'
p3354
F0.5
sS'commercial'
p3355
F0.5
sS'matplotlib'
p3356
F0.1
sS'scjp'
p3357
F0.5
sS'let'
p3358
I0
sS'octave'
p3359
F0.5
sS'ubuntu'
p3360
I0
sS'lex'
p3361
F0.5
sS'openmp'
p3362
F0.1
sS'accessor'
p3363
F0.2
sS'z3'
p3364
F0.5
sS'firefox-addon-sdk'
p3365
F0.5
sS'doctrine2'
p3366
I1
sS'vba'
p3367
I1
sS'cfchart'
p3368
F0.5
sS'uikit'
p3369
F0.3
sS'date-range'
p3370
F0.6
sS'vbo'
p3371
I0
sS'shader'
p3372
F0.5
sS'wcf-ria-services'
p3373
F0.5
sS'xdocument'
p3374
I0
sS'rdf'
p3375
F0.1
sS'derby'
p3376
F0.5
sS'enterprise-library'
p3377
F0.5
sS'language-design'
p3378
F0.7
sS'entity-relationship'
p3379
I0
sS'keylistener'
p3380
F0.4
sS'perl-module'
p3381
F0.4
sS'wif'
p3382
I0
sS'java-io'
p3383
F0.2
sS'firefox'
p3384
I1
sS'apple'
p3385
I1
sS'move-constructor'
p3386
I0
sS'antlrworks'
p3387
F0.5
sS'nsattributedstring'
p3388
F0.5
sS'watir'
p3389
I0
sS'sbcl'
p3390
F0.5
sS'lwp-useragent'
p3391
F0.5
sS'expect'
p3392
F0.5
sS'apk'
p3393
F0.2
sS'oracle10g'
p3394
F0.2
sS'boolean'
p3395
I1
sS'scalacheck'
p3396
F0.5
sS'jrun'
p3397
F0.4
sS'static-analysis'
p3398
F0.5
sS'windows-azure-storage'
p3399
F0.5
sS'cloud'
p3400
F0.3
sS'wix'
p3401
F0.5
sS'instantiation'
p3402
F0.5
sS'ontology'
p3403
I1
sS'usb'
p3404
F0.1
sS'zip'
p3405
F0.2
sS'google-app-engine'
p3406
F0.4
sS'azure-table-storage'
p3407
F0.5
sS'openlaszlo'
p3408
F0.5
sS'delphi-2010'
p3409
F0.2
sS'next'
p3410
F0.5
sS'nuget'
p3411
I0
sS'camera'
p3412
I0
sS'tablecelleditor'
p3413
I0
sS'cran'
p3414
F0.5
sS'panel'
p3415
F0.5
sS'lcdui'
p3416
F0.5
sS'miglayout'
p3417
F0.5
sS'powershell-remoting'
p3418
I1
sS'boost-asio'
p3419
F0.5
sS'document-classification'
p3420
F0.3
sS'generic-list'
p3421
F0.5
sS'iis'
p3422
I0
sS'postgresql-8.4'
p3423
F0.1
sS'trait'
p3424
I1
sS'xaml'
p3425
I1
sS'visibility'
p3426
F0.5
sS'template-haskell'
p3427
F0.5
sS'named-pipes'
p3428
F0.5
sS'override'
p3429
I1
sS'scipy'
p3430
F0.6
sS'scheduled-tasks'
p3431
F0.5
sS'mailmerge'
p3432
F0.5
sS'cakephp-1.3'
p3433
F0.2
sS'cakephp-1.2'
p3434
F0.5
sS'powermock'
p3435
F0.5
sS'gherkin'
p3436
F0.5
sS'resize'
p3437
F0.4
sS'sample'
p3438
F0.5
sS'pagination'
p3439
F0.5
sS'anonymous-types'
p3440
F0.5
sS'portability'
p3441
F0.1
sS'this'
p3442
I0
sS'enterprise-architect'
p3443
F0.5
sS'performance-testing'
p3444
F0.5
sS'self-join'
p3445
F0.5
sS'hash-of-hashes'
p3446
F0.5
sS'nstableview'
p3447
F0.5
sS'python-imaging-library'
p3448
I0
sS'executor'
p3449
F0.1
sS'activeadmin'
p3450
I0
sS'spl'
p3451
F0.4
sS'qimage'
p3452
F0.5
sS'proof'
p3453
F0.5
sS'control'
p3454
F0.2
sS'sqlite'
p3455
I0
sS'windows-shell'
p3456
F0.5
sS'model-glue'
p3457
F0.8
sS'tar'
p3458
I1
sS'pointer-to-member'
p3459
I1
sS'process'
p3460
F0.1
sS'pdf-generation'
p3461
F0.3
sS'file-descriptor'
p3462
F0.6
sS'race-condition'
p3463
F0.5
sS'javadoc'
p3464
F0.5
sS'mips32'
p3465
I0
sS'webmatrix'
p3466
F0.5
sS'event-log'
p3467
F0.5
sS'compiler-errors'
p3468
I1
sS'native'
p3469
I1
sS'transactionscope'
p3470
I1
sS'xna'
p3471
I1
sS'gcc'
p3472
F0.2
sS'uibarbuttonitem'
p3473
I1
sS'notation'
p3474
I1
sS'uibinder'
p3475
F0.5
sS'asn.1'
p3476
F0.5
sS'boxing'
p3477
F0.5
sS'blob'
p3478
I0
sS'pyqt'
p3479
I0
sS'delay'
p3480
F0.8
sS'azure-diagnostics'
p3481
F0.5
sS'attachment'
p3482
F0.3
sS'uinavigationcontroller'
p3483
F0.4
sS'glew'
p3484
F0.1
sS'integer-overflow'
p3485
I1
sS'apex-code'
p3486
F0.2
sS'uitoolbar'
p3487
I0
sS'desktop-application'
p3488
F0.5
sS'npm'
p3489
F0.5
sS'session-cookies'
p3490
F0.5
sS'msdn'
p3491
F0.5
sS'tableview'
p3492
F0.5
sS'regex-greedy'
p3493
F0.5
sS'url-rewriting'
p3494
I0
sS'google-drive-sdk'
p3495
I0
sS'await'
p3496
F0.5
sS'negative-number'
p3497
F0.5
sS'alertdialog'
p3498
F0.5
sS'sip'
p3499
F0.5
sS'mpns'
p3500
F0.5
sS'multiplication'
p3501
F0.5
sS'qtwebkit'
p3502
I0
sS'vimclojure'
p3503
F0.5
sS'out-of-memory'
p3504
F0.2
sS'windows-services'
p3505
F0.7
sS'prettify'
p3506
I0
sS'msmq'
p3507
F0.5
sS'nsrange'
p3508
I1
sS'bind'
p3509
F0.2
sS'inheritance'
p3510
F0.4
sS'grails'
p3511
F0.5
sS'django-class-based-views'
p3512
F0.5
sS'hashset'
p3513
F0.7
sS'element'
p3514
F0.2
sS'gitolite'
p3515
F0.5
sS'nancy'
p3516
F0.5
sS'smartcard-reader'
p3517
F0.5
sS'gethashcode'
p3518
F0.5
sS'osgi'
p3519
I0
sS'mustache'
p3520
F0.5
sS'section508'
p3521
F0.5
sS'face-recognition'
p3522
I0
sS'jqgrid-asp.net'
p3523
F0.5
sS'owl'
p3524
F0.2
sS'doctrine-1.2'
p3525
F0.5
sS'mod-perl2'
p3526
F0.5
sS'np-complete'
p3527
I0
sS'move'
p3528
F0.8
sS'joptionpane'
p3529
I0
sS'plsql'
p3530
F0.1
sS'combinations'
p3531
F0.5
sS'jna'
p3532
F0.5
sS'comma'
p3533
I1
sS'facebook-c#-sdk'
p3534
I0
sS'interpreter'
p3535
F0.3
sS'interceptor'
p3536
F0.5
sS'ofstream'
p3537
F0.1
sS'vms'
p3538
F0.5
sS'directx'
p3539
I0
sS'spotify'
p3540
F0.1
sS'ld'
p3541
I0
sS'netzke'
p3542
F0.5
sS'dispose'
p3543
F0.1
sS'paperclip'
p3544
I1
sS'ipython'
p3545
F0.5
sS'maven-2'
p3546
I0
sS'derivative'
p3547
F0.5
sS'httpcontext'
p3548
F0.5
sS'compiler'
p3549
F0.2
sS'static-cast'
p3550
F0.5
sS'foreach'
p3551
I0
sS'code-signing'
p3552
F0.5
sS'docx'
p3553
F0.5
sS'multimap'
p3554
F0.7
sS'domdocument'
p3555
F0.1
sS'double-checked-locking'
p3556
F0.5
sS'python'
p3557
F0.1
sS'system.reactive'
p3558
F0.4
sS'nokia'
p3559
F0.1
sS'indexing'
p3560
F0.5
sS'autorelease'
p3561
F0.5
sS'ms-word'
p3562
F0.4
sS'dbix-class'
p3563
I0
sS'smarty'
p3564
F0.5
sS'rotation'
p3565
F0.2
sS'cakephp'
p3566
I0
sS'rexx'
p3567
F0.5
sS'postgresql-9.1'
p3568
I1
sS'xpcom'
p3569
F0.5
sS'storyboard'
p3570
F0.2
sS'nfc'
p3571
F0.1
sS'trac'
p3572
F0.5
sS'xalan'
p3573
F0.5
sS'modx'
p3574
F0.5
sS'appcelerator'
p3575
F0.7
sS'.net'
p3576
F0.1
sS'ruby-1.9'
p3577
F0.5
sS'weak-references'
p3578
F0.3
sS'merge'
p3579
I1
sS'propertyinfo'
p3580
F0.5
sS'string-formatting'
p3581
F0.5
sS'tabcontrol'
p3582
F0.5
sS'winrt-xaml'
p3583
I0
sS'complexity-theory'
p3584
I1
sS'subset'
p3585
F0.5
sS'cascading-deletes'
p3586
F0.5
sS'bignum'
p3587
F0.5
sS'jodatime'
p3588
F0.2
sS'strip'
p3589
F0.5
sS'google-chrome-extension'
p3590
F0.7
sS'apple-push-notifications'
p3591
F0.5
sS'app-config'
p3592
F0.4
sS'bluetooth'
p3593
F0.1
sS'exist-db'
p3594
F0.5
sS'image-processing'
p3595
I0
sS'static'
p3596
I1
sS'citrix'
p3597
F0.5
sS'mxml'
p3598
F0.5
sS'knockout-2.0'
p3599
F0.5
sS'intersystems'
p3600
F0.5
sS'bpel'
p3601
F0.5
sS'httpurlconnection'
p3602
F0.5
sS'powershell-v3.0'
p3603
I1
sS'function-prototypes'
p3604
I1
sS'matrix'
p3605
I0
sS'command-line'
p3606
I1
sS'cortex-m3'
p3607
F0.1
sS'ssas'
p3608
I0
sS'vcl'
p3609
I0
sS'specifications'
p3610
F0.5
sS'underscore.js'
p3611
I1
sS'liferay-6'
p3612
F0.5
sS'max'
p3613
F0.2
sS'm2e'
p3614
F0.5
sS'spring-mvc'
p3615
I1
sS'metaclass'
p3616
F0.5
sS'math'
p3617
I0
sS'long-polling'
p3618
F0.5
sS'multithreading'
p3619
F0.2
sS'postback'
p3620
I1
sS'iostream'
p3621
F0.2
sS'dictionary'
p3622
F0.1
sS'sendmail'
p3623
F0.5
sS'subclipse'
p3624
F0.5
sS'ipod'
p3625
I1
sS'activity'
p3626
F0.7
sS'delegates'
p3627
I1
sS'greedy'
p3628
F0.5
sS'qt-creator'
p3629
F0.5
sS'zodb'
p3630
F0.5
sS'implode'
p3631
I1
sS'thrust'
p3632
I0
sS'firefox-addon'
p3633
F0.5
sS'indent'
p3634
F0.5
sS'git-merge'
p3635
F0.5
sS'midi'
p3636
F0.7
sS'geometry'
p3637
F0.6
sS'deprecated'
p3638
F0.5
sS'cruisecontrol.net'
p3639
F0.5
sS'lexer'
p3640
F0.5
sS'handlebars.js'
p3641
F0.5
sS'spoj'
p3642
F0.5
sS'timer'
p3643
F0.2
sS'grok'
p3644
F0.5
sS'elasticsearch'
p3645
I0
sS'zend-form'
p3646
I0
sS'xml-schema'
p3647
F0.3
sS'retain'
p3648
F0.5
sS'bytestring'
p3649
F0.5
sS'midp'
p3650
F0.5
sS'unobtrusive-javascript'
p3651
F0.5
sS'sencha-touch-2'
p3652
F0.4
sS'maven-3'
p3653
F0.5
sS'keyboard-shortcuts'
p3654
F0.6
sS'squeryl'
p3655
F0.5
sS'struts-1'
p3656
F0.5
sS'smartcard'
p3657
F0.1
sS'android-view'
p3658
I1
sS'web.xml'
p3659
F0.5
sS'm2eclipse'
p3660
F0.2
sS'echo'
p3661
F0.6
sS'workflow-foundation'
p3662
F0.5
sS'jcombobox'
p3663
I0
sS'dbexpress'
p3664
F0.4
sS'puppet'
p3665
F0.5
sS'abstract-class'
p3666
F0.1
sS'sockets'
p3667
I0
sS'google-chrome-devtools'
p3668
F0.1
sS'pydev'
p3669
F0.5
sS'weka'
p3670
F0.5
sS'reference'
p3671
F0.4
sS'ibm'
p3672
F0.5
sS'ordering'
p3673
F0.5
sS'scanf'
p3674
F0.5
sS'color-scheme'
p3675
F0.5
sS'mkdir'
p3676
I0
sS'system'
p3677
F0.5
sS'wrapper'
p3678
F0.5
sS'batch-file'
p3679
F0.1
sS'compiler-warnings'
p3680
F0.5
sS'git-push'
p3681
I1
sS'mybatis'
p3682
F0.5
sS'final'
p3683
I0
sS'pathogen'
p3684
F0.5
sS'opennetcf'
p3685
F0.5
sS'window-functions'
p3686
F0.5
sS'udp'
p3687
I0
sS'testing'
p3688
I1
sS'memorystream'
p3689
F0.5
sS'nsoperation'
p3690
F0.3
sS'dynamic-programming'
p3691
I1
sS'rsa'
p3692
F0.1
sS'perforce'
p3693
I0
sS'gwt-rpc'
p3694
I0
sS'composite-component'
p3695
F0.5
sS'jndi'
p3696
F0.2
sS'quantmod'
p3697
F0.5
sS'compiler-theory'
p3698
F0.5
sS'while-loop'
p3699
I1
sS'android-gridview'
p3700
F0.5
sS'rss'
p3701
I1
sS'android-custom-view'
p3702
F0.5
sS'delphi-2009'
p3703
F0.5
sS'subroutine'
p3704
I1
sS'ocamlyacc'
p3705
F0.5
sS'culture'
p3706
F0.5
sS'adfs2.0'
p3707
I0
sS'pointers'
p3708
F0.1
sS'delphi-2006'
p3709
F0.5
sS'delphi-2007'
p3710
F0.2
sS'jscrollpane'
p3711
F0.1
sS'uiviewanimation'
p3712
I1
sS'repository-pattern'
p3713
F0.1
sS'compass-css'
p3714
F0.5
sS'fragment-shader'
p3715
I0
sS'jquery-ui-tabs'
p3716
F0.5
sS'treepanel'
p3717
F0.5
sS'entity-framework'
p3718
I1
sS'multiple-inheritance'
p3719
F0.5
sS'user-interface'
p3720
I0
sS'f#-interactive'
p3721
I0
sS'protocol-buffers'
p3722
I0
sS'google-bigquery'
p3723
F0.5
sS'twitter-api'
p3724
F0.5
sS'openedge'
p3725
F0.5
sS'viewer'
p3726
I1
sS'lines'
p3727
F0.5
sS'linker'
p3728
F0.6
sS'excel-vba'
p3729
F0.2
sS'like-operator'
p3730
I1
sS'unpivot'
p3731
F0.5
sS'selectors'
p3732
F0.5
sS'border'
p3733
F0.6
sS'linked'
p3734
F0.5
sS'instrumentation'
p3735
F0.3
sS'wchar-t'
p3736
F0.7
sS'angle'
p3737
F0.5
sS'stl-algorithm'
p3738
F0.4
sS'cascade'
p3739
F0.5
sS'asp.net'
p3740
F0.2
sS'lotusscript'
p3741
F0.5
sS'javacc'
p3742
F0.5
sS'gravity'
p3743
F0.5
sS'external-tables'
p3744
F0.5
sS'worksheet-function'
p3745
I0
sS'nsmutablearray'
p3746
I1
sS'sinatra'
p3747
F0.4
sS'jboss7.x'
p3748
I0
sS'vimrc'
p3749
I1
sS'cocoa-bindings'
p3750
I0
sS'javacv'
p3751
F0.5
sS'platform-builder'
p3752
I0
sS'soap'
p3753
I0
sS'persistence'
p3754
F0.5
sS'crawler'
p3755
F0.4
sS'calculus'
p3756
F0.5
sS'implicit-conversion'
p3757
F0.1
sS'observer-pattern'
p3758
F0.5
sS'thread-safety'
p3759
F0.2
sS'wpfdatagrid'
p3760
I0
sS'automated-tests'
p3761
F0.4
sS'awt'
p3762
F0.5
sS'value-type'
p3763
F0.5
sS'hiphop'
p3764
F0.5
sS'awk'
p3765
F0.1
sS'specflow'
p3766
I1
sS'datamodule'
p3767
F0.5
sS'payment'
p3768
F0.5
sS'oracle11g'
p3769
I0
sS'url'
p3770
I1
sS'windowlistener'
p3771
F0.5
sS'baseadapter'
p3772
F0.5
sS'indy'
p3773
F0.5
sS'uri'
p3774
F0.5
sS'pipe'
p3775
F0.7
sS'folder'
p3776
F0.5
sS'iteratee'
p3777
F0.5
sS'com-interop'
p3778
F0.5
sS'joomla-component'
p3779
F0.5
sS'class-library'
p3780
F0.5
sS'dbi'
p3781
I0
sS'jira'
p3782
F0.5
sS'stackoverflowexception'
p3783
F0.5
sS'scrollviewer'
p3784
F0.5
sS'web.py'
p3785
F0.5
sS'loadrunner'
p3786
F0.5
sS'text'
p3787
F0.2
sS'eclipselink'
p3788
I1
sS'clpfd'
p3789
F0.5
sS'oauth'
p3790
F0.1
sS'css-selectors'
p3791
I1
sS'forceclose'
p3792
I1
sS'pyparsing'
p3793
F0.5
sS'uiimage'
p3794
I0
sS'setter'
p3795
F0.5
sS'redirect'
p3796
I1
sS'routing'
p3797
F0.4
sS'installation'
p3798
F0.2
sS'serial-port'
p3799
I1
sS'php-internals'
p3800
F0.5
sS'activemq'
p3801
I0
sS'restlet'
p3802
F0.1
sS'removeclass'
p3803
I1
sS'jar'
p3804
I1
sS'controls'
p3805
I0
sS'jstree'
p3806
F0.5
sS'terminal'
p3807
I0
sS'google-street-view'
p3808
F0.5
sS'sqlplus'
p3809
F0.5
sS'ambiguity'
p3810
F0.8
sS'texture2d'
p3811
F0.5
sS'local'
p3812
F0.5
sS'spring-security'
p3813
F0.1
sS'umbraco'
p3814
F0.3
sS'documentlistener'
p3815
F0.2
sS'uitabbar'
p3816
F0.5
sS'database-connection'
p3817
F0.5
sS'handle'
p3818
F0.5
sS'uibutton'
p3819
I1
sS'prolog-cut'
p3820
F0.4
sS'stripes'
p3821
F0.5
sS'overload-resolution'
p3822
F0.1
sS'listener'
p3823
F0.5
sS'ant-contrib'
p3824
F0.5
sS'install'
p3825
F0.4
sS'jira-plugin'
p3826
F0.5
sS'twilio'
p3827
F0.5
sS'db2'
p3828
F0.4
sS'scrolling'
p3829
F0.5
sS'memcpy'
p3830
F0.5
sS'converter'
p3831
F0.5
sS'android-camera'
p3832
I0
sS'aes'
p3833
I1
sS'scorm'
p3834
I1
sS'qt'
p3835
F0.1
sS'rebase'
p3836
F0.5
sS'coronasdk'
p3837
F0.5
sS'python-requests'
p3838
I0
sS'calling'
p3839
F0.5
sS'qa'
p3840
F0.5
sS'asp.net-mvc-2'
p3841
I0
sS'javacard'
p3842
F0.5
sS'datetime-format'
p3843
F0.5
sS'git-svn'
p3844
F0.7
sS'fixed'
p3845
I0
sS'dpi'
p3846
F0.7
sS'stylecop'
p3847
F0.1
sS'j'
p3848
F0.5
sS'saml-2.0'
p3849
F0.5
sS'qtp'
p3850
F0.5
sS'x11'
p3851
I0
sS'datalist'
p3852
F0.5
sS'preventdefault'
p3853
I1
sS'javasound'
p3854
F0.5
sS'module'
p3855
F0.4
sS'android-adapter'
p3856
F0.5
sS'dialog'
p3857
I1
sS'named-ranges'
p3858
F0.5
sS'profiling'
p3859
F0.1
sS'afnetworking'
p3860
F0.5
sS'racket'
p3861
F0.2
sS'rpgle'
p3862
F0.5
sS'hbase'
p3863
I0
sS'reverse-engineering'
p3864
I1
sS'uialertview'
p3865
F0.5
sS'paypal-sandbox'
p3866
F0.5
sS'ibm-mq'
p3867
F0.5
sS'ms-dos'
p3868
F0.5
sS'sql-update'
p3869
I0
sS'stanford-nlp'
p3870
F0.5
sS'dll'
p3871
F0.4
sS'performselector'
p3872
F0.5
sS'lua'
p3873
I0
sS'state'
p3874
F0.5
sS'big-o'
p3875
F0.4
sS'soapui'
p3876
F0.5
sS'stata'
p3877
F0.5
sS'ad-hoc-distribution'
p3878
F0.5
sS'email'
p3879
I1
sS'qt4'
p3880
I0
sS'cmd.exe'
p3881
F0.5
sS'web-frameworks'
p3882
I1
sS'jformattedtextfield'
p3883
F0.5
sS'asp.net-optimization'
p3884
F0.5
sS'c++-faq'
p3885
F0.5
sS'facebook-apps'
p3886
F0.5
sS'mfc'
p3887
I1
sS'teamcity'
p3888
I0
sS'equation-solving'
p3889
F0.5
sS'emacs24'
p3890
I1
sS'team-build'
p3891
F0.7
sS'key'
p3892
F0.4
sS'infinispan'
p3893
I0
sS'listselectionlistener'
p3894
F0.5
sS'typeclass'
p3895
I1
sS'configuration'
p3896
F0.5
sS'runtime-error'
p3897
F0.8
sS'gaps-and-islands'
p3898
F0.3
sS'tls'
p3899
F0.5
sS'doxygen'
p3900
F0.3
sS'tkinter'
p3901
I1
sS'junit'
p3902
F0.2
sS'outfile'
p3903
F0.5
sS'admin'
p3904
F0.1
sS'arduino'
p3905
F0.2
sS'valgrind'
p3906
F0.3
sS'ndef'
p3907
F0.5
sS'msdtc'
p3908
F0.5
sS'android-notifications'
p3909
F0.5
sS'ioexception'
p3910
F0.3
sS'hudson-plugins'
p3911
F0.5
sS'attributes'
p3912
F0.3
sS'neural-network'
p3913
F0.5
sS'ember-old-router'
p3914
I0
sS'jersey'
p3915
I1
sS'statistics'
p3916
F0.6
sS'lm'
p3917
F0.2
sS'webservice-client'
p3918
F0.5
sS'android-wifi'
p3919
F0.5
sS'vxworks'
p3920
F0.5
sS'websphere-mq'
p3921
I0
sS'bean-validation'
p3922
F0.1
sS'bundling-and-minification'
p3923
F0.5
sS'cd'
p3924
F0.5
sS'dependency-injection'
p3925
F0.2
sS'knockout.js'
p3926
I1
sS'rpc'
p3927
F0.3
sS'version-control'
p3928
I0
sS'onload'
p3929
F0.3
sS'rpg'
p3930
F0.5
sS'compile-time'
p3931
F0.5
sS'event-handling'
p3932
I0
sS'delphi-7'
p3933
F0.9
sS'scientific-computing'
p3934
F0.5
sS'android-webview'
p3935
I0
sS'mailto'
p3936
I1
sS'list-comprehension'
p3937
F0.1
sS'packages'
p3938
F0.5
sS'android-button'
p3939
I1
sS'cultureinfo'
p3940
F0.5
sS'solr'
p3941
I0
sS'core-data'
p3942
I1
sS'android-dialogfragment'
p3943
F0.2
sS'jit'
p3944
F0.2
sS'devise'
p3945
I0
sS'json'
p3946
I1
sS'android-4.0'
p3947
F0.7
sS'sweave'
p3948
F0.5
sS'uitableviewcell'
p3949
I1
sS'excel-2003'
p3950
F0.2
sS'query-execution-plans'
p3951
I1
sS'aggregate-functions'
p3952
F0.1
sS'define'
p3953
I1
sS'reshape'
p3954
F0.8
sS'capistrano'
p3955
F0.1
sS'minify'
p3956
F0.5
sS'url-routing'
p3957
I1
sS'objective-c++'
p3958
F0.3
sS'c#'
p3959
F0.2
sS'tycho'
p3960
I0
sS'xpath-2.0'
p3961
F0.5
sS'local-storage'
p3962
F0.7
sS'controller'
p3963
I0
sS'resteasy'
p3964
F0.5
sS'blackberry-eclipse-plugin'
p3965
F0.5
sS'python-subprocess-module'
p3966
F0.7
sS'ploneformgen'
p3967
F0.5
sS'nested-loops'
p3968
F0.5
sS'reverse'
p3969
F0.5
sS'jmockit'
p3970
F0.5
sS'cypher'
p3971
F0.5
sS'xpages'
p3972
I0
sS'iife'
p3973
F0.6
sS'ocmock'
p3974
F0.5
sS'nsmenuitem'
p3975
F0.5
sS'cvs'
p3976
F0.5
sS'type-punning'
p3977
F0.5
sS'accumulator'
p3978
I1
sS'nemerle'
p3979
F0.6
sS'jquery-deferred'
p3980
F0.3
sS'requirejs'
p3981
I1
sS'firebug'
p3982
F0.2
sS'openstreetmap'
p3983
F0.1
sS'kohana-3.2'
p3984
I0
sS'datacontext'
p3985
F0.4
sS'group'
p3986
I0
sS'alassetslibrary'
p3987
F0.5
sS'cherrypy'
p3988
F0.5
sS'flex'
p3989
F0.1
sS'libxml2'
p3990
F0.1
sS'uiimageview'
p3991
I1
sS'linkedin'
p3992
F0.5
sS'hardware'
p3993
F0.7
sS'digital-signature'
p3994
F0.5
sS'do-while'
p3995
F0.8
sS'linq-to-entities'
p3996
I1
sS'stringtokenizer'
p3997
F0.5
sS'jquery-events'
p3998
F0.1
sS'arabic'
p3999
F0.5
sS'avg'
p4000
F0.5
sS'regression'
p4001
I0
sS'capture'
p4002
I1
sS'formatexception'
p4003
F0.5
sS'stdstring'
p4004
I0
sS'emacs23'
p4005
F0.1
sS'qgraphicsscene'
p4006
I0
sS'enumeration'
p4007
F0.5
sS'member'
p4008
F0.3
sS'factorial'
p4009
F0.4
sS'unity'
p4010
F0.4
sS'qtreewidget'
p4011
F0.5
sS'auto'
p4012
F0.3
sS'myisam'
p4013
F0.5
sS'utf-8'
p4014
F0.7
sS'android'
p4015
F0.1
sS'graphics2d'
p4016
F0.5
sS'slickgrid'
p4017
I0
sS'classnotfoundexception'
p4018
F0.5
sS'stdvector'
p4019
F0.7
sS'http'
p4020
I0
sS'n-tier-architecture'
p4021
F0.5
sS'myfaces'
p4022
F0.5
sS'iequatable'
p4023
F0.5
sS'quicksort'
p4024
I0
sS'cleartool'
p4025
F0.5
sS'effect'
p4026
F0.5
sS'.net-framework-version'
p4027
F0.5
sS'fileinputstream'
p4028
F0.5
sS'v8'
p4029
F0.5
sS'build'
p4030
I1
sS'spree'
p4031
F0.5
sS'php'
p4032
F0.2
sS'identity'
p4033
F0.5
sS'xcode4'
p4034
I1
sS'polymorphism'
p4035
F0.2
sS'coding-style'
p4036
F0.4
sS'reflection'
p4037
F0.2
sS'fluent-nhibernate-mapping'
p4038
I0
sS'collabnet'
p4039
I1
sS'draggable'
p4040
F0.5
sS'patterns'
p4041
F0.5
sS'command'
p4042
I1
sS'adobe-analytics'
p4043
F0.5
sS'position'
p4044
I1
sS'moose'
p4045
F0.4
sS'audio'
p4046
I1
sS'parallel-processing'
p4047
F0.2
sS'drawing'
p4048
F0.5
sS'webclient'
p4049
F0.5
sS'uisegmentedcontrol'
p4050
F0.5
sS'pax-runner'
p4051
I1
sS'file-io'
p4052
I1
sS'lotus-notes'
p4053
F0.4
sS'mathematica'
p4054
I0
sS'less'
p4055
F0.6
sS'glut'
p4056
F0.5
sS'unordered-map'
p4057
F0.5
sS'ksh'
p4058
F0.1
sS'tcp'
p4059
F0.1
sS'data-visualization'
p4060
F0.5
sS'abap'
p4061
F0.5
sS'search-and-replace'
p4062
F0.4
sS'cqrs'
p4063
F0.6
sS'xml-serialization'
p4064
F0.1
sS'signals-slots'
p4065
F0.4
sS'low-level'
p4066
F0.5
sS'web'
p4067
I0
sS'adt'
p4068
F0.5
sS'console'
p4069
F0.3
sS'dao'
p4070
I1
sS'.net-remoting'
p4071
F0.5
sS'field'
p4072
F0.5
sS'nstextview'
p4073
F0.5
sS'spinner'
p4074
I0
sS'lattice'
p4075
F0.5
sS'add'
p4076
F0.5
sS'extends'
p4077
F0.5
sS'facebook-like'
p4078
I0
sS'ada'
p4079
F0.1
sS'application-server'
p4080
F0.1
sS'ado'
p4081
F0.1
sS'c11'
p4082
F0.5
sS'publish-subscribe'
p4083
I1
sS'ccsprite'
p4084
F0.5
sS'match'
p4085
I0
sS'primefaces'
p4086
F0.4
sS'css3'
p4087
F0.1
sS'jython'
p4088
F0.5
sS'sap'
p4089
F0.5
sS'habtm'
p4090
F0.5
sS'c#-3.0'
p4091
F0.8
sS'actionbarsherlock'
p4092
F0.5
sS'morphia'
p4093
F0.1
sS'bit-manipulation'
p4094
I1
sS'message-queue'
p4095
I0
sS'master-pages'
p4096
F0.5
sS'matlab-deployment'
p4097
F0.5
sS'php4'
p4098
F0.5
sS'cpan'
p4099
F0.5
sS'purely-functional'
p4100
F0.5
sS'deployment'
p4101
I1
sS'edt'
p4102
F0.5
sS'intersection'
p4103
F0.5
sS'uislider'
p4104
F0.5
sS'relational-division'
p4105
F0.5
sS'chromedriver'
p4106
F0.5
sS'like'
p4107
F0.1
sS'altova'
p4108
F0.5
sS'dynamic-cast'
p4109
F0.4
sS'inputverifier'
p4110
F0.5
sS'database-replication'
p4111
F0.5
sS'command-prompt'
p4112
F0.5
sS'jsf-1.2'
p4113
F0.5
sS'xquery'
p4114
I0
sS'lambda-functions'
p4115
F0.5
sS'visualsvn'
p4116
F0.5
sS'servlet-filters'
p4117
F0.2
sS'android-mapview'
p4118
F0.5
sS'replacement'
p4119
F0.5
sS'monotouch.dialog'
p4120
F0.5
sS'mod-rewrite'
p4121
F0.7
sS'vst'
p4122
F0.2
sS'jls'
p4123
F0.1
sS'hazelcast'
p4124
I0
sS'gcc-warning'
p4125
I1
sS'twitter'
p4126
I1
sS'mschart'
p4127
F0.5
sS'gevent'
p4128
I0
sS'export'
p4129
F0.5
sS'boost-thread'
p4130
I1
sS'bitwise-operators'
p4131
F0.6
sS'nvcc'
p4132
F0.5
sS'django-1.4'
p4133
F0.5
sS'ess'
p4134
F0.5
sS'borland'
p4135
F0.5
sS'ghostscript'
p4136
F0.1
sS'inner-join'
p4137
I0
sS'leak'
p4138
F0.5
sS'apply'
p4139
F0.2
sS'mouseover'
p4140
I1
sS'cross-domain'
p4141
F0.5
sS'tooltip'
p4142
F0.5
sS'temporary-objects'
p4143
F0.5
sS'uiapplicationdelegate'
p4144
F0.5
sS'django-views'
p4145
I1
sS'random-access'
p4146
F0.1
sS'marklogic'
p4147
F0.1
sS'symbol'
p4148
F0.5
sS'ejabberd'
p4149
I1
sS'object-detection'
p4150
F0.5
sS'pyrocms'
p4151
F0.5
sS'importerror'
p4152
F0.5
sS'pear'
p4153
I0
sS'ieee-754'
p4154
F0.5
sS'char-array'
p4155
F0.5
sS'symlink'
p4156
F0.5
sS'ggplot'
p4157
F0.5
sS'maven'
p4158
F0.2
sS'bundle'
p4159
F0.5
sS'mysql-workbench'
p4160
I0
sS'sqlconnection'
p4161
F0.5
sS'autofixture'
p4162
F0.5
sS'jlabel'
p4163
F0.4
sS'stage'
p4164
F0.5
sS'haproxy'
p4165
F0.5
sS'datareader'
p4166
F0.4
sS'objectoutputstream'
p4167
F0.5
sS'ansi'
p4168
F0.5
sS'sts-securitytokenservice'
p4169
F0.1
sS'guice'
p4170
F0.2
sS'strcpy'
p4171
I0
sS'oracle-adf'
p4172
F0.2
sS'constructor'
p4173
F0.1
sS'generate-series'
p4174
F0.4
sS'constraints'
p4175
F0.4
sS'uiviewcontroller'
p4176
I1
sS'password-protection'
p4177
F0.4
sS'openfeint'
p4178
F0.5
sS'clustered-index'
p4179
F0.5
sS'binary-search'
p4180
F0.1
sS'nested-forms'
p4181
F0.5
sS'qmake'
p4182
F0.5
sS'dataset'
p4183
I1
sS'cocoa'
p4184
F0.2
sS'squeak'
p4185
I0
sS'nsight'
p4186
I0
sS'renderer'
p4187
F0.1
sS'asteriskami'
p4188
F0.2
sS'gwt-platform'
p4189
F0.5
sS'undef'
p4190
F0.5
sS'w3c'
p4191
F0.5
sS'bing-maps'
p4192
F0.5
sS'networking'
p4193
I1
sS'maven-plugin'
p4194
F0.5
sS'snmp'
p4195
F0.5
sS'java-memory-model'
p4196
F0.3
sS'flash-cs5'
p4197
F0.5
sS'android-spinner'
p4198
F0.5
sS'xml-twig'
p4199
F0.5
sS'concat'
p4200
F0.5
sS'var'
p4201
F0.7
sS'maze'
p4202
F0.5
sS'filehandle'
p4203
I0
sS'dynamic-sql'
p4204
F0.5
sS'streamreader'
p4205
I0
sS'function'
p4206
F0.2
sS'oxygene'
p4207
F0.5
sS'repeater'
p4208
F0.5
sS'crystal-reports-xi'
p4209
I0
sS'django-admin'
p4210
I1
sS'sequel'
p4211
F0.3
sS'histogram'
p4212
F0.5
sS'phusion-passenger'
p4213
I1
sS'antlr3'
p4214
F0.5
sS'automapper'
p4215
I0
sS'overflow'
p4216
I1
sS'conventions'
p4217
F0.5
sS'count'
p4218
F0.2
sS'web-scraping'
p4219
I0
sS'dmd'
p4220
F0.5
sS'htmlunit'
p4221
I1
sS'python-3.x'
p4222
I0
sS'prettyfaces'
p4223
F0.1
sS'diacritics'
p4224
F0.5
sS'variadic-templates'
p4225
I0
sS'hosting'
p4226
F0.5
sS'signed'
p4227
F0.5
sS'cocos2d-iphone'
p4228
I0
sS'record'
p4229
F0.2
sS'persian'
p4230
F0.5
sS'limit'
p4231
F0.5
sS'django-templates'
p4232
I1
sS'cocoa-touch'
p4233
F0.2
sS'distribution'
p4234
F0.5
sS'jdialog'
p4235
F0.5
sS'datepicker'
p4236
F0.5
sS'sscanf'
p4237
F0.5
sS'timespan'
p4238
F0.6
sS'int'
p4239
I1
sS'flex4.6'
p4240
F0.5
sS'pic'
p4241
F0.5
sS'android-emulator'
p4242
I1
sS'soql'
p4243
F0.5
sS'hibernate-criteria'
p4244
F0.5
sS'ini'
p4245
F0.5
sS'regex-lookarounds'
p4246
F0.4
sS'mod-wsgi'
p4247
F0.5
sS'pip'
p4248
F0.5
sS'zebra-puzzle'
p4249
F0.5
sS'path'
p4250
F0.6
sS'nested-queries'
p4251
F0.5
sS'jmdns'
p4252
I0
sS'xpages-extlib'
p4253
F0.7
sS'sprite'
p4254
F0.5
sS'visual-c++'
p4255
I1
sS'inotifypropertychanged'
p4256
I0
sS'resharper'
p4257
F0.1
sS'retina-display'
p4258
F0.5
sS'java-bytecode-asm'
p4259
F0.5
sS'sicp'
p4260
F0.1
sS'virtual'
p4261
F0.8
sS'openni'
p4262
F0.5
sS'netlogo'
p4263
I0
sS'dd4t'
p4264
F0.5
sS'meteor'
p4265
F0.5
sS'hpc'
p4266
F0.8
sS'unit-testing'
p4267
F0.3
sS'.class-file'
p4268
F0.1
sS'linkedhashmap'
p4269
F0.5
sS'stat'
p4270
I0
sS'portlet'
p4271
I0
sS'vtable'
p4272
F0.4
sS'fslex'
p4273
F0.5
sS'class'
p4274
I1
sS'iso-prolog'
p4275
F0.5
sS'precision'
p4276
F0.3
sS'cpu-usage'
p4277
F0.5
sS'asset-pipeline'
p4278
F0.5
sS'buffer-overflow'
p4279
F0.5
sS'wamp'
p4280
I0
sS'quaternion'
p4281
F0.5
sS'websphere-6.1'
p4282
F0.5
sS'readline'
p4283
F0.5
sS'astronomy'
p4284
F0.5
sS'extjs'
p4285
F0.1
sS'sencha-architect'
p4286
F0.5
sS'video-processing'
p4287
F0.5
sS'feature-detection'
p4288
F0.5
sS'validation'
p4289
I1
sS'sphinx'
p4290
F0.5
sS'eof'
p4291
F0.5
sS'tomcat'
p4292
I1
sS'floating-point-precision'
p4293
F0.5
sS'unboundid-ldap-sdk'
p4294
F0.5
sS'uitableviewcontroller'
p4295
I0
sS'z-index'
p4296
F0.5
sS'exception-safety'
p4297
F0.5
sS'eol'
p4298
F0.8
sS'partial-specialization'
p4299
F0.1
sS'pytz'
p4300
I1
sS'http-status-code-403'
p4301
F0.5
sS'source-code'
p4302
F0.5
sS'python-idle'
p4303
I1
sS'spring-3'
p4304
F0.5
sS'ienumerator'
p4305
F0.5
sS'iis-7.5'
p4306
I1
s.