(dp0
S'salesforce'
p1
I0
sS'h.264'
p2
F0.5
sS'biopython'
p3
I1
sS'autoboxing'
p4
F0.5
sS'userscripts'
p5
F0.2
sS'apple-push-notifications'
p6
I1
sS'unobtrusive-validation'
p7
F0.5
sS'prefix'
p8
F0.5
sS'sparse-matrix'
p9
I0
sS'sleep'
p10
I1
sS'bytecode'
p11
F0.5
sS'roslyn'
p12
F0.5
sS'ssms-2008'
p13
F0.5
sS'wicket-tester'
p14
F0.5
sS'crtp'
p15
F0.5
sS'audiounit'
p16
I0
sS'html5'
p17
I1
sS'typeerror'
p18
I1
sS'xts'
p19
F0.2
sS'windows-ce'
p20
F0.5
sS'mpmovieplayercontroller'
p21
F0.6
sS'zxing'
p22
F0.5
sS'esb'
p23
F0.5
sS'openmpi'
p24
F0.5
sS'matlab'
p25
F0.2
sS'endianness'
p26
F0.2
sS'new-operator'
p27
F0.1
sS'lwuit-form'
p28
F0.5
sS'findwindow'
p29
F0.5
sS'xtk'
p30
F0.5
sS'html5-canvas'
p31
F0.3
sS'cluster-computing'
p32
F0.5
sS'entity-attribute-value'
p33
F0.5
sS'filenotfoundexception'
p34
F0.5
sS'bufferedinputstream'
p35
F0.5
sS'prototypejs'
p36
I1
sS'void'
p37
I1
sS'monodevelop'
p38
F0.5
sS'spring-roo'
p39
F0.5
sS'assetic'
p40
I1
sS'replication'
p41
I1
sS'smack'
p42
F0.5
sS'tostring'
p43
F0.2
sS'prepared-statement'
p44
I1
sS'namespaces'
p45
I1
sS'derived-class'
p46
I1
sS'idictionary'
p47
F0.5
sS'async-ctp'
p48
F0.5
sS'voip'
p49
F0.1
sS'jpopupmenu'
p50
F0.5
sS'unity3d'
p51
F0.6
sS'rhomobile'
p52
I1
sS'saxparser'
p53
F0.5
sS'open-source'
p54
I0
sS'jprogressbar'
p55
F0.4
sS'knockout-mapping-plugin'
p56
F0.5
sS'xamdatagrid'
p57
F0.5
sS'cmd'
p58
I1
sS'upload'
p59
F0.2
sS'rabbitmq'
p60
I0
sS'vector'
p61
F0.2
sS'google-closure-library'
p62
F0.5
sS'relational-algebra'
p63
F0.5
sS'computed-columns'
p64
F0.5
sS'atk4'
p65
F0.1
sS'visualvm'
p66
F0.4
sS'octal'
p67
F0.5
sS'application-pool'
p68
F0.5
sS'application.cfc'
p69
F0.5
sS'runtime.exec'
p70
F0.7
sS'ms-solver-foundation'
p71
F0.5
sS'nsdata'
p72
F0.3
sS'dynamics-crm'
p73
I0
sS'osdev'
p74
F0.5
sS'chef'
p75
I0
sS'category-theory'
p76
F0.5
sS'ilist'
p77
F0.5
sS'nopcommerce'
p78
F0.5
sS'kivy'
p79
F0.5
sS'jtreetable'
p80
F0.5
sS'scalaz'
p81
F0.5
sS'theory'
p82
F0.9
sS'qt-quick'
p83
F0.8
sS'msysgit'
p84
F0.5
sS'hide'
p85
I1
sS'numberformat'
p86
I1
sS'bittorrent'
p87
I1
sS'android-intent'
p88
F0.3
sS'workflow'
p89
F0.8
sS'bdd'
p90
I1
sS'development-environment'
p91
F0.5
sS'mainframe'
p92
I0
sS'tablelayout'
p93
F0.4
sS'solrnet'
p94
F0.5
sS'amazon-web-services'
p95
I0
sS'ipad'
p96
I1
sS'lotus-domino'
p97
F0.7
sS'web2py'
p98
I0
sS'metadata'
p99
F0.5
sS'textures'
p100
F0.6
sS'tcpclient'
p101
F0.5
sS'widget'
p102
F0.5
sS'mef'
p103
F0.5
sS'code-contracts'
p104
F0.5
sS'mel'
p105
F0.5
sS'jasmine'
p106
F0.5
sS'sunspot'
p107
F0.7
sS'pygtk'
p108
I0
sS'achartengine'
p109
F0.5
sS'lgpl'
p110
F0.5
sS'tornado'
p111
F0.5
sS'facebook-opengraph'
p112
F0.5
sS's-expression'
p113
F0.4
sS'broadcastreceiver'
p114
F0.2
sS'const'
p115
I1
sS'axapta'
p116
F0.3
sS'placeholder'
p117
F0.5
sS'drawable'
p118
F0.5
sS'forward-declaration'
p119
F0.4
sS'cardlayout'
p120
F0.4
sS'substance'
p121
F0.5
sS'reactive-programming'
p122
F0.5
sS'oracle9i'
p123
F0.1
sS'pipes'
p124
I1
sS'wdk'
p125
F0.5
sS'ajax'
p126
I1
sS'anchor'
p127
I0
sS'itunes'
p128
I1
sS'drracket'
p129
I1
sS'orm'
p130
I0
sS'nicedit'
p131
F0.5
sS'indentation'
p132
F0.5
sS'sass'
p133
I1
sS'curve-fitting'
p134
F0.5
sS'license-key'
p135
I1
sS'jquery-ajax'
p136
I1
sS'iis'
p137
I1
sS'projection'
p138
F0.5
sS'classification'
p139
F0.5
sS'rtos'
p140
I0
sS'opengraph'
p141
F0.1
sS'ribbon'
p142
F0.5
sS'replace'
p143
I1
sS'nsmutabledata'
p144
F0.5
sS'trigger.io'
p145
F0.5
sS'unix'
p146
I0
sS'pyramid'
p147
I1
sS'r-tree'
p148
F0.5
sS'printf'
p149
I1
sS'parameter-passing'
p150
F0.3
sS'logback'
p151
F0.1
sS'css-border-radius'
p152
F0.5
sS'getchar'
p153
F0.5
sS'plot'
p154
I0
sS'mediawiki'
p155
F0.5
sS'elementtree'
p156
F0.5
sS'fortran90'
p157
F0.3
sS'fstream'
p158
F0.7
sS'lwp'
p159
F0.2
sS'episerver'
p160
F0.5
sS'bundler'
p161
F0.5
sS'backgroundworker'
p162
F0.6
sS'data-warehouse'
p163
F0.5
sS'dijkstra'
p164
F0.5
sS'rebol'
p165
F0.1
sS'call'
p166
I1
sS'back-button'
p167
I1
sS'dns'
p168
F0.5
sS'tokenize'
p169
I0
sS'file-exists'
p170
I1
sS'composer-php'
p171
F0.5
sS'annotations'
p172
I1
sS'cpu-registers'
p173
I1
sS'swap'
p174
I1
sS'ip-geolocation'
p175
I0
sS'jmx'
p176
I0
sS'sql-management-studio'
p177
F0.5
sS'jms'
p178
I1
sS'kineticjs'
p179
F0.5
sS'nokogiri'
p180
I0
sS'export'
p181
F0.5
sS'lazarus'
p182
F0.1
sS'backbone-relational'
p183
F0.5
sS'content-script'
p184
F0.5
sS'roxygen'
p185
F0.5
sS'jsplitpane'
p186
F0.5
sS'python-imaging-library'
p187
I0
sS'oracle11gr2'
p188
F0.5
sS'sequence-points'
p189
F0.5
sS'a-star'
p190
F0.5
sS'wix3.6'
p191
F0.3
sS'wix3.5'
p192
I0
sS'computer-vision'
p193
I0
sS'word'
p194
F0.5
sS'onclicklistener'
p195
I1
sS'quartz-scheduler'
p196
F0.5
sS'function-overloading'
p197
F0.5
sS'setup'
p198
F0.5
sS'eclipse'
p199
I1
sS'doctype'
p200
F0.1
sS'stoppropagation'
p201
F0.5
sS'jtable'
p202
F0.1
sS'compiler-optimization'
p203
F0.4
sS'nine-patch'
p204
F0.7
sS'mq'
p205
F0.5
sS'transparency'
p206
F0.5
sS'jquery-mobile'
p207
I0
sS'eager-loading'
p208
F0.5
sS'scripting'
p209
F0.1
sS'xpages-ssjs'
p210
F0.7
sS'spring-jms'
p211
F0.5
sS'wordpress-theming'
p212
F0.6
sS'uitableview'
p213
I1
sS'smtp'
p214
F0.1
sS'fmdb'
p215
F0.5
sS'git-checkout'
p216
F0.5
sS'currency'
p217
F0.5
sS'automated-refactoring'
p218
F0.5
sS'fibonacci'
p219
I1
sS'scheduling'
p220
F0.5
sS'uac'
p221
I1
sS'plist'
p222
I1
sS'absolute'
p223
I1
sS'xdebug'
p224
F0.6
sS'linker-error'
p225
F0.5
sS'sybase-ase'
p226
F0.5
sS'vertical-alignment'
p227
F0.5
sS'lvalue'
p228
F0.5
sS'oracleforms'
p229
F0.5
sS'sharepoint'
p230
I1
sS'vagrant'
p231
F0.7
sS'line-breaks'
p232
F0.5
sS'clojurescript'
p233
I1
sS'avfoundation'
p234
I1
sS'actionscript'
p235
F0.2
sS'.net-3.5'
p236
I1
sS'simplexml'
p237
F0.4
sS'nhibernate'
p238
I0
sS'core-graphics'
p239
I0
sS'winsock'
p240
I0
sS'iboutlet'
p241
I1
sS'hgignore'
p242
F0.3
sS'abstraction'
p243
F0.5
sS'pig'
p244
F0.2
sS'x509'
p245
F0.5
sS'const-correctness'
p246
F0.8
sS'swing'
p247
I1
sS'yesod'
p248
F0.5
sS'abstracttablemodel'
p249
F0.5
sS'diagram'
p250
F0.5
sS'plyr'
p251
I0
sS'ibm-midrange'
p252
F0.1
sS'leveldb'
p253
F0.5
sS'iis-7'
p254
I0
sS'calayer'
p255
F0.5
sS'disassembly'
p256
F0.2
sS'multi-module'
p257
F0.5
sS'telerik-mvc'
p258
F0.5
sS'types'
p259
I1
sS'ehcache'
p260
I0
sS'yql'
p261
F0.5
sS'dijit'
p262
F0.8
sS'sparql'
p263
F0.5
sS'assignment-operator'
p264
I0
sS'roslyn-ctp'
p265
F0.5
sS'webfonts'
p266
F0.5
sS'alias'
p267
F0.4
sS'joomla-template'
p268
I0
sS'jenkins-plugins'
p269
F0.5
sS'correlation'
p270
F0.5
sS'mql'
p271
F0.5
sS'ethernet'
p272
F0.6
sS'time-complexity'
p273
F0.2
sS'order'
p274
F0.5
sS'bit-fields'
p275
F0.5
sS'jcheckbox'
p276
F0.3
sS'enable-if'
p277
F0.5
sS'eigen'
p278
F0.5
sS'xlib'
p279
F0.5
sS'jpeg'
p280
F0.5
sS'hadoop'
p281
I0
sS'syntax-error'
p282
I1
sS'xsl-fo'
p283
I1
sS'pascal'
p284
F0.5
sS'spring-data-jpa'
p285
F0.5
sS'text-to-speech'
p286
F0.5
sS'concurrency'
p287
F0.2
sS'keyboard'
p288
F0.5
sS'android-resources'
p289
I1
sS'classpath'
p290
I1
sS'wicket-1.5'
p291
F0.5
sS'textbox'
p292
F0.4
sS'jquery-ui-autocomplete'
p293
F0.5
sS'appstore-approval'
p294
F0.5
sS'amazon-cloudfront'
p295
F0.8
sS'uuid'
p296
F0.5
sS'fxml'
p297
F0.5
sS'email-attachments'
p298
F0.5
sS'fwrite'
p299
F0.5
sS'fix'
p300
F0.5
sS'indesign'
p301
F0.1
sS'android-ndk'
p302
I0
sS'lookbehind'
p303
F0.5
sS'nonblocking'
p304
F0.5
sS'glassfish'
p305
I1
sS'fade'
p306
F0.5
sS'jcr'
p307
F0.5
sS'hidden'
p308
I1
sS'openlaszlo'
p309
F0.3
sS'16-bit'
p310
F0.5
sS'clr'
p311
I1
sS'css-float'
p312
F0.3
sS'application-restart'
p313
I1
sS'model-binding'
p314
F0.5
sS'fragment'
p315
I1
sS'semantic-markup'
p316
F0.3
sS'slicing'
p317
I0
sS'refactoring'
p318
I1
sS'object-create'
p319
F0.5
sS'jinja2'
p320
I1
sS'ext.net'
p321
F0.5
sS'interrupt'
p322
I0
sS'multidimensional'
p323
F0.5
sS's3cmd'
p324
F0.5
sS'environment-variables'
p325
F0.5
sS'decorator'
p326
I1
sS'addclass'
p327
I1
sS'instanceof'
p328
I1
sS'linear-programming'
p329
F0.1
sS'repaint'
p330
F0.1
sS'one-to-one'
p331
F0.5
sS'grammar'
p332
F0.5
sS'left-join'
p333
F0.5
sS'nullable'
p334
F0.2
sS'lwuit-textfield'
p335
F0.5
sS'prism-4'
p336
F0.4
sS'odbc'
p337
I0
sS'extjs3'
p338
F0.5
sS'private-members'
p339
I1
sS'subquery'
p340
F0.4
sS'right-to-left'
p341
F0.5
sS'hql'
p342
F0.5
sS'timeout'
p343
F0.5
sS'each'
p344
F0.5
sS'nsxmlparser'
p345
I1
sS'google-analytics'
p346
F0.8
sS'jfreechart'
p347
F0.1
sS'orchardcms'
p348
F0.5
sS'css-position'
p349
I1
sS'azure-storage-tables'
p350
F0.6
sS'perfect-forwarding'
p351
F0.5
sS'adobe'
p352
I0
sS'mdm'
p353
F0.5
sS'interop'
p354
F0.5
sS'functional-programming'
p355
F0.3
sS'android-manifest'
p356
F0.2
sS'tridion-content-delivery'
p357
F0.8
sS'mapreduce'
p358
I0
sS'mdx'
p359
I0
sS'mysql-python'
p360
F0.1
sS'tcplistener'
p361
F0.5
sS'mongoid'
p362
I0
sS'greatest-n-per-group'
p363
I0
sS'message'
p364
F0.5
sS'filesystemwatcher'
p365
F0.4
sS'wxwidgets'
p366
I0
sS'jtoolbar'
p367
I0
sS'gradient'
p368
F0.5
sS'god'
p369
F0.7
sS'sms'
p370
F0.3
sS'infragistics'
p371
I0
sS'mason'
p372
F0.5
sS'smo'
p373
F0.4
sS'ghci'
p374
I1
sS'dsl'
p375
I1
sS'sml'
p376
F0.5
sS'sprintf'
p377
I1
sS'core-location'
p378
F0.5
sS'algebraic-data-types'
p379
F0.5
sS'aggregateroot'
p380
F0.7
sS'rm'
p381
I1
sS'type-erasure'
p382
F0.5
sS'tthread'
p383
F0.2
sS'forth'
p384
F0.5
sS'ado.net'
p385
I1
sS'foundation'
p386
I1
sS'dereference'
p387
F0.5
sS'linear'
p388
F0.5
sS'wlst'
p389
F0.5
sS'nsarray'
p390
I1
sS'free'
p391
F0.2
sS'pyqt4'
p392
F0.5
sS'nsobject'
p393
F0.6
sS'tooltwist'
p394
I0
sS'segmentation-fault'
p395
F0.6
sS'factory-pattern'
p396
F0.6
sS'sheet'
p397
I1
sS'successor-arithmetics'
p398
F0.5
sS'md5'
p399
F0.5
sS'mvp'
p400
F0.5
sS'higher-rank-types'
p401
I1
sS'xargs'
p402
F0.2
sS'listview'
p403
I1
sS'logging'
p404
I0
sS'ckeditor'
p405
F0.3
sS'client-server'
p406
F0.5
sS'gwt-maven-plugin'
p407
F0.5
sS'activerecord'
p408
I1
sS'atl'
p409
F0.5
sS'javafx'
p410
F0.5
sS'openssl'
p411
I0
sS'filter'
p412
F0.1
sS'mvc'
p413
I1
sS'iso'
p414
F0.5
sS'indexeddb'
p415
I1
sS'signature'
p416
F0.5
sS'xilinx'
p417
I0
sS'packagemaker'
p418
I0
sS'benchmarking'
p419
F0.2
sS'windows-mobile'
p420
F0.5
sS'javamail'
p421
I0
sS'table-variable'
p422
F0.5
sS'indexed-view'
p423
F0.5
sS'carrierwave'
p424
I0
sS'flowlayoutpanel'
p425
F0.6
sS'changelistener'
p426
F0.5
sS'undefined-behavior'
p427
I1
sS'hook'
p428
I0
sS'mingw'
p429
I1
sS'java-7'
p430
F0.5
sS'java-6'
p431
I1
sS'polygon'
p432
F0.5
sS'tpl-dataflow'
p433
F0.5
sS'strncpy'
p434
F0.5
sS'allegro5'
p435
F0.5
sS'dimensional-modeling'
p436
F0.5
sS'xib'
p437
F0.5
sS'smartgwt'
p438
F0.6
sS'xslt-2.0'
p439
F0.1
sS'icefaces'
p440
F0.5
sS'service'
p441
I1
sS'lego'
p442
F0.5
sS'struts'
p443
I0
sS'slidetoggle'
p444
F0.5
sS'twisted'
p445
I0
sS'web-audio'
p446
F0.5
sS'visual-studio-2008'
p447
I1
sS'normalization'
p448
F0.3
sS'jstl'
p449
I1
sS'sublimetext'
p450
F0.5
sS'upshot'
p451
F0.5
sS'visual-studio-2005'
p452
F0.5
sS'listen'
p453
F0.5
sS'background-image'
p454
F0.3
sS'windbg'
p455
F0.7
sS'oracle-sqldeveloper'
p456
F0.5
sS'tabactivity'
p457
F0.5
sS'decompiling'
p458
I1
sS'tclientdataset'
p459
I1
sS'function-templates'
p460
F0.5
sS'yield'
p461
I0
sS'xpath-1.0'
p462
F0.5
sS'task'
p463
F0.2
sS'cdata'
p464
F0.5
sS'prolog-toplevel'
p465
F0.5
sS'memory-barriers'
p466
F0.5
sS'uinavigationbar'
p467
I1
sS'.net-assembly'
p468
F0.5
sS'biginteger'
p469
F0.4
sS'target'
p470
F0.5
sS'keyword'
p471
F0.5
sS'pagespeed'
p472
F0.5
sS'tree'
p473
F0.5
sS'windows-azure-queues'
p474
F0.5
sS'ebay'
p475
I1
sS'project'
p476
F0.7
sS'file-upload'
p477
I1
sS'zend-framework'
p478
I1
sS'aether'
p479
F0.5
sS'hierarchical-data'
p480
F0.5
sS'treeview'
p481
I1
sS'dot-product'
p482
F0.5
sS'referential-integrity'
p483
F0.5
sS'uiview'
p484
F0.1
sS'build-automation'
p485
F0.4
sS'django-south'
p486
F0.5
sS'flex-lexer'
p487
F0.2
sS'websocket'
p488
F0.5
sS'filemaker'
p489
F0.5
sS'ram'
p490
F0.5
sS'discriminated-union'
p491
I1
sS'intentservice'
p492
F0.5
sS'shell'
p493
F0.1
sS'cloudfoundry'
p494
F0.3
sS'angularjs'
p495
I0
sS'compareto'
p496
F0.1
sS'ocean'
p497
F0.5
sS'inputstreamreader'
p498
F0.5
sS'plpgsql'
p499
I1
sS'latency'
p500
F0.5
sS'dbms'
p501
F0.5
sS'makemaker'
p502
F0.5
sS'redbean'
p503
F0.5
sS'blazeds'
p504
F0.5
sS'yui3'
p505
I0
sS'to-char'
p506
F0.5
sS'many-to-many'
p507
F0.1
sS'ebean'
p508
F0.5
sS'chess'
p509
F0.5
sS'mkmapview'
p510
I1
sS'microsoft-metro'
p511
I0
sS'git-diff'
p512
F0.3
sS'visual-studio'
p513
I1
sS'casperjs'
p514
F0.5
sS'python-import'
p515
I1
sS'uisearchbar'
p516
F0.5
sS'three.js'
p517
I1
sS'transactions'
p518
I1
sS'noclassdeffounderror'
p519
F0.5
sS'object'
p520
I1
sS'izpack'
p521
F0.5
sS'matlab-class'
p522
F0.5
sS'metrics'
p523
F0.5
sS'character-encoding'
p524
F0.2
sS'pentaho'
p525
F0.5
sS'google-analytics-api'
p526
F0.5
sS'icloud'
p527
F0.5
sS'varargs'
p528
F0.6
sS'ostream'
p529
I1
sS'pivot-table'
p530
F0.5
sS'ssl-certificate'
p531
I0
sS'invoke'
p532
I1
sS'file-rename'
p533
F0.5
sS'promotions'
p534
I1
sS'webcam'
p535
F0.5
sS'swingworker'
p536
F0.1
sS'dom'
p537
I1
sS'pageobjects'
p538
F0.5
sS'alfresco-share'
p539
I0
sS'medical'
p540
F0.5
sS'playframework-1.x'
p541
I0
sS'z3'
p542
F0.5
sS'flot'
p543
F0.5
sS'leaflet'
p544
F0.5
sS'npgsql'
p545
F0.5
sS'heap-memory'
p546
F0.5
sS'wildcard'
p547
F0.5
sS'graph-layout'
p548
F0.5
sS'dos'
p549
F0.1
sS'language-agnostic'
p550
F0.1
sS'tform'
p551
F0.5
sS'scala-ide'
p552
F0.5
sS'sum'
p553
I1
sS'amazon-mws'
p554
F0.5
sS'heuristics'
p555
F0.7
sS'selected'
p556
F0.5
sS'saga'
p557
I0
sS'autotest'
p558
F0.5
sS'immutability'
p559
F0.7
sS'random'
p560
I0
sS'html-parsing'
p561
I0
sS'case-class'
p562
F0.5
sS'cancan'
p563
F0.5
sS'syntax'
p564
F0.3
sS'mqseries'
p565
F0.5
sS'font-face'
p566
F0.5
sS'remoting'
p567
F0.5
sS'hibernate-validator'
p568
F0.5
sS'qstring'
p569
F0.7
sS'icicles'
p570
F0.5
sS'autoit'
p571
F0.5
sS'unmanaged'
p572
F0.5
sS'pki'
p573
I0
sS'image-segmentation'
p574
F0.5
sS'visualforce'
p575
F0.5
sS'cout'
p576
F0.5
sS'toast'
p577
F0.5
sS'soapui'
p578
F0.1
sS'execution'
p579
F0.5
sS'palindrome'
p580
F0.5
sS'layout'
p581
I1
sS'imagecreatefrompng'
p582
F0.5
sS'objectinputstream'
p583
F0.3
sS'graph-algorithm'
p584
I0
sS'implementation'
p585
F0.1
sS'menu'
p586
F0.5
sS'criteria-api'
p587
F0.5
sS'cross-platform'
p588
I1
sS'user-agent'
p589
F0.5
sS'celery'
p590
F0.5
sS'ocx'
p591
F0.5
sS'java-ee-6'
p592
F0.5
sS'form-for'
p593
F0.5
sS'rserve'
p594
F0.5
sS'ldap'
p595
F0.2
sS'evolutionary-algorithm'
p596
F0.5
sS'setup.py'
p597
F0.5
sS'rss'
p598
F0.7
sS'webrtc'
p599
I0
sS'speech-to-text'
p600
F0.5
sS'runnable'
p601
F0.1
sS'qgraphicsview'
p602
F0.5
sS'parser-generator'
p603
F0.5
sS'xsd'
p604
F0.1
sS'cappuccino'
p605
F0.5
sS'cryptography'
p606
F0.1
sS'shortest-path'
p607
F0.1
sS'eclipse-cdt'
p608
F0.5
sS'pass-by-reference'
p609
I1
sS'blur'
p610
I0
sS'stop'
p611
F0.8
sS'c3p0'
p612
F0.1
sS'amazon'
p613
F0.5
sS'autolayout'
p614
I1
sS'report'
p615
I1
sS'internet-explorer-9'
p616
I0
sS'network-programming'
p617
I0
sS'delete'
p618
I1
sS'opengl-3'
p619
F0.5
sS'couchbase'
p620
F0.2
sS'idioms'
p621
I1
sS'async-await'
p622
I0
sS'ienumerable'
p623
I1
sS'cors'
p624
F0.1
sS'knockout-2.0'
p625
I1
sS'powershell-v3.0'
p626
I1
sS'svnignore'
p627
F0.5
sS'architecture'
p628
F0.5
sS'emr'
p629
F0.5
sS'release'
p630
F0.5
sS'nsthread'
p631
F0.4
sS'clickonce'
p632
I0
sS'bam'
p633
I0
sS'iterate'
p634
I1
sS'require'
p635
I1
sS'atomic'
p636
F0.1
sS'file-get-contents'
p637
I1
sS'isolation-level'
p638
F0.5
sS'pyside'
p639
F0.5
sS'build.xml'
p640
I0
sS'wpf-controls'
p641
F0.6
sS'zookeeper'
p642
F0.5
sS'shared-memory'
p643
I1
sS'strcat'
p644
I1
sS'jquery-plugins'
p645
F0.4
sS'jaxb2'
p646
F0.5
sS'nsmutablestring'
p647
F0.3
sS'cublas'
p648
I1
sS'pojo'
p649
F0.1
sS'openstack'
p650
F0.5
sS'directshow.net'
p651
F0.5
sS'web-applications'
p652
I1
sS'portable-class-library'
p653
F0.6
sS'cics'
p654
F0.5
sS'correlated-subquery'
p655
F0.5
sS'findstr'
p656
F0.5
sS'calling-convention'
p657
F0.1
sS'spring-batch'
p658
F0.5
sS'unix-timestamp'
p659
F0.4
sS'load-testing'
p660
F0.1
sS'static-libraries'
p661
F0.5
sS'iplimage'
p662
F0.5
sS'delphi'
p663
F0.3
sS'ivalueconverter'
p664
I1
sS'urllib'
p665
I0
sS'mud'
p666
F0.5
sS'implicit'
p667
F0.5
sS'class-design'
p668
F0.2
sS'openfiledialog'
p669
F0.5
sS'data.table'
p670
I1
sS'posix'
p671
F0.6
sS'irb'
p672
F0.8
sS'scorm'
p673
F0.4
sS'apc'
p674
F0.5
sS'compilation'
p675
F0.6
sS'lapply'
p676
F0.5
sS'snap-framework'
p677
F0.5
sS'type-inference'
p678
F0.5
sS'git-filter-branch'
p679
F0.5
sS'visualization'
p680
F0.5
sS'nslog'
p681
F0.5
sS'mysqli'
p682
I1
sS'wcf-security'
p683
F0.5
sS'w3c-validation'
p684
I0
sS'jquery-validate'
p685
F0.3
sS'equals'
p686
F0.1
sS'mobile-website'
p687
F0.1
sS'constexpr'
p688
F0.4
sS'cdn'
p689
F0.1
sS'gnu-make'
p690
F0.3
sS'ctypes'
p691
F0.1
sS'preprocessor'
p692
I1
sS'try-catch-finally'
p693
I1
sS'opengl-es'
p694
I1
sS'carbon'
p695
F0.5
sS'rtti'
p696
F0.2
sS'wx'
p697
F0.5
sS'coq'
p698
I0
sS'gdi+'
p699
F0.5
sS'sd-card'
p700
I1
sS'claims-based-identity'
p701
F0.5
sS'triggers'
p702
I1
sS'aasm'
p703
F0.5
sS'adapter'
p704
F0.5
sS'ms-access-2003'
p705
F0.3
sS'control-flow'
p706
I1
sS'lotus-formula'
p707
I0
sS'facet'
p708
F0.5
sS'tfs2012'
p709
F0.5
sS'folder'
p710
I1
sS'marmalade'
p711
F0.5
sS'syntax-highlighting'
p712
F0.6
sS'docbook'
p713
F0.5
sS'logic'
p714
F0.2
sS'global-variables'
p715
I1
sS'login'
p716
I1
sS'xforms'
p717
F0.5
sS'com'
p718
I1
sS'highcharts'
p719
F0.1
sS'android-gallery'
p720
F0.6
sS'elf'
p721
F0.5
sS'grails-2.0'
p722
F0.5
sS'netmsmqbinding'
p723
F0.5
sS'double-precision'
p724
F0.5
sS'innerhtml'
p725
F0.3
sS'height'
p726
F0.5
sS'gxt'
p727
I0
sS'web-parts'
p728
F0.5
sS'duplicate-removal'
p729
F0.5
sS'kohana'
p730
F0.2
sS'blending'
p731
F0.5
sS'default-constructor'
p732
F0.5
sS'diff'
p733
F0.4
sS'guid'
p734
F0.5
sS'kinect'
p735
I0
sS'latitude-longitude'
p736
F0.5
sS'linux-device-driver'
p737
F0.5
sS'magento-1.4'
p738
F0.5
sS'codeigniter'
p739
I0
sS'opencv'
p740
I0
sS'union'
p741
F0.1
sS'dicom'
p742
I0
sS'erlang-shell'
p743
F0.5
sS'mex'
p744
I1
sS'tabs'
p745
F0.5
sS'django-celery'
p746
F0.5
sS'numerical-methods'
p747
I1
sS'haxe'
p748
F0.1
sS'html5-audio'
p749
F0.5
sS'compare-and-swap'
p750
I1
sS'numpy'
p751
F0.2
sS'containers'
p752
F0.1
sS'partial-classes'
p753
F0.5
sS'website'
p754
I1
sS'operator-keyword'
p755
F0.7
sS'html5-video'
p756
F0.2
sS'inputstream'
p757
I0
sS'ankhsvn'
p758
I1
sS'foreign-collection'
p759
F0.5
sS'intentfilter'
p760
F0.5
sS'directshow'
p761
F0.3
sS'telnet'
p762
F0.5
sS'primitive-types'
p763
F0.2
sS'lift'
p764
I1
sS'web-hosting'
p765
F0.5
sS'core-animation'
p766
F0.5
sS'extract'
p767
I1
sS'datatable'
p768
F0.2
sS'nstimer'
p769
I1
sS'boost-bind'
p770
I1
sS'exception'
p771
I0
sS'save'
p772
I0
sS'aix'
p773
F0.5
sS'lua-table'
p774
F0.5
sS'gnu'
p775
I0
sS'iqueryable'
p776
F0.5
sS'queryover'
p777
I0
sS'privatekey'
p778
F0.5
sS'typoscript'
p779
F0.4
sS'air'
p780
I0
sS'formatting'
p781
F0.3
sS'32-bit'
p782
F0.5
sS'virtex'
p783
F0.5
sS'cwnd'
p784
F0.5
sS'visual-studio-2012'
p785
F0.1
sS'procedure'
p786
F0.5
sS'visual-studio-2010'
p787
I1
sS'has-many'
p788
I0
sS'linked-server'
p789
F0.5
sS'project-management'
p790
I1
sS'joomla1.6'
p791
F0.5
sS'jspinner'
p792
F0.5
sS'joomla1.5'
p793
F0.2
sS'data-structures'
p794
F0.3
sS'ip'
p795
F0.5
sS'pharo'
p796
I1
sS'libxml'
p797
F0.5
sS'il'
p798
F0.5
sS'io'
p799
I1
sS'simple.data'
p800
F0.5
sS'ognl'
p801
F0.5
sS'casting'
p802
I1
sS'mouse'
p803
F0.5
sS'cpu-cache'
p804
F0.5
sS'netbeans-6.9'
p805
F0.2
sS'nsurlconnection'
p806
F0.5
sS'specialization'
p807
F0.5
sS'jquery-live'
p808
F0.5
sS'pooling'
p809
I1
sS'recursion'
p810
I1
sS'make'
p811
I1
sS'couchdb'
p812
F0.5
sS'google-apps-script'
p813
I0
sS'string-comparison'
p814
F0.5
sS'any'
p815
F0.5
sS'leiningen'
p816
I0
sS'filestream'
p817
F0.6
sS'undefined-reference'
p818
F0.5
sS'split'
p819
I1
sS'extjs4'
p820
I0
sS'lithium'
p821
F0.5
sS'log4j'
p822
F0.4
sS'member-variables'
p823
F0.5
sS'maven-release-plugin'
p824
F0.5
sS'templates'
p825
I1
sS'google-spreadsheet'
p826
F0.3
sS'http-live-streaming'
p827
F0.5
sS'nio'
p828
F0.1
sS'nil'
p829
F0.5
sS'buildroot'
p830
F0.5
sS'raii'
p831
F0.2
sS'vectorization'
p832
I0
sS'permutation'
p833
I1
sS'filenames'
p834
F0.5
sS'ireport'
p835
F0.5
sS'bloomberg'
p836
F0.5
sS'unicorn'
p837
F0.5
sS'javascriptmvc'
p838
I1
sS'protected'
p839
F0.7
sS'android-fragments'
p840
F0.7
sS'ternary-operator'
p841
F0.3
sS'diagramming'
p842
I1
sS'template-engine'
p843
F0.1
sS'xjc'
p844
F0.5
sS'contextmenu'
p845
F0.5
sS'snipmate'
p846
F0.5
sS'cross-threading'
p847
F0.5
sS'eps'
p848
F0.9
sS'centos'
p849
I0
sS'nullreferenceexception'
p850
F0.5
sS'uisplitviewcontroller'
p851
I0
sS'client'
p852
F0.5
sS'nlog'
p853
F0.5
sS'activereports'
p854
I0
sS'casbah'
p855
F0.5
sS'gzip'
p856
I0
sS'settimeout'
p857
I0
sS'akka'
p858
F0.5
sS'maxima'
p859
F0.5
sS'websphere-portal'
p860
F0.5
sS'asihttprequest'
p861
F0.5
sS'lotusscript'
p862
F0.5
sS'solaris'
p863
I0
sS'dependency-properties'
p864
F0.3
sS'mipmaps'
p865
F0.5
sS'soft-references'
p866
F0.5
sS'unicode-string'
p867
F0.3
sS'group-concat'
p868
F0.5
sS'advantage-database-server'
p869
F0.5
sS'visualworks'
p870
F0.5
sS'genetic-programming'
p871
F0.2
sS'currying'
p872
F0.5
sS'memory-address'
p873
I1
sS'garbage-collection'
p874
F0.1
sS'cfquery'
p875
F0.5
sS'google-plus'
p876
I0
sS'c#-to-f#'
p877
F0.5
sS'fparsec'
p878
F0.5
sS'android-sdcard'
p879
F0.5
sS'datagridviewcolumn'
p880
F0.5
sS'xmlhttprequest'
p881
I1
sS'dealloc'
p882
I0
sS'vertica'
p883
F0.5
sS'agile'
p884
F0.1
sS'msxml'
p885
F0.5
sS'opencl'
p886
I1
sS'character'
p887
I1
sS'fortran'
p888
F0.5
sS'tuples'
p889
I1
sS'collections'
p890
I1
sS'floating-point-conversion'
p891
F0.5
sS'servicemix'
p892
F0.5
sS'database-design'
p893
I0
sS'bnd'
p894
F0.5
sS'android-3.0'
p895
F0.5
sS'static-members'
p896
F0.5
sS'maya'
p897
I0
sS'supervisord'
p898
F0.5
sS'most-vexing-parse'
p899
F0.5
sS'structuremap'
p900
F0.5
sS'easymock'
p901
F0.5
sS'jailbreak'
p902
F0.5
sS'microcontroller'
p903
I0
sS'linked-list'
p904
I1
sS'jekyll'
p905
F0.5
sS'appendto'
p906
F0.5
sS'opa'
p907
F0.5
sS'background'
p908
I1
sS'performance'
p909
I1
sS'unique'
p910
I1
sS'freebsd'
p911
F0.5
sS'case-sensitive'
p912
I1
sS'daemon'
p913
F0.1
sS'delphi-xe'
p914
F0.6
sS'visible'
p915
I1
sS'flash-player'
p916
F0.5
sS'seaside'
p917
F0.5
sS'scikit-learn'
p918
F0.5
sS'zoom'
p919
F0.5
sS'sql'
p920
F0.3
sS'time-series'
p921
F0.4
sS'memory-leaks'
p922
I1
sS'ui-automation'
p923
I1
sS'delphi-xe2'
p924
I1
sS'form-validation'
p925
F0.2
sS'mysqldump'
p926
F0.5
sS'fancybox'
p927
F0.5
sS'pyopengl'
p928
F0.5
sS'ole'
p929
F0.5
sS'preg-match-all'
p930
I1
sS'autowired'
p931
F0.7
sS'bpm'
p932
F0.5
sS'pom.xml'
p933
F0.7
sS'anonymous-class'
p934
F0.5
sS'nsmutabledictionary'
p935
F0.5
sS'connection-string'
p936
F0.5
sS'jaas'
p937
F0.5
sS'httpresponse'
p938
F0.5
sS'junit4'
p939
F0.1
sS'onchange'
p940
F0.8
sS'word-vba'
p941
F0.3
sS'spring-aop'
p942
I1
sS'masm32'
p943
F0.5
sS'bounded-wildcard'
p944
I1
sS'jtabbedpane'
p945
F0.5
sS'monogame'
p946
F0.5
sS'javax.imageio'
p947
I0
sS'applescript'
p948
F0.5
sS'subclass'
p949
F0.5
sS'pcap.net'
p950
F0.5
sS'wso2'
p951
I0
sS'audio-processing'
p952
F0.5
sS'simple-html-dom'
p953
F0.5
sS'rdfa'
p954
F0.5
sS'armv7'
p955
I1
sS'android-listview'
p956
I1
sS'uml'
p957
I0
sS'uigesturerecognizer'
p958
I1
sS'integer-promotion'
p959
F0.5
sS'geocoding'
p960
F0.5
sS'internet-explorer-7'
p961
F0.5
sS'visio'
p962
F0.5
sS'jsonp'
p963
I0
sS'servicestack'
p964
F0.5
sS'paypal-api'
p965
I0
sS'repository'
p966
F0.1
sS'vhdl'
p967
I0
sS'stringbuffer'
p968
F0.1
sS'barcode'
p969
F0.5
sS'fgetcsv'
p970
F0.5
sS'failure-slice'
p971
F0.5
sS'c#-4.0'
p972
I1
sS'app-store'
p973
I0
sS'sift'
p974
F0.1
sS'plc'
p975
F0.5
sS'zend-acl'
p976
F0.6
sS'substitution'
p977
F0.5
sS'post'
p978
I1
sS'super'
p979
F0.5
sS'security'
p980
F0.3
sS'ownerdraw'
p981
F0.5
sS'colorbox'
p982
F0.5
sS'windows-server-2008'
p983
I0
sS'postgresql'
p984
I1
sS'interface-builder'
p985
F0.1
sS'google-maps'
p986
I1
sS'foreign-keys'
p987
F0.1
sS'ontouchlistener'
p988
F0.5
sS'vb6-migration'
p989
F0.5
sS'swingx'
p990
F0.5
sS'joomla'
p991
I1
sS'wordpress-plugin'
p992
I0
sS'azure'
p993
F0.1
sS'commit'
p994
F0.2
sS'asp.net-3.5'
p995
F0.4
sS'query-optimization'
p996
F0.5
sS'virtual-inheritance'
p997
F0.5
sS'browser-addons'
p998
I1
sS'filesize'
p999
F0.5
sS'soa'
p1000
I0
sS'primitive'
p1001
F0.5
sS'crystal-reports-2008'
p1002
F0.5
sS'autohotkey'
p1003
I0
sS'javac'
p1004
F0.3
sS'isapi-rewrite'
p1005
F0.1
sS'bukkit'
p1006
F0.5
sS'sugarcrm'
p1007
F0.5
sS'msdeploy'
p1008
F0.5
sS'parsing'
p1009
I1
sS'rendering'
p1010
F0.5
sS'sos'
p1011
F0.2
sS'haskell'
p1012
F0.3
sS'doctrine'
p1013
F0.5
sS'wrap'
p1014
I1
sS'initializer-list'
p1015
F0.6
sS'direct3d'
p1016
I1
sS'vb.net-2010'
p1017
F0.5
sS'datamodule'
p1018
F0.5
sS'msp430'
p1019
I0
sS'webdav'
p1020
F0.5
sS'jdbc'
p1021
I1
sS'mouseover'
p1022
F0.5
sS'fabric'
p1023
I1
sS'combinatorics'
p1024
F0.5
sS'sortedlist'
p1025
I1
sS'configuration-files'
p1026
I1
sS'transform'
p1027
I0
sS'gallery'
p1028
F0.6
sS'css-box-shadow'
p1029
I1
sS'width'
p1030
I1
sS'common-lisp'
p1031
I0
sS'wordpress'
p1032
I0
sS'editor'
p1033
I0
sS'spring'
p1034
I1
sS'sqldatareader'
p1035
F0.5
sS'rcpp'
p1036
I0
sS'mongodb-php'
p1037
F0.5
sS'war'
p1038
F0.5
sS'httpclient'
p1039
F0.5
sS'fork'
p1040
F0.5
sS'imageicon'
p1041
F0.6
sS'sqlalchemy'
p1042
I1
sS'nagios'
p1043
F0.5
sS'fpga'
p1044
F0.5
sS'eclipse-emf'
p1045
F0.5
sS'preg-match'
p1046
I1
sS'sql-loader'
p1047
I0
sS'paypal'
p1048
F0.3
sS'computational-geometry'
p1049
F0.5
sS'raytracing'
p1050
F0.4
sS'notifications'
p1051
I1
sS'apache-poi'
p1052
I0
sS'catalyst'
p1053
F0.5
sS'heap'
p1054
I1
sS'monomac'
p1055
F0.5
sS'android-linearlayout'
p1056
F0.5
sS'fosuserbundle'
p1057
F0.5
sS'buildr'
p1058
F0.1
sS'voicexml'
p1059
F0.5
sS'segue'
p1060
I0
sS'traits'
p1061
F0.8
sS'arrays'
p1062
I1
sS'devexpress'
p1063
I1
sS'jboss'
p1064
I1
sS'appwidgetprovider'
p1065
F0.5
sS'hibernate-search'
p1066
F0.5
sS'access-vba'
p1067
F0.5
sS'texture-mapping'
p1068
F0.5
sS'google-maps-markers'
p1069
F0.5
sS'bulkinsert'
p1070
F0.5
sS'scalar'
p1071
F0.5
sS'isolatedstorage'
p1072
F0.5
sS'autoconf'
p1073
F0.5
sS'powershell'
p1074
I1
sS'youtube-api'
p1075
F0.5
sS'trim'
p1076
F0.5
sS'passenger'
p1077
I0
sS'obfuscation'
p1078
F0.3
sS'proc-sql'
p1079
F0.5
sS'cfadmin'
p1080
I1
sS'deque'
p1081
I1
sS'syscall'
p1082
F0.5
sS'request'
p1083
I1
sS'abstract'
p1084
F0.5
sS'decrypt'
p1085
F0.5
sS'recommendation-engine'
p1086
F0.5
sS'postscript'
p1087
F0.5
sS'full-text-search'
p1088
I0
sS'winsock2'
p1089
F0.5
sS'imageview'
p1090
I1
sS'timezone'
p1091
I1
sS'attr'
p1092
I0
sS'archive'
p1093
F0.5
sS'day-cq'
p1094
F0.5
sS'logical-operators'
p1095
I1
sS'auto-increment'
p1096
F0.5
sS'uipickerview'
p1097
F0.5
sS'na'
p1098
F0.2
sS'excel'
p1099
I1
sS'actor'
p1100
F0.1
sS'entity-framework-4'
p1101
F0.3
sS'tablemodel'
p1102
F0.8
sS'facebook-fanpage'
p1103
F0.5
sS'inkscape'
p1104
F0.5
sS'jenkins'
p1105
I0
sS'depth-buffer'
p1106
F0.5
sS'depot'
p1107
F0.5
sS'pymongo'
p1108
F0.1
sS'sendfile'
p1109
F0.5
sS'enyo'
p1110
F0.2
sS'jinternalframe'
p1111
F0.5
sS'models'
p1112
F0.5
sS'jaxb'
p1113
I1
sS'appstore-sandbox'
p1114
F0.4
sS'kvm'
p1115
I0
sS'asterisk'
p1116
F0.1
sS'urllib2'
p1117
F0.2
sS'twos-complement'
p1118
F0.5
sS'webserver'
p1119
I1
sS'objectify'
p1120
F0.5
sS'rhino-mocks'
p1121
F0.5
sS'jaxp'
p1122
F0.5
sS'bigdecimal'
p1123
F0.5
sS'nxt'
p1124
F0.5
sS'bitbucket'
p1125
F0.5
sS'tablecellrenderer'
p1126
F0.6
sS'modx-evolution'
p1127
I1
sS'macports'
p1128
F0.1
sS'setinterval'
p1129
I1
sS'debian'
p1130
I1
sS'scala'
p1131
I1
sS'mouselistener'
p1132
F0.5
sS'getjson'
p1133
F0.5
sS'ddd-repositories'
p1134
I1
sS'cohesion'
p1135
F0.5
sS'facebook-php-sdk'
p1136
F0.2
sS'slf4j'
p1137
I1
sS'time'
p1138
I1
sS'push'
p1139
F0.5
sS'codeblocks'
p1140
F0.5
sS'unidata'
p1141
F0.5
sS'blockingqueue'
p1142
F0.5
sS'osx'
p1143
I1
sS'managed'
p1144
F0.5
sS'twitter-bootstrap'
p1145
I0
sS'iterator'
p1146
I1
sS'ef-code-first'
p1147
I1
sS'objective-c-runtime'
p1148
F0.5
sS'global'
p1149
F0.1
sS'lambda-calculus'
p1150
F0.5
sS'rownumber'
p1151
F0.5
sS'themes'
p1152
F0.5
sS'selection'
p1153
F0.3
sS'informix'
p1154
F0.5
sS'comments'
p1155
I1
sS'realbasic'
p1156
F0.5
sS'primes'
p1157
I0
sS'guava'
p1158
F0.5
sS'image-resizing'
p1159
F0.5
sS'google-fusion-tables'
p1160
F0.2
sS'varnish'
p1161
F0.5
sS'freertos'
p1162
F0.7
sS'inline-block'
p1163
I0
sS'flask'
p1164
I1
sS'jmf'
p1165
F0.5
sS'flash'
p1166
I0
sS'fetchxml'
p1167
F0.5
sS'jvm'
p1168
I0
sS'paintcomponent'
p1169
F0.5
sS'http-post'
p1170
F0.5
sS'reference-class'
p1171
F0.5
sS'jtextarea'
p1172
F0.2
sS'grails-domain-class'
p1173
F0.5
sS'division'
p1174
F0.5
sS'predicate'
p1175
F0.5
sS'string'
p1176
I1
sS'functional-testing'
p1177
F0.5
sS'plasticscm'
p1178
F0.5
sS'android-canvas'
p1179
I0
sS'drawrect'
p1180
F0.5
sS'nsdictionary'
p1181
I1
sS'nsfetchedresultscontrolle'
p1182
F0.5
sS'global-asax'
p1183
I0
sS'x86-64'
p1184
F0.7
sS'open-uri'
p1185
F0.5
sS'ocpjp'
p1186
I1
sS'switch-statement'
p1187
I1
sS'floating-point'
p1188
I1
sS'subprocess'
p1189
I0
sS'jettison'
p1190
I0
sS'uimanager'
p1191
F0.5
sS'slider'
p1192
I1
sS'pointer-arithmetic'
p1193
I1
sS'io-redirection'
p1194
F0.5
sS'jqgrid'
p1195
I1
sS'freemarker'
p1196
F0.5
sS'solver'
p1197
F0.5
sS'tablerow'
p1198
F0.5
sS'die'
p1199
F0.5
sS'gui'
p1200
I1
sS'fftw'
p1201
F0.5
sS'function-pointers'
p1202
I1
sS'standards'
p1203
I1
sS'eclipse-jdt'
p1204
F0.3
sS'div'
p1205
I1
sS'nhibernate-mapping'
p1206
F0.3
sS'multiprocessing'
p1207
I1
sS'netfilter'
p1208
F0.5
sS'zebra-printers'
p1209
F0.8
sS'ip-address'
p1210
I1
sS'gremlin'
p1211
I1
sS'sandcastle'
p1212
F0.5
sS'edittext'
p1213
F0.1
sS'javascript-events'
p1214
I1
sS'restkit'
p1215
F0.5
sS'aptana'
p1216
F0.5
sS'jslint'
p1217
F0.3
sS'rspec2'
p1218
F0.7
sS'java-util-scanner'
p1219
F0.1
sS'rmagick'
p1220
F0.5
sS'nsfilemanager'
p1221
F0.5
sS'database-optimization'
p1222
F0.5
sS'django-queryset'
p1223
F0.5
sS'gitattributes'
p1224
F0.5
sS'netty'
p1225
F0.5
sS'windows-installer'
p1226
F0.5
sS'corba'
p1227
I0
sS'cgpoint'
p1228
F0.5
sS'iphone-sdk-5.0'
p1229
F0.5
sS'nested-lists'
p1230
I1
sS'64bit'
p1231
I1
sS'gwt-compiler'
p1232
F0.5
sS'beautifulsoup'
p1233
I0
sS'reporting-services'
p1234
I0
sS'ssis'
p1235
I0
sS'ampersand'
p1236
I1
sS'iphone-sdk-3.0'
p1237
F0.5
sS'relational'
p1238
F0.5
sS'boost'
p1239
I1
sS'informatica'
p1240
I1
sS'gtk'
p1241
I0
sS'mergesort'
p1242
F0.4
sS'ektron'
p1243
F0.5
sS'ios4'
p1244
F0.5
sS'erb'
p1245
F0.5
sS'sizeof'
p1246
F0.2
sS'f#-3.0'
p1247
F0.5
sS'bouncycastle'
p1248
F0.5
sS'aptana3'
p1249
I0
sS'gawk'
p1250
F0.7
sS'windows-8'
p1251
I1
sS'sealed'
p1252
F0.5
sS'xcode4.3'
p1253
I1
sS'xcode4.2'
p1254
I1
sS'wcf-client'
p1255
F0.3
sS'mockups'
p1256
F0.5
sS'apache'
p1257
I1
sS'c++builder-xe2'
p1258
F0.5
sS'windows-7'
p1259
I0
sS'data-manipulation'
p1260
F0.4
sS'childbrowser'
p1261
I0
sS'automator'
p1262
F0.5
sS'vb.net'
p1263
F0.1
sS'strtok'
p1264
F0.8
sS'treemap'
p1265
I1
sS'xslt-grouping'
p1266
F0.1
sS'jquery-ui'
p1267
I1
sS'queue'
p1268
I1
sS'delimiter'
p1269
F0.5
sS'multicast'
p1270
F0.5
sS'objective-c-2.0'
p1271
I1
sS'behat'
p1272
F0.5
sS'short-circuiting'
p1273
F0.5
sS'coremidi'
p1274
F0.5
sS'explain-plan'
p1275
F0.7
sS'minecraft'
p1276
F0.5
sS'grails-controller'
p1277
I1
sS'google-api-java-client'
p1278
F0.5
sS'ipc'
p1279
F0.3
sS'keymapping'
p1280
F0.5
sS'android-widget'
p1281
I1
sS'apache-camel'
p1282
F0.5
sS'licensing'
p1283
F0.5
sS'mongodb-csharp'
p1284
F0.7
sS'bookmarks'
p1285
F0.5
sS'32bit-64bit'
p1286
F0.5
sS'tuple-unpacking'
p1287
I1
sS'intellij-idea'
p1288
I1
sS'regex'
p1289
F0.3
sS'httpd'
p1290
F0.5
sS'google-nativeclient'
p1291
F0.5
sS'c-preprocessor'
p1292
F0.3
sS'shared-ptr'
p1293
F0.1
sS'hector'
p1294
F0.5
sS'mouseevent'
p1295
I0
sS'recursive-query'
p1296
F0.5
sS'gis'
p1297
I0
sS'console-application'
p1298
I1
sS'wicket'
p1299
I0
sS'live'
p1300
F0.2
sS'handler'
p1301
I1
sS'dbpedia'
p1302
I0
sS'iphone'
p1303
F0.2
sS'https'
p1304
I0
sS'httpwebrequest'
p1305
I1
sS'quartz.net'
p1306
F0.5
sS'scope'
p1307
I0
sS'ruby-1.9.3'
p1308
F0.4
sS'checkout'
p1309
F0.5
sS'unsigned'
p1310
F0.4
sS'android-activity'
p1311
I1
sS'pylint'
p1312
F0.1
sS'cplex'
p1313
F0.5
sS'reinterpret-cast'
p1314
F0.3
sS'sentiment-analysis'
p1315
F0.5
sS'std'
p1316
I1
sS'monotouch'
p1317
F0.4
sS'blackberry-jde'
p1318
F0.5
sS'nested-class'
p1319
F0.5
sS'petrel'
p1320
F0.5
sS'google-closure-compiler'
p1321
F0.5
sS'associative-array'
p1322
I1
sS'ibm'
p1323
F0.5
sS'titanium'
p1324
I1
sS'cas'
p1325
F0.5
sS'entity-framework-4.3'
p1326
F0.1
sS'avplayer'
p1327
I0
sS'entity-framework-4.1'
p1328
F0.5
sS'cat'
p1329
I1
sS'flowlayout'
p1330
I1
sS'ninject'
p1331
F0.1
sS'printing'
p1332
F0.6
sS'k-means'
p1333
I0
sS'iframe'
p1334
I1
sS'anti-patterns'
p1335
F0.5
sS'use-case'
p1336
F0.5
sS'progressdialog'
p1337
I1
sS'pickle'
p1338
F0.5
sS'cad'
p1339
F0.5
sS'cabasicanimation'
p1340
F0.5
sS'sql-injection'
p1341
I0
sS'django-rest-framework'
p1342
F0.5
sS'nunit'
p1343
F0.4
sS'nexus'
p1344
F0.1
sS'symfony1'
p1345
I0
sS'jackrabbit'
p1346
F0.3
sS'errno'
p1347
F0.5
sS'va-list'
p1348
F0.5
sS'substring'
p1349
I1
sS'bonecp'
p1350
I0
sS'phpstorm'
p1351
F0.2
sS'uiimagepickercontroller'
p1352
F0.8
sS'yard'
p1353
F0.5
sS'c++11'
p1354
F0.4
sS'rvalue-reference'
p1355
I1
sS'simulation'
p1356
F0.5
sS'copy-constructor'
p1357
I1
sS'lazy-sequences'
p1358
F0.5
sS'simulink'
p1359
F0.5
sS'lxml'
p1360
I0
sS'monitoring'
p1361
F0.5
sS'managed-bean'
p1362
F0.5
sS'fpc'
p1363
I1
sS'distributed-computing'
p1364
F0.5
sS'tilt'
p1365
F0.5
sS'asmx'
p1366
F0.5
sS'range'
p1367
F0.3
sS'android-alarms'
p1368
I1
sS's4'
p1369
F0.5
sS'threadpool'
p1370
I1
sS'jsf-2'
p1371
F0.7
sS'jtableheader'
p1372
F0.5
sS'adminhtml'
p1373
F0.5
sS'optimal'
p1374
F0.5
sS'xhtml'
p1375
I1
sS'signal-handling'
p1376
F0.5
sS'iphone-privateapi'
p1377
I0
sS'map'
p1378
F0.1
sS'product'
p1379
F0.5
sS'centering'
p1380
F0.5
sS'jasperserver'
p1381
F0.5
sS'itemrenderer'
p1382
F0.5
sS'prime-factoring'
p1383
F0.5
sS'zend-route'
p1384
F0.2
sS'blobstore'
p1385
F0.5
sS'endeca'
p1386
I0
sS'windows-mobile-6.5'
p1387
I0
sS'event-sourcing'
p1388
F0.5
sS'spoj'
p1389
F0.6
sS'direct2d'
p1390
F0.2
sS'accesscontrolexception'
p1391
F0.5
sS'aop'
p1392
I1
sS'date'
p1393
I1
sS'rows'
p1394
F0.5
sS'actionmailer'
p1395
F0.5
sS'bit-shift'
p1396
F0.5
sS'data'
p1397
I1
sS'compatibility'
p1398
I1
sS'lm'
p1399
F0.3
sS'data-management'
p1400
I0
sS'dynamic-arrays'
p1401
F0.5
sS'google-apps'
p1402
I0
sS'ssl'
p1403
I1
sS'cfml'
p1404
I1
sS'html-lists'
p1405
I1
sS'stdio'
p1406
I0
sS'stdin'
p1407
F0.4
sS'explicit'
p1408
I1
sS'quotes'
p1409
I1
sS'prototypal-inheritance'
p1410
F0.2
sS'fluent'
p1411
I1
sS'type-systems'
p1412
I1
sS'sandbox'
p1413
I0
sS'sh'
p1414
I0
sS'language-lawyer'
p1415
I1
sS'kohana-3.2'
p1416
F0.2
sS'ghc'
p1417
F0.2
sS'batch-processing'
p1418
F0.5
sS'zedgraph'
p1419
F0.5
sS'dojo'
p1420
F0.3
sS'template-meta-programming'
p1421
I1
sS'twilio'
p1422
F0.5
sS'writeablebitmapex'
p1423
F0.5
sS'conditional-comments'
p1424
F0.5
sS'recordset'
p1425
I1
sS'cloudbees'
p1426
F0.5
sS'database-connection'
p1427
I1
sS'thread-local'
p1428
F0.6
sS'graphviz'
p1429
F0.5
sS'proguard'
p1430
F0.5
sS'nl2br'
p1431
F0.5
sS'counterclockwise'
p1432
F0.5
sS'zend-navigation'
p1433
F0.5
sS'google-earth'
p1434
F0.5
sS'blackberry-webworks'
p1435
F0.5
sS'event-dispatch-thread'
p1436
F0.2
sS'stack-trace'
p1437
F0.5
sS'preg-split'
p1438
F0.5
sS'virtual-functions'
p1439
I1
sS'sip'
p1440
I0
sS'accordion'
p1441
F0.5
sS'cstring'
p1442
F0.2
sS'asp.net-membership'
p1443
F0.5
sS'nscopying'
p1444
F0.5
sS'globalization'
p1445
F0.1
sS'coordinates'
p1446
F0.5
sS'uilabel'
p1447
F0.1
sS'forms'
p1448
I1
sS'yaml'
p1449
F0.8
sS'window'
p1450
I1
sS'jmenuitem'
p1451
F0.5
sS'repa'
p1452
F0.5
sS'saxon'
p1453
F0.3
sS'cache-control'
p1454
F0.5
sS'flex3'
p1455
F0.6
sS'main'
p1456
F0.4
sS'fxcop'
p1457
F0.5
sS'flex4'
p1458
F0.5
sS'treeset'
p1459
F0.5
sS'vtk'
p1460
F0.5
sS'html-form'
p1461
F0.5
sS'ember.js'
p1462
I1
sS'websphere-7'
p1463
F0.5
sS'error-handling'
p1464
I1
sS'views'
p1465
F0.6
sS'stringbuilder'
p1466
F0.5
sS'pass-by-value'
p1467
F0.5
sS'rake'
p1468
I1
sS'processes'
p1469
F0.5
sS'crawler'
p1470
F0.5
sS'file-download'
p1471
F0.5
sS'swi-prolog'
p1472
I0
sS'safari'
p1473
F0.8
sS'uitabbarcontroller'
p1474
F0.3
sS'macvim'
p1475
I1
sS'piglatin'
p1476
I0
sS'permissions'
p1477
I1
sS'xll'
p1478
F0.5
sS'equality'
p1479
F0.5
sS'tridion'
p1480
F0.6
sS'pseudo-element'
p1481
F0.5
sS'opera'
p1482
I0
sS'config'
p1483
F0.5
sS'ntlm'
p1484
F0.5
sS'revert'
p1485
F0.5
sS'gerrit'
p1486
F0.3
sS'random-forest'
p1487
F0.5
sS'admob'
p1488
F0.5
sS'robotlegs'
p1489
F0.5
sS'lwuit'
p1490
F0.5
sS'date-format'
p1491
F0.5
sS'code-duplication'
p1492
F0.5
sS'mysql-workbench'
p1493
F0.5
sS'cscope'
p1494
F0.5
sS'jboss-arquillian'
p1495
F0.2
sS'el'
p1496
F0.5
sS'r'
p1497
F0.1
sS'jquery-animate'
p1498
F0.3
sS'ecmascript-5'
p1499
I1
sS'vim-plugin'
p1500
F0.5
sS'httpwebresponse'
p1501
F0.5
sS'memory-model'
p1502
F0.5
sS'sfml'
p1503
F0.5
sS'printwriter'
p1504
F0.5
sS'php-5.3'
p1505
F0.5
sS'c++'
p1506
F0.1
sS'sql-server-express'
p1507
F0.1
sS'csharpcodeprovider'
p1508
F0.5
sS'public-key-encryption'
p1509
F0.4
sS'object-pascal'
p1510
F0.5
sS'task-parallel-library'
p1511
I0
sS'grails-plugin'
p1512
F0.1
sS'canvas'
p1513
F0.2
sS'fopen'
p1514
F0.5
sS'jackson'
p1515
I0
sS'space'
p1516
F0.5
sS'rounding'
p1517
I0
sS'winjs'
p1518
F0.8
sS'factory'
p1519
I1
sS'ejb'
p1520
I1
sS'mahout'
p1521
F0.5
sS'poco'
p1522
F0.5
sS'event-store'
p1523
F0.5
sS'elastic-beanstalk'
p1524
F0.6
sS'internet'
p1525
I1
sS'code-first'
p1526
F0.5
sS'formula'
p1527
F0.5
sS'idataerrorinfo'
p1528
F0.1
sS'modelform'
p1529
F0.5
sS'uwsgi'
p1530
F0.5
sS'jfilechooser'
p1531
F0.1
sS'hibernate'
p1532
I1
sS'silex'
p1533
F0.5
sS'goto'
p1534
I1
sS'crawling'
p1535
F0.1
sS'derived'
p1536
I1
sS'argv'
p1537
I1
sS'extbase'
p1538
F0.5
sS'cut'
p1539
F0.5
sS'android-ui'
p1540
F0.5
sS'dependencies'
p1541
F0.4
sS'emulation'
p1542
F0.5
sS'postsharp'
p1543
F0.5
sS'eclipse-plugin'
p1544
I0
sS'phpexcel'
p1545
I0
sS'byte'
p1546
I1
sS'dispatcher'
p1547
F0.5
sS'compression'
p1548
F0.3
sS'eventaggregator'
p1549
I1
sS'database-normalization'
p1550
F0.5
sS'oci'
p1551
F0.5
sS'idhttp'
p1552
F0.5
sS'instance-variables'
p1553
F0.5
sS'ocaml'
p1554
F0.3
sS'os.system'
p1555
F0.5
sS'yui'
p1556
F0.2
sS'path'
p1557
F0.5
sS'sitefinity'
p1558
F0.5
sS'lockscreen'
p1559
F0.5
sS'app-engine-ndb'
p1560
F0.5
sS'routes'
p1561
F0.5
sS'micro-optimization'
p1562
I1
sS'nsmanagedobject'
p1563
F0.5
sS'stylecop'
p1564
F0.5
sS'windows-explorer'
p1565
F0.5
sS'lambda'
p1566
I1
sS'8051'
p1567
F0.5
sS'wlan'
p1568
I1
sS'rxtx'
p1569
F0.5
sS'rms'
p1570
F0.6
sS'variables'
p1571
I1
sS'rtsp'
p1572
F0.5
sS'client-side'
p1573
F0.5
sS'acceptance-testing'
p1574
I1
sS'nested'
p1575
I1
sS'itextsharp'
p1576
I0
sS'event-dispatching'
p1577
I1
sS'ring'
p1578
F0.3
sS'open'
p1579
F0.5
sS'angular'
p1580
I1
sS'size'
p1581
I1
sS'properties'
p1582
F0.2
sS'uniqueidentifier'
p1583
F0.5
sS'exists'
p1584
F0.5
sS'webdeploy'
p1585
I0
sS'iad'
p1586
F0.5
sS'naudio'
p1587
F0.5
sS'flask-sqlalchemy'
p1588
F0.5
sS'yii'
p1589
F0.2
sS'lldb'
p1590
F0.5
sS'params'
p1591
F0.5
sS'constants'
p1592
I1
sS'nginx'
p1593
F0.5
sS'crash-dumps'
p1594
F0.5
sS'treeviewitem'
p1595
F0.5
sS'structures'
p1596
I1
sS'friend'
p1597
F0.5
sS'monkeypatching'
p1598
F0.5
sS'django-socialauth'
p1599
F0.5
sS'movabletype'
p1600
F0.1
sS'silverlight-toolkit'
p1601
I0
sS'progress-bar'
p1602
F0.5
sS'session-variables'
p1603
F0.5
sS'vimscript'
p1604
I0
sS'servlet-3.0'
p1605
F0.5
sS'function-object'
p1606
F0.5
sS'textreader'
p1607
I1
sS'wcf-binding'
p1608
F0.5
sS'padding'
p1609
F0.5
sS'short'
p1610
I1
sS'ingres'
p1611
F0.5
sS'module'
p1612
I1
sS'ctags'
p1613
F0.5
sS'plsqldeveloper'
p1614
I0
sS'copy'
p1615
I1
sS'visitor-pattern'
p1616
F0.5
sS'service-broker'
p1617
F0.5
sS'png'
p1618
F0.2
sS'business-connector'
p1619
F0.5
sS'asp.net-ajax'
p1620
F0.5
sS'thumbnails'
p1621
F0.5
sS'robots.txt'
p1622
F0.5
sS'gpgpu'
p1623
F0.5
sS'sqldependency'
p1624
F0.5
sS'resourcebundle'
p1625
F0.5
sS'perl-data-structures'
p1626
F0.2
sS'lucene'
p1627
F0.7
sS'applet'
p1628
I1
sS'future'
p1629
F0.5
sS'spring-integration'
p1630
F0.5
sS'eclipse-plugin-dev'
p1631
F0.5
sS'ffmpeg'
p1632
I1
sS'amazon-s3'
p1633
F0.2
sS'zsh'
p1634
I1
sS'browser'
p1635
I0
sS'dependency-management'
p1636
F0.5
sS'linux-kernel'
p1637
F0.1
sS'audio-streaming'
p1638
F0.5
sS'seam'
p1639
F0.5
sS'mvvm'
p1640
F0.5
sS'hateoas'
p1641
F0.5
sS'image-manipulation'
p1642
F0.5
sS'.net-4.5'
p1643
I0
sS'bufferedimage'
p1644
I1
sS'ant'
p1645
F0.2
sS'coderush-xpress'
p1646
F0.5
sS'sax'
p1647
F0.5
sS'jquery-selectors'
p1648
F0.5
sS'sas'
p1649
I0
sS'mechanize'
p1650
I0
sS'sap'
p1651
F0.5
sS'nsmutablearray'
p1652
F0.4
sS'facebook-graph-api'
p1653
I0
sS'cassandra'
p1654
F0.2
sS'silverlight-4.0'
p1655
F0.5
sS'progress-4gl'
p1656
F0.1
sS'uipopovercontroller'
p1657
F0.5
sS'glassfish-3'
p1658
F0.7
sS'backbone-views'
p1659
I0
sS'pseudocode'
p1660
I1
sS'zoo'
p1661
I0
sS'sharepoint-2007'
p1662
I1
sS'urlfetch'
p1663
F0.5
sS'backwards-compatibility'
p1664
F0.5
sS'animation'
p1665
I1
sS'type-parameter'
p1666
I1
sS'wcf'
p1667
I1
sS'andengine'
p1668
F0.1
sS'local-variables'
p1669
I1
sS'gmail'
p1670
I1
sS'meta-tags'
p1671
F0.4
sS'windowbuilder'
p1672
I1
sS'internet-explorer-8'
p1673
I1
sS'android-gridview'
p1674
F0.5
sS'artificial-intelligence'
p1675
I1
sS'buffer'
p1676
I0
sS'watir-webdriver'
p1677
I0
sS'c99'
p1678
I1
sS'code-behind'
p1679
F0.5
sS'libsvm'
p1680
I1
sS'insets'
p1681
F0.5
sS'scalatest'
p1682
F0.5
sS'c++03'
p1683
I1
sS'azure-web-sites'
p1684
F0.5
sS'software-engineering'
p1685
F0.5
sS'mobile-safari'
p1686
I1
sS'where-clause'
p1687
F0.5
sS'xampp'
p1688
F0.5
sS'backbone.js'
p1689
I1
sS'google-places-api'
p1690
I0
sS'latex'
p1691
F0.2
sS'kendo-ui'
p1692
F0.1
sS'textarea'
p1693
F0.5
sS'c++-cx'
p1694
F0.5
sS'icmp'
p1695
F0.7
sS'viewmodel'
p1696
F0.5
sS'nltk'
p1697
F0.2
sS'selenium-grid'
p1698
F0.1
sS'debuggervisualizer'
p1699
F0.5
sS'key-bindings'
p1700
F0.5
sS'zend-db'
p1701
F0.1
sS'webbrowser-control'
p1702
F0.1
sS'uitextfield'
p1703
I1
sS'vfp'
p1704
F0.5
sS'salt'
p1705
F0.5
sS'android-contentprovider'
p1706
F0.5
sS'screen-scraping'
p1707
I0
sS'nlp'
p1708
I1
sS'nls'
p1709
F0.5
sS'nspredicate'
p1710
F0.4
sS'qoq'
p1711
F0.5
sS'modx-revolution'
p1712
F0.5
sS'lotus'
p1713
F0.5
sS'biztalk-2009'
p1714
F0.2
sS'selenium2'
p1715
F0.4
sS'datetime'
p1716
I1
sS'datagrid'
p1717
I1
sS'monads'
p1718
F0.1
sS'wcf-data-services'
p1719
I0
sS'programming-languages'
p1720
I0
sS'restrict-qualifier'
p1721
F0.5
sS'bytebuffer'
p1722
F0.1
sS'google-apps-marketplace'
p1723
F0.3
sS'shibboleth'
p1724
F0.5
sS'dll'
p1725
I1
sS'injection'
p1726
F0.5
sS'xml'
p1727
I1
sS'upgrade'
p1728
F0.5
sS'xmi'
p1729
F0.5
sS'macros'
p1730
F0.2
sS'phantomjs'
p1731
I0
sS'g++'
p1732
I0
sS'either'
p1733
F0.5
sS'erd'
p1734
F0.7
sS'street-address'
p1735
F0.5
sS'tridion-2011'
p1736
F0.3
sS'adobe-illustrator'
p1737
F0.5
sS'cpack'
p1738
I1
sS'datatemplate'
p1739
F0.1
sS'c#-2.0'
p1740
I1
sS'routing'
p1741
F0.3
sS'boolean-logic'
p1742
F0.5
sS'reset'
p1743
F0.5
sS'mockito'
p1744
F0.5
sS'query-string'
p1745
F0.4
sS'uitextview'
p1746
I1
sS'get'
p1747
I1
sS'string-concatenation'
p1748
I1
sS'nosetests'
p1749
F0.5
sS'clang'
p1750
F0.4
sS'autoload'
p1751
F0.5
sS'ramaze'
p1752
F0.5
sS'geb'
p1753
F0.5
sS'json-encode'
p1754
F0.1
sS'instance'
p1755
I1
sS'ssh'
p1756
I1
sS'azure-configuration'
p1757
F0.5
sS'sse'
p1758
F0.6
sS'j2mepolish'
p1759
I0
sS'accelerate-framework'
p1760
F0.1
sS'gem'
p1761
F0.2
sS'jtextfield'
p1762
F0.5
sS'mapper'
p1763
F0.5
sS'datamapper'
p1764
I1
sS'android-layout'
p1765
F0.2
sS'finalizer'
p1766
F0.1
sS'webapp2'
p1767
F0.1
sS'nullptr'
p1768
F0.5
sS'active-pattern'
p1769
I0
sS'postgis'
p1770
F0.5
sS'itemscontrol'
p1771
F0.2
sS'jtextpane'
p1772
F0.5
sS'androidplot'
p1773
I0
sS'bison'
p1774
I0
sS'source'
p1775
F0.1
sS'sonar'
p1776
F0.1
sS'tika'
p1777
I0
sS'java.util.concurrent'
p1778
F0.3
sS'where'
p1779
I1
sS'http-headers'
p1780
I0
sS'ms-media-foundation'
p1781
F0.5
sS'kernel'
p1782
I0
sS'installshield'
p1783
F0.5
sS'spork'
p1784
I1
sS'datatables'
p1785
F0.1
sS'siblings'
p1786
F0.5
sS'fullcalendar'
p1787
F0.5
sS'preg-replace-callback'
p1788
F0.5
sS'comparable'
p1789
F0.5
sS'closures'
p1790
I1
sS'findbugs'
p1791
F0.5
sS'add-in'
p1792
F0.5
sS'socket.io'
p1793
I1
sS'ssrs-reports'
p1794
F0.5
sS'tablesorter'
p1795
F0.5
sS'javabeans'
p1796
F0.4
sS'calendar'
p1797
F0.4
sS'rmi'
p1798
F0.1
sS'defaulttablemodel'
p1799
F0.5
sS'tiles2'
p1800
F0.5
sS'powerpoint'
p1801
F0.5
sS'android-animation'
p1802
F0.5
sS'camping'
p1803
F0.5
sS'runtime'
p1804
F0.5
sS'actionscript-3'
p1805
I1
sS'compiler-errors'
p1806
F0.5
sS'label'
p1807
I1
sS'xtext'
p1808
F0.5
sS'getattr'
p1809
I0
sS'ios-provisioning'
p1810
F0.5
sS'import'
p1811
I1
sS'fusioncharts'
p1812
F0.5
sS'jta'
p1813
F0.5
sS'screen'
p1814
I1
sS'quartz-graphics'
p1815
F0.5
sS'google-cloud-storage'
p1816
F0.3
sS'asp.net-optimization'
p1817
F0.5
sS'jobs'
p1818
F0.5
sS'parent'
p1819
F0.2
sS'websphere'
p1820
I1
sS'uml-modeling'
p1821
F0.5
sS'pthreads'
p1822
F0.6
sS'typedef'
p1823
I1
sS'.net-4.0'
p1824
I1
sS'bitset'
p1825
F0.1
sS'nsnumber'
p1826
I0
sS'highlight'
p1827
F0.5
sS'serialization'
p1828
I1
sS'spark'
p1829
F0.5
sS'cli'
p1830
I1
sS'expression-blend'
p1831
F0.5
sS'xbee'
p1832
F0.5
sS'concurrenthashmap'
p1833
F0.5
sS'parentheses'
p1834
F0.5
sS'installation'
p1835
F0.5
sS'richfaces'
p1836
F0.5
sS'exchange-server'
p1837
I0
sS'uipageviewcontroller'
p1838
F0.5
sS'mono'
p1839
F0.5
sS'binomial-heap'
p1840
I1
sS'viewwillappear'
p1841
F0.5
sS'indy10'
p1842
F0.1
sS'trigonometry'
p1843
I1
sS'google-docs'
p1844
I0
sS'gwt'
p1845
F0.2
sS'bufferedreader'
p1846
I1
sS'zend-framework2'
p1847
I1
sS'mkannotationview'
p1848
F0.5
sS'combobox'
p1849
F0.2
sS'modal-dialog'
p1850
I1
sS'comet'
p1851
F0.1
sS'left-recursion'
p1852
F0.5
sS'inversion-of-control'
p1853
F0.8
sS'expression'
p1854
I1
sS'nimbus'
p1855
F0.5
sS'codeigniter-2'
p1856
F0.7
sS'forecasting'
p1857
F0.5
sS'filtering'
p1858
I1
sS'cabal'
p1859
F0.5
sS'workflow-foundation-4'
p1860
F0.5
sS'stream'
p1861
F0.2
sS'solid-principles'
p1862
F0.5
sS'idl-programming-language'
p1863
F0.5
sS'osx-lion'
p1864
F0.5
sS'cursor'
p1865
I0
sS'robotics'
p1866
F0.5
sS'array-key'
p1867
F0.5
sS'system-verilog'
p1868
I0
sS'search-engine'
p1869
F0.1
sS'spring-data'
p1870
F0.5
sS'begininvoke'
p1871
F0.5
sS'vdsp'
p1872
F0.5
sS'pod'
p1873
F0.7
sS'twig'
p1874
F0.5
sS'curl'
p1875
I1
sS'math'
p1876
I0
sS'jnlp'
p1877
F0.5
sS'messagebox'
p1878
F0.5
sS'prolog-setof'
p1879
F0.5
sS'tuning'
p1880
F0.5
sS'accelerometer'
p1881
F0.5
sS'cql'
p1882
F0.5
sS'encryption'
p1883
F0.1
sS'adfs'
p1884
F0.5
sS'ruby-on-rails-3.1'
p1885
I1
sS'trie'
p1886
I1
sS'ruby-on-rails-3.2'
p1887
F0.3
sS'testng'
p1888
F0.5
sS'prototype'
p1889
I1
sS'visual-foxpro'
p1890
F0.5
sS'grid-layout'
p1891
F0.5
sS'rdbms'
p1892
F0.5
sS'sitecore'
p1893
I0
sS'apache-felix'
p1894
I1
sS'libgdx'
p1895
F0.5
sS'traversal'
p1896
F0.5
sS'mocking'
p1897
I1
sS'e-commerce'
p1898
F0.5
sS'common-table-expression'
p1899
I1
sS'external'
p1900
F0.5
sS'anorm'
p1901
F0.5
sS'declaration'
p1902
F0.8
sS'variable-assignment'
p1903
I1
sS'codeigniter-url'
p1904
F0.5
sS'nsurlrequest'
p1905
F0.5
sS'ruby'
p1906
I1
sS'protocols'
p1907
I1
sS'magento-1.5'
p1908
F0.6
sS'case'
p1909
I1
sS'tomcat7'
p1910
F0.6
sS'mongoengine'
p1911
F0.5
sS'www-mechanize'
p1912
F0.5
sS'magento-1.6'
p1913
F0.6
sS'fluent-nhibernate'
p1914
I0
sS'microsoft-sync-framework'
p1915
I0
sS'payment-gateway'
p1916
F0.5
sS'profiler'
p1917
I0
sS'alarmmanager'
p1918
F0.1
sS'coldfusion'
p1919
I1
sS'center'
p1920
F0.1
sS'shared-libraries'
p1921
I1
sS'sbcl'
p1922
F0.5
sS'margin'
p1923
F0.4
sS'layout-inflater'
p1924
F0.5
sS'cq5'
p1925
I1
sS'smart-pointers'
p1926
I1
sS'ezpublish'
p1927
F0.5
sS'oledb'
p1928
F0.5
sS'stdout'
p1929
F0.2
sS'blas'
p1930
F0.5
sS'mongolab'
p1931
F0.5
sS'concatenation'
p1932
F0.2
sS'boost-spirit'
p1933
F0.7
sS'ubuntu-10.04'
p1934
F0.5
sS'telephony'
p1935
F0.5
sS'cobol'
p1936
I0
sS'archiva'
p1937
F0.5
sS'jni'
p1938
F0.1
sS'datastore'
p1939
F0.5
sS'datagridview'
p1940
F0.7
sS'ascii'
p1941
I1
sS'ivy'
p1942
F0.5
sS'smalltalk'
p1943
F0.9
sS'pdftk'
p1944
F0.5
sS'binary'
p1945
I1
sS'design-patterns'
p1946
I1
sS'saml'
p1947
I0
sS'jface'
p1948
F0.5
sS'reshape'
p1949
I1
sS'fractals'
p1950
F0.5
sS'locking'
p1951
I1
sS'msdtc'
p1952
F0.5
sS'createprocess'
p1953
F0.5
sS'command-line-arguments'
p1954
I1
sS'kernighan-and-ritchie'
p1955
F0.5
sS'authentication'
p1956
F0.4
sS'code-analysis'
p1957
F0.5
sS'interbase'
p1958
F0.5
sS'capybara'
p1959
F0.1
sS'hxt'
p1960
F0.5
sS'document'
p1961
I1
sS'events'
p1962
F0.1
sS'member-functions'
p1963
I1
sS'datepart'
p1964
F0.5
sS'hadoop-streaming'
p1965
F0.5
sS'screenshot'
p1966
F0.5
sS'parcelable'
p1967
F0.5
sS'media-queries'
p1968
I0
sS'rfid'
p1969
F0.4
sS'driver'
p1970
F0.2
sS'allocation'
p1971
F0.5
sS'type-safety'
p1972
I1
sS'openldap'
p1973
F0.5
sS'cakephp-2.0'
p1974
I0
sS'cakephp-2.1'
p1975
F0.5
sS'virtual-machine'
p1976
F0.2
sS'android-viewpager'
p1977
F0.5
sS'extern'
p1978
F0.5
sS'wpf'
p1979
I1
sS'higher-order-functions'
p1980
F0.5
sS'crystal-reports'
p1981
F0.1
sS'break'
p1982
I1
sS'tracking'
p1983
F0.5
sS'undefined'
p1984
I1
sS'data-mining'
p1985
F0.7
sS'pycassa'
p1986
F0.5
sS'watin'
p1987
F0.3
sS'data-modeling'
p1988
F0.5
sS'markup'
p1989
F0.5
sS'value-of'
p1990
F0.5
sS'system.drawing'
p1991
F0.5
sS'backbone.marionette'
p1992
F0.5
sS'prototype-programming'
p1993
F0.4
sS'worklight'
p1994
I1
sS'bottle'
p1995
F0.1
sS'dotnetnuke-module'
p1996
F0.5
sS'model'
p1997
F0.5
sS'modem'
p1998
F0.4
sS'y-combinator'
p1999
F0.5
sS'protege'
p2000
F0.5
sS'seam2'
p2001
F0.5
sS'java-web-start'
p2002
F0.5
sS'sqlplus'
p2003
F0.5
sS'nosql'
p2004
I0
sS'phpmyadmin'
p2005
F0.9
sS'jquery-ui-datepicker'
p2006
F0.3
sS'c89'
p2007
F0.5
sS'radio-button'
p2008
I1
sS'neon'
p2009
F0.1
sS'slime'
p2010
F0.2
sS'rest'
p2011
I1
sS'bitmap'
p2012
I1
sS'gdb'
p2013
F0.2
sS'jshint'
p2014
F0.5
sS'entity-framework-5'
p2015
F0.5
sS'cocos2d'
p2016
F0.2
sS'clos'
p2017
F0.5
sS'touch'
p2018
F0.5
sS'gdi'
p2019
F0.5
sS'template-templates'
p2020
F0.5
sS'msvcrt'
p2021
F0.5
sS'greasemonkey'
p2022
F0.3
sS'action-filter'
p2023
F0.5
sS'look-and-feel'
p2024
F0.2
sS'autocad'
p2025
F0.5
sS'struct'
p2026
F0.3
sS'generator'
p2027
I0
sS'ruby-on-rails'
p2028
I1
sS'imagebutton'
p2029
F0.4
sS'mmap'
p2030
I1
sS'google-docs-api'
p2031
F0.5
sS'static-initialization'
p2032
F0.5
sS'reference-type'
p2033
F0.5
sS'long-integer'
p2034
I1
sS'sqlite3'
p2035
F0.5
sS'firewall'
p2036
F0.4
sS'decompression'
p2037
F0.5
sS'nerdtree'
p2038
F0.2
sS'pow'
p2039
F0.5
sS'stopwatch'
p2040
F0.5
sS'android-textview'
p2041
F0.5
sS'downcasting'
p2042
I1
sS'styles'
p2043
I1
sS'csrf'
p2044
F0.5
sS'biztalk-2010'
p2045
F0.5
sS'rubygems'
p2046
I1
sS'android-lifecycle'
p2047
I1
sS'libc'
p2048
I1
sS'support-vector-machines'
p2049
F0.2
sS'swig'
p2050
F0.2
sS'amd'
p2051
F0.5
sS'dart'
p2052
I1
sS'resteasy'
p2053
F0.5
sS'chainsaw'
p2054
F0.4
sS'lwjgl'
p2055
F0.5
sS'dita'
p2056
F0.5
sS'database-schema'
p2057
I1
sS'hibernate-mapping'
p2058
F0.5
sS'using'
p2059
F0.5
sS'enums'
p2060
I1
sS'bochs'
p2061
F0.5
sS'aspectj'
p2062
I0
sS'javascript-objects'
p2063
F0.5
sS'parent-child'
p2064
F0.5
sS'silverlight'
p2065
I1
sS'avaudioplayer'
p2066
F0.5
sS'intel'
p2067
F0.5
sS'custom-action'
p2068
F0.5
sS'memmove'
p2069
F0.5
sS'const-cast'
p2070
F0.5
sS'wscript'
p2071
I0
sS'selenium-ide'
p2072
F0.3
sS'extendscript'
p2073
I1
sS'jvm-arguments'
p2074
I1
sS'stdmap'
p2075
F0.5
sS'unique-ptr'
p2076
F0.7
sS'eventmachine'
p2077
F0.5
sS'blackberry'
p2078
F0.1
sS'datawindow'
p2079
F0.5
sS'view'
p2080
I1
sS'facebook-page'
p2081
F0.2
sS'computer-science'
p2082
I1
sS'credit-card'
p2083
I1
sS'django-queries'
p2084
F0.5
sS'strcmp'
p2085
F0.5
sS'jquery-ui-dialog'
p2086
F0.5
sS'grouping'
p2087
I1
sS'imagej'
p2088
I0
sS'fonts'
p2089
F0.1
sS'cisco'
p2090
I0
sS'cxf'
p2091
F0.3
sS'dcg'
p2092
I1
sS'conditional'
p2093
I1
sS'udev'
p2094
F0.5
sS'android-c2dm'
p2095
F0.5
sS'regex-negation'
p2096
F0.9
sS'erase'
p2097
F0.5
sS'cgcontext'
p2098
F0.5
sS'return-value'
p2099
F0.5
sS'table'
p2100
I1
sS'fgets'
p2101
F0.5
sS'matching'
p2102
F0.5
sS'explode'
p2103
I1
sS'dynamic-linking'
p2104
I1
sS'literals'
p2105
F0.5
sS'windows'
p2106
I0
sS'rpm'
p2107
F0.5
sS'kml'
p2108
F0.5
sS'ejb-3.0'
p2109
I0
sS'ejb-3.1'
p2110
F0.5
sS'string-literals'
p2111
I0
sS'pypy'
p2112
F0.6
sS'toad'
p2113
F0.5
sS'exit'
p2114
F0.5
sS'special-folders'
p2115
F0.5
sS'ddl'
p2116
F0.6
sS'sql-server-2008-r2'
p2117
I1
sS'mousemove'
p2118
I1
sS'content'
p2119
F0.5
sS'inno-setup'
p2120
F0.5
sS'android-imageview'
p2121
I1
sS'assembly'
p2122
F0.1
sS'database-performance'
p2123
I1
sS'function-composition'
p2124
F0.5
sS'rdfs'
p2125
F0.3
sS'tdd'
p2126
I0
sS'cc-mode'
p2127
F0.5
sS'iar'
p2128
I1
sS'jscrollbar'
p2129
I1
sS'ontology'
p2130
F0.3
sS'assembla'
p2131
F0.5
sS'class-method'
p2132
F0.5
sS'movieclip'
p2133
I1
sS'crystal-reports-2010'
p2134
F0.5
sS'comparison'
p2135
F0.3
sS'fuelphp'
p2136
F0.3
sS'firebird'
p2137
F0.6
sS'package'
p2138
I1
sS'ack'
p2139
F0.5
sS'yacc'
p2140
F0.5
sS'azureservicebus'
p2141
F0.5
sS'spss'
p2142
I0
sS'acs'
p2143
I0
sS'struts2'
p2144
F0.1
sS'cuda'
p2145
I1
sS'dependency-injection'
p2146
F0.7
sS'confluence'
p2147
F0.5
sS'marshalling'
p2148
I0
sS'autotools'
p2149
F0.5
sS'backup'
p2150
F0.5
sS'nullpointerexception'
p2151
I1
sS'knitr'
p2152
I0
sS'outlook'
p2153
F0.5
sS'relativelayout'
p2154
I1
sS'git-revert'
p2155
F0.5
sS'orientation'
p2156
F0.5
sS'instruments'
p2157
F0.5
sS'image'
p2158
I1
sS'splunk'
p2159
F0.5
sS'prolog-dif'
p2160
F0.2
sS'jena'
p2161
I0
sS'charts'
p2162
F0.6
sS'sqlclient'
p2163
F0.5
sS'stringstream'
p2164
I1
sS'pivot'
p2165
F0.5
sS'database-partitioning'
p2166
F0.5
sS'conventions'
p2167
F0.5
sS'cdi'
p2168
I0
sS'.net-2.0'
p2169
I1
sS'opengl'
p2170
I1
sS'iocp'
p2171
F0.2
sS'arel'
p2172
F0.5
sS'hex'
p2173
I1
sS'styling'
p2174
F0.2
sS'decode'
p2175
I1
sS'jquery-on'
p2176
F0.5
sS'emacs'
p2177
I1
sS'ipv4'
p2178
F0.2
sS'uiwebview'
p2179
F0.8
sS'ipv6'
p2180
F0.5
sS'dust.js'
p2181
F0.5
sS'npapi'
p2182
F0.6
sS'liferay'
p2183
I0
sS'mouseenter'
p2184
I1
sS'media'
p2185
F0.5
sS'shoutcast'
p2186
F0.5
sS'python-2.x'
p2187
F0.3
sS'mvc-editor-templates'
p2188
I1
sS'odata'
p2189
F0.6
sS'semaphore'
p2190
F0.4
sS'apache-karaf'
p2191
I1
sS'haml'
p2192
I0
sS'semantic-web'
p2193
F0.5
sS'lazy-evaluation'
p2194
I1
sS'svm'
p2195
F0.5
sS'android-asynctask'
p2196
I1
sS'functor'
p2197
F0.2
sS'android-logcat'
p2198
F0.5
sS'multitasking'
p2199
F0.5
sS'uiimage'
p2200
F0.4
sS'utf-16'
p2201
F0.5
sS'openxml'
p2202
F0.6
sS'gorm'
p2203
I1
sS'ntfs'
p2204
F0.5
sS'pull'
p2205
F0.5
sS'mathml'
p2206
F0.5
sS'dynamic-allocation'
p2207
I1
sS'algorithm'
p2208
F0.2
sS'embedded'
p2209
F0.4
sS'default'
p2210
F0.5
sS'asp.net-mvc-3'
p2211
F0.1
sS'chrono'
p2212
F0.5
sS'core-plot'
p2213
F0.5
sS'asp.net-mvc-4'
p2214
I0
sS'ioc-container'
p2215
F0.1
sS'graph-theory'
p2216
F0.4
sS'topshelf'
p2217
I0
sS'deadlock'
p2218
F0.2
sS'moles'
p2219
I0
sS'rust'
p2220
I1
sS'connect'
p2221
I1
sS'delphi-7'
p2222
F0.6
sS'delphi-6'
p2223
F0.5
sS'delphi-5'
p2224
F0.5
sS'android-alertdialog'
p2225
I1
sS'cakephp-appmodel'
p2226
F0.5
sS'inner-classes'
p2227
F0.4
sS'nstextfield'
p2228
F0.5
sS'rvo'
p2229
F0.5
sS'excel-2007'
p2230
I0
sS'rvm'
p2231
I0
sS'boost-spirit-qi'
p2232
F0.5
sS'cryptoapi'
p2233
F0.5
sS'loops'
p2234
I1
sS'objective-c'
p2235
I1
sS'asynchronous'
p2236
F0.3
sS'apply-templates'
p2237
F0.5
sS'file'
p2238
I1
sS'facebook-javascript-sdk'
p2239
F0.3
sS'ax'
p2240
F0.5
sS'coded-ui-tests'
p2241
F0.5
sS'allocator'
p2242
F0.5
sS'mysql-real-escape-string'
p2243
F0.5
sS'zend-auth'
p2244
F0.5
sS'ajaxcontroltoolkit'
p2245
F0.5
sS'urlconnection'
p2246
F0.5
sS'clearcase-ucm'
p2247
F0.5
sS'omnithreadlibrary'
p2248
I1
sS'sql-server'
p2249
F0.2
sS'mmapi'
p2250
F0.5
sS'storage'
p2251
I0
sS'mouse-listeners'
p2252
F0.5
sS'gettext'
p2253
F0.5
sS'introspection'
p2254
I1
sS'path-finding'
p2255
F0.5
sS'prism'
p2256
I0
sS'declarative-services'
p2257
F0.5
sS'genetic-algorithm'
p2258
F0.2
sS'spatial'
p2259
F0.5
sS'type-conversion'
p2260
I1
sS'rspec-rails'
p2261
F0.5
sS'opacity'
p2262
F0.4
sS'openid'
p2263
F0.5
sS'javafx-2'
p2264
F0.2
sS'expandoobject'
p2265
F0.5
sS'screen-readers'
p2266
F0.5
sS'windows-authentication'
p2267
I0
sS'powershell-ise'
p2268
I1
sS'pear'
p2269
I0
sS'richtextbox'
p2270
I1
sS'jframe'
p2271
F0.3
sS'ansi'
p2272
I1
sS'nearest-neighbor'
p2273
F0.5
sS'registry'
p2274
F0.5
sS'unit-of-work'
p2275
F0.5
sS'rpy2'
p2276
I0
sS'stringtemplate'
p2277
F0.5
sS'nswindow'
p2278
F0.7
sS'picturebox'
p2279
F0.5
sS'str-replace'
p2280
F0.1
sS'pool'
p2281
F0.5
sS'whitespace'
p2282
I1
sS'assert'
p2283
I1
sS'n-tier'
p2284
I1
sS'castle-windsor'
p2285
F0.1
sS'masm'
p2286
F0.5
sS'wifi'
p2287
I0
sS'powershell-v2.0'
p2288
F0.5
sS'strong-typing'
p2289
F0.5
sS'scroll'
p2290
I1
sS'raphael'
p2291
F0.3
sS'classcastexception'
p2292
F0.5
sS'validator'
p2293
F0.5
sS'typechecking'
p2294
F0.5
sS'one-to-many'
p2295
I1
sS'spring-test'
p2296
I0
sS'directory'
p2297
I1
sS'collision-detection'
p2298
I1
sS'extjs-mvc'
p2299
I0
sS'nasm'
p2300
F0.5
sS'cpu'
p2301
F0.2
sS'telerik-grid'
p2302
F0.3
sS'bytearray'
p2303
F0.5
sS'processing.org'
p2304
F0.5
sS'svg-filters'
p2305
F0.5
sS'semantic'
p2306
F0.1
sS'embedded-resource'
p2307
F0.5
sS'duplicates'
p2308
F0.5
sS'google-spreadsheet-api'
p2309
I1
sS'graphics'
p2310
F0.4
sS'java-8'
p2311
F0.5
sS'drag-and-drop'
p2312
I0
sS'vbscript'
p2313
F0.1
sS'strtotime'
p2314
F0.5
sS'mp4'
p2315
F0.3
sS'web-worker'
p2316
I0
sS'openlayers'
p2317
F0.5
sS'mp3'
p2318
F0.5
sS'x509certificate'
p2319
F0.5
sS'encapsulation'
p2320
I1
sS'sieve-of-eratosthenes'
p2321
F0.4
sS'expressions'
p2322
F0.5
sS'disk'
p2323
F0.5
sS'children'
p2324
I1
sS'naming-conventions'
p2325
F0.6
sS'kobold2d'
p2326
F0.5
sS'system.reflection'
p2327
F0.5
sS'git-workflow'
p2328
F0.6
sS'icons'
p2329
F0.5
sS'tv'
p2330
F0.5
sS'tr'
p2331
F0.2
sS'java-ee'
p2332
F0.1
sS'mktime'
p2333
I1
sS'wmi'
p2334
F0.6
sS'tk'
p2335
F0.5
sS'sympy'
p2336
I1
sS'nodes'
p2337
F0.5
sS'java-me'
p2338
F0.5
sS'qpainter'
p2339
F0.5
sS'ccache'
p2340
F0.6
sS'mysql-error-1064'
p2341
F0.1
sS'edi'
p2342
F0.5
sS'memory-management'
p2343
I1
sS'generics'
p2344
I0
sS'webrequest'
p2345
F0.5
sS'eclipse-gef'
p2346
F0.6
sS'gwt2'
p2347
F0.5
sS'with-statement'
p2348
I1
sS'mpi'
p2349
F0.5
sS'matlab-guide'
p2350
F0.5
sS'ical'
p2351
F0.2
sS'fortran95'
p2352
F0.5
sS'gfortran'
p2353
F0.5
sS'amazon-ebs'
p2354
F0.5
sS'dapper'
p2355
F0.1
sS'xstream'
p2356
F0.5
sS'push-notification'
p2357
F0.5
sS'condition'
p2358
F0.3
sS'referential-transparency'
p2359
F0.5
sS'bundle'
p2360
I0
sS'datatrigger'
p2361
F0.5
sS'lisp'
p2362
F0.8
sS'datacontractserializer'
p2363
F0.5
sS't4'
p2364
F0.5
sS'bpmn'
p2365
F0.4
sS'list'
p2366
I1
sS'toggle'
p2367
F0.7
sS'ext-gwt'
p2368
F0.5
sS'drools'
p2369
F0.5
sS'winddk'
p2370
F0.5
sS'spring-ldap'
p2371
F0.5
sS'google-maps-api-3'
p2372
F0.5
sS'domain-driven-design'
p2373
I1
sS'glsl'
p2374
I1
sS'dexterity'
p2375
F0.5
sS'cookies'
p2376
I1
sS'gridview'
p2377
I1
sS'instagram'
p2378
F0.5
sS'uistoryboard'
p2379
F0.1
sS'sync'
p2380
F0.5
sS'clob'
p2381
F0.5
sS'jeditorpane'
p2382
F0.5
sS'design'
p2383
I1
sS'qml'
p2384
F0.5
sS'plugins'
p2385
I0
sS'omniauth'
p2386
F0.5
sS'schema.org'
p2387
F0.7
sS'listbox'
p2388
I1
sS'page-object-gem'
p2389
F0.5
sS'firemonkey'
p2390
F0.5
sS'monad-transformers'
p2391
F0.5
sS'intptr'
p2392
F0.5
sS'html-email'
p2393
F0.1
sS'xor'
p2394
I1
sS'sbt'
p2395
I0
sS'accumulator'
p2396
I1
sS'abi'
p2397
F0.5
sS'file-locking'
p2398
F0.5
sS'ast'
p2399
F0.5
sS'uistoryboardsegue'
p2400
F0.7
sS'reshape2'
p2401
F0.5
sS'cx-oracle'
p2402
F0.5
sS'yield-return'
p2403
F0.1
sS'inline-assembly'
p2404
F0.2
sS'cronexpression'
p2405
F0.5
sS'session-timeout'
p2406
F0.5
sS'row'
p2407
F0.5
sS'memcached'
p2408
F0.4
sS'nant'
p2409
I0
sS'standards-compliance'
p2410
F0.5
sS'escaping'
p2411
I1
sS'tags'
p2412
I1
sS'web-security'
p2413
I1
sS'org-mode'
p2414
F0.1
sS'proc'
p2415
F0.5
sS'library-project'
p2416
F0.5
sS'mule'
p2417
I0
sS'firebase'
p2418
F0.5
sS'hashtable'
p2419
F0.2
sS'trunk'
p2420
F0.5
sS'pygobject'
p2421
F0.5
sS'jlist'
p2422
F0.1
sS'titanium-mobile'
p2423
I1
sS'arraycollection'
p2424
I1
sS'legend'
p2425
F0.5
sS'thrift'
p2426
F0.5
sS'linq-to-objects'
p2427
F0.5
sS'caliburn.micro'
p2428
F0.5
sS'jax-ws'
p2429
F0.5
sS'start-job'
p2430
F0.5
sS'anonymous-function'
p2431
I0
sS'html-agility-pack'
p2432
F0.2
sS'popen'
p2433
F0.5
sS'c++-cli'
p2434
F0.4
sS'requirejs'
p2435
I1
sS'countif'
p2436
F0.5
sS'plone'
p2437
F0.3
sS'emulator'
p2438
F0.2
sS'graph'
p2439
I0
sS'action'
p2440
F0.5
sS'tesseract'
p2441
I0
sS'openfire'
p2442
F0.5
sS'unmanagedresources'
p2443
F0.5
sS'rename'
p2444
I1
sS'jre'
p2445
F0.5
sS'agi'
p2446
I1
sS'shuffle'
p2447
F0.5
sS'hg-git'
p2448
F0.5
sS'amazon-rds'
p2449
F0.5
sS'layer'
p2450
F0.5
sS'tmux'
p2451
F0.5
sS'vim'
p2452
F0.4
sS'joomla2.5'
p2453
I0
sS'collation'
p2454
I0
sS'href'
p2455
I1
sS'pretty-print'
p2456
F0.5
sS'tfsbuild'
p2457
F0.1
sS'linear-algebra'
p2458
I1
sS'composite-primary-key'
p2459
I1
sS'jbutton'
p2460
F0.1
sS'select'
p2461
F0.4
sS'plinq'
p2462
F0.5
sS'oracle-apex'
p2463
I0
sS'executable'
p2464
F0.6
sS'fluid-layout'
p2465
F0.5
sS'evernote'
p2466
F0.5
sS'cherrypy'
p2467
F0.5
sS'foxpro'
p2468
F0.9
sS'gnat'
p2469
F0.5
sS'distinct'
p2470
F0.6
sS'contains'
p2471
I0
sS'playframework-2.0'
p2472
F0.4
sS'binary-search-tree'
p2473
F0.5
sS'game-center'
p2474
I1
sS'cascade'
p2475
F0.3
sS'qemu'
p2476
F0.5
sS'vi'
p2477
I0
sS'rbenv'
p2478
F0.5
sS'authorization'
p2479
F0.5
sS'spdy'
p2480
F0.5
sS'temp-tables'
p2481
F0.5
sS'logcat'
p2482
I1
sS'lambdaj'
p2483
F0.5
sS'buddypress'
p2484
F0.5
sS'android-service'
p2485
I1
sS'operators'
p2486
I1
sS'rvalue'
p2487
I1
sS'actionlistener'
p2488
F0.1
sS'concurrentmodification'
p2489
F0.5
sS'hashcode'
p2490
F0.6
sS'itext'
p2491
I1
sS'dom-manipulation'
p2492
F0.5
sS'ssis-data-transformations'
p2493
I0
sS'generic-programming'
p2494
F0.2
sS'avr'
p2495
F0.1
sS'speech-recognition'
p2496
F0.5
sS'git-branch'
p2497
F0.5
sS'webkit'
p2498
F0.3
sS'git'
p2499
I1
sS'homebrew'
p2500
F0.5
sS'radgrid'
p2501
F0.5
sS'query-expressions'
p2502
F0.5
sS'dex'
p2503
F0.5
sS'rmongodb'
p2504
I1
sS'azure-worker-roles'
p2505
F0.8
sS'gql'
p2506
F0.5
sS'scala-2.10'
p2507
F0.5
sS'jdk'
p2508
I1
sS'large-files'
p2509
F0.6
sS'des'
p2510
F0.8
sS'for-loop'
p2511
I1
sS'sql-azure'
p2512
F0.4
sS'autocomplete'
p2513
I1
sS'netbeans-7'
p2514
F0.5
sS'mvvm-light'
p2515
F0.5
sS'inotifycollectionchanged'
p2516
F0.5
sS'azure-web-roles'
p2517
F0.5
sS'jdt'
p2518
F0.5
sS'tail-recursion'
p2519
I1
sS'history'
p2520
F0.5
sS'compare'
p2521
I1
sS'jsoup'
p2522
F0.1
sS'synchronized'
p2523
I1
sS'excel-formula'
p2524
I0
sS'attached-properties'
p2525
F0.5
sS'share'
p2526
F0.5
sS'inner-join'
p2527
F0.3
sS'quartz-2d'
p2528
F0.1
sS'mathematica-8'
p2529
F0.5
sS'f#'
p2530
F0.2
sS'magento'
p2531
I1
sS'numbers'
p2532
I1
sS'jquery-events'
p2533
I1
sS'exclude'
p2534
F0.5
sS'try-finally'
p2535
F0.5
sS'visual-studio-debugging'
p2536
F0.5
sS'cllocationmanager'
p2537
F0.5
sS'tapestry'
p2538
F0.6
sS'axis'
p2539
F0.5
sS'git-commit'
p2540
F0.7
sS'csh'
p2541
F0.5
sS'axis2'
p2542
I0
sS'apache2'
p2543
F0.2
sS'blackberry-editfield'
p2544
F0.5
sS'mapi'
p2545
I0
sS'pattern-matching'
p2546
I1
sS'csc'
p2547
F0.5
sS'visual-studio-express'
p2548
F0.5
sS'maps'
p2549
F0.5
sS'null-terminated'
p2550
F0.5
sS'pygame'
p2551
F0.1
sS'machine-learning'
p2552
I1
sS'masstransit'
p2553
I0
sS'mutable'
p2554
F0.4
sS'matplotlib-basemap'
p2555
F0.5
sS'csv'
p2556
I0
sS'opengl-es-2.0'
p2557
F0.5
sS'textview'
p2558
I1
sS'idisposable'
p2559
I0
sS'placement-new'
p2560
I0
sS'capture'
p2561
I1
sS'powerbuilder'
p2562
F0.5
sS'excel-2010'
p2563
F0.5
sS'objdump'
p2564
F0.5
sS'extjs4.1'
p2565
F0.3
sS'resultset'
p2566
I1
sS'mapping'
p2567
I0
sS'sikuli'
p2568
F0.5
sS'rbac'
p2569
F0.5
sS'xul'
p2570
I0
sS'plane'
p2571
F0.5
sS'coldfusion-9'
p2572
F0.3
sS'coldfusion-8'
p2573
F0.5
sS'bioinformatics'
p2574
I1
sS'iasyncresult'
p2575
F0.5
sS'lazy-loading'
p2576
F0.1
sS'freepascal'
p2577
F0.2
sS'response'
p2578
F0.5
sS'text-editor'
p2579
F0.5
sS'scss'
p2580
F0.5
sS'argparse'
p2581
F0.5
sS'appcelerator-mobile'
p2582
I0
sS'github'
p2583
I1
sS'android-dialog'
p2584
F0.5
sS'sse2'
p2585
F0.5
sS'prerequisites'
p2586
F0.5
sS'lookahead'
p2587
F0.5
sS'documentation'
p2588
F0.5
sS'wav'
p2589
I1
sS'parameterized'
p2590
F0.5
sS'django'
p2591
I1
sS'fixed-point'
p2592
F0.5
sS'callback'
p2593
I1
sS'java.util.date'
p2594
F0.5
sS'hsqldb'
p2595
F0.5
sS'iis-express'
p2596
F0.5
sS'nvidia'
p2597
I0
sS'cs5'
p2598
F0.5
sS'inline'
p2599
I1
sS'egg'
p2600
F0.5
sS'servlets'
p2601
I1
sS'blackberry-playbook'
p2602
F0.5
sS'uninstall'
p2603
F0.5
sS'deserialization'
p2604
I0
sS'photoshop'
p2605
I1
sS'checkbox'
p2606
I1
sS'2d-array'
p2607
I1
sS'hierarchy'
p2608
F0.5
sS'xmpp'
p2609
F0.5
sS'fft'
p2610
F0.1
sS'asp.net-4.0'
p2611
F0.2
sS'priority-queue'
p2612
I1
sS'ssh-keys'
p2613
I0
sS'mixing'
p2614
F0.5
sS'producer-consumer'
p2615
F0.5
sS'observablecollection'
p2616
I0
sS'knapsack-problem'
p2617
F0.5
sS'code-generation'
p2618
F0.2
sS'concrete5'
p2619
F0.5
sS'installer'
p2620
F0.3
sS'forms-authentication'
p2621
F0.3
sS'custom-controls'
p2622
F0.5
sS'mongodb-query'
p2623
F0.5
sS'readonly'
p2624
F0.5
sS'streamwriter'
p2625
I1
sS'infinite-loop'
p2626
F0.5
sS'conversion-operator'
p2627
I1
sS'overhead'
p2628
F0.5
sS'psycopg2'
p2629
I0
sS'sqldf'
p2630
F0.5
sS'selenium'
p2631
I0
sS'filechannel'
p2632
F0.5
sS'continuations'
p2633
F0.5
sS'html'
p2634
I1
sS'dynamic-memory-allocation'
p2635
I1
sS'version'
p2636
F0.7
sS'pcm'
p2637
F0.5
sS'mcrypt'
p2638
F0.5
sS'starteam'
p2639
F0.5
sS'nmap'
p2640
F0.5
sS'arguments'
p2641
I1
sS'type-providers'
p2642
I1
sS'return'
p2643
I1
sS'internationalization'
p2644
F0.4
sS'playframework'
p2645
I0
sS'stackpanel'
p2646
F0.9
sS'timestamp'
p2647
I1
sS'sencha-touch'
p2648
F0.3
sS'internet-explorer'
p2649
I1
sS'show-hide'
p2650
F0.2
sS'jruby'
p2651
F0.2
sS'getelementbyid'
p2652
F0.5
sS'ms-access-2010'
p2653
F0.4
sS'ms-office'
p2654
F0.5
sS'tortoisegit'
p2655
F0.5
sS'game-engine'
p2656
I1
sS'amazon-ec2'
p2657
F0.5
sS'google-earth-plugin'
p2658
F0.5
sS'microsoft-test-manager'
p2659
F0.5
sS'cloudflare'
p2660
F0.5
sS'r5rs'
p2661
F0.4
sS'assemblies'
p2662
F0.5
sS'gitlab'
p2663
F0.5
sS'nservicebus'
p2664
I1
sS'refresh'
p2665
F0.5
sS'gradle'
p2666
I0
sS'2d'
p2667
F0.5
sS'token'
p2668
F0.8
sS'innodb'
p2669
F0.2
sS'fadeout'
p2670
F0.5
sS'windows-phone'
p2671
I1
sS'jmeter'
p2672
I0
sS'listgrid'
p2673
I0
sS'gpu-programming'
p2674
I1
sS'outputstream'
p2675
F0.5
sS'stored-procedures'
p2676
I1
sS'operator-precedence'
p2677
F0.5
sS'fluent-interface'
p2678
I1
sS'jaws'
p2679
F0.5
sS'qr-code'
p2680
F0.5
sS'reduce'
p2681
F0.5
sS'ocunit'
p2682
F0.5
sS'crontab'
p2683
F0.5
sS'jtogglebutton'
p2684
F0.5
sS'virtuemart'
p2685
I0
sS'expandablelistview'
p2686
F0.5
sS'single-sign-on'
p2687
I0
sS'expect'
p2688
F0.6
sS'fbo'
p2689
F0.5
sS'neo4j'
p2690
F0.5
sS'content-management-system'
p2691
I0
sS'search'
p2692
I1
sS'treemodel'
p2693
F0.5
sS'ko.observablearray'
p2694
F0.5
sS'ftp'
p2695
F0.8
sS'rstudio'
p2696
I1
sS'join'
p2697
I1
sS'sencha'
p2698
F0.9
sS'preg-replace'
p2699
F0.4
sS'publish'
p2700
F0.5
sS'directx-11'
p2701
F0.5
sS'spacing'
p2702
I1
sS'cpu-architecture'
p2703
F0.5
sS'task-queue'
p2704
F0.5
sS'exec'
p2705
I1
sS'db2400'
p2706
F0.5
sS'for-comprehension'
p2707
F0.5
sS'tampermonkey'
p2708
F0.5
sS'sqlcommand'
p2709
I0
sS'netbeans'
p2710
F0.5
sS'dotnetnuke'
p2711
F0.5
sS'bluetooth-lowenergy'
p2712
F0.5
sS'autofac'
p2713
F0.5
sS'dynamics-crm-2011'
p2714
F0.2
sS'bing-maps-api'
p2715
F0.3
sS'intrinsics'
p2716
F0.5
sS'localization'
p2717
F0.2
sS'ios'
p2718
I1
sS'side-effects'
p2719
I1
sS'sqldatatypes'
p2720
F0.5
sS'haskell-platform'
p2721
F0.5
sS'proxy'
p2722
F0.8
sS'members'
p2723
F0.5
sS'css'
p2724
I1
sS'put'
p2725
F0.5
sS'basm'
p2726
F0.5
sS'sicstus-prolog'
p2727
F0.6
sS'bash'
p2728
F0.2
sS'kol'
p2729
F0.5
sS'definition'
p2730
F0.5
sS'pyyaml'
p2731
F0.5
sS'launch'
p2732
F0.5
sS'drupal'
p2733
F0.6
sS'django-forms'
p2734
I0
sS'positioning'
p2735
F0.1
sS'round'
p2736
F0.5
sS'django-models'
p2737
F0.2
sS'edges'
p2738
I1
sS'imacros'
p2739
F0.5
sS'div-layouts'
p2740
F0.5
sS'assign'
p2741
F0.5
sS'gnumakefiles'
p2742
F0.5
sS'singleton'
p2743
I1
sS'ios-simulator'
p2744
I1
sS'cakephp-2.2'
p2745
I1
sS'probability'
p2746
F0.6
sS'encoding'
p2747
I1
sS'parallel.foreach'
p2748
I0
sS'emacs23'
p2749
F0.2
sS'kext'
p2750
I0
sS'dotnet-httpclient'
p2751
F0.5
sS'operator-overloading'
p2752
I0
sS'windows-runtime'
p2753
I0
sS'jogl'
p2754
F0.5
sS'notify'
p2755
F0.9
sS'htc'
p2756
F0.5
sS'servicebus'
p2757
F0.5
sS'lucene-index'
p2758
F0.5
sS'xml-namespaces'
p2759
F0.5
sS'cfwheels'
p2760
F0.5
sS'gpl'
p2761
F0.5
sS'razor'
p2762
F0.3
sS'connection-pooling'
p2763
F0.6
sS'core.autocrlf'
p2764
F0.5
sS'compile-time-constant'
p2765
F0.5
sS'jet'
p2766
F0.5
sS'pandoc'
p2767
F0.5
sS'photoshop-script'
p2768
I0
sS'binaryfiles'
p2769
F0.5
sS'jetty'
p2770
F0.5
sS'effective-java'
p2771
F0.5
sS'sublimetext2'
p2772
I0
sS'spock'
p2773
F0.5
sS'silverstripe'
p2774
F0.6
sS'statement'
p2775
F0.5
sS'cluster-analysis'
p2776
F0.3
sS'show'
p2777
F0.5
sS'weblogic'
p2778
F0.4
sS'zeromq'
p2779
F0.1
sS'scheme'
p2780
F0.6
sS'store'
p2781
F0.5
sS'schema'
p2782
I0
sS'fortran77'
p2783
F0.5
sS'surefire'
p2784
F0.5
sS'glasspane'
p2785
F0.5
sS'option'
p2786
F0.5
sS'relationship'
p2787
F0.5
sS'bsxfun'
p2788
F0.5
sS'cross-browser'
p2789
F0.8
sS'informatica-powercenter'
p2790
I1
sS'expression-trees'
p2791
F0.1
sS'filesystems'
p2792
I1
sS'core-image'
p2793
F0.5
sS'gpu'
p2794
F0.5
sS'moq'
p2795
F0.2
sS'methodinfo'
p2796
F0.5
sS'translation'
p2797
I0
sS'html-select'
p2798
F0.5
sS'serializable'
p2799
F0.5
sS'tfs'
p2800
I1
sS'alfresco'
p2801
F0.5
sS'tortoisehg'
p2802
F0.5
sS'activity'
p2803
I1
sS'grep'
p2804
I0
sS'phpmailer'
p2805
F0.5
sS'return-type'
p2806
F0.5
sS'stl'
p2807
I1
sS'.htaccess'
p2808
I1
sS'mono.addins'
p2809
F0.5
sS'dts'
p2810
I1
sS'liferay-theme'
p2811
F0.5
sS'gps'
p2812
I1
sS'virtual-destructor'
p2813
F0.5
sS'phpunit'
p2814
I0
sS'debugging'
p2815
I1
sS'input-validation'
p2816
F0.5
sS'uiscrollview'
p2817
I1
sS'bho'
p2818
F0.1
sS'flexigrid'
p2819
F0.5
sS'chipmunk'
p2820
F0.5
sS'pinvoke'
p2821
F0.6
sS'mootools'
p2822
F0.7
sS'bitwise'
p2823
I1
sS'python-module'
p2824
F0.5
sS'wysiwyg'
p2825
F0.5
sS'nsurl'
p2826
F0.5
sS'jasper-reports'
p2827
F0.4
sS'monodroid'
p2828
F0.5
sS'pyodbc'
p2829
F0.5
sS'null'
p2830
I1
sS'dynamics'
p2831
F0.5
sS'nutch'
p2832
F0.5
sS'image-icon'
p2833
F0.5
sS'drop-down-menu'
p2834
I1
sS'tortoisesvn'
p2835
F0.7
sS'windows-phone-8'
p2836
I1
sS'fltk'
p2837
F0.5
sS'self'
p2838
I1
sS'windows-phone-7'
p2839
I1
sS'tinymce'
p2840
I0
sS'python-2.6'
p2841
I1
sS'port'
p2842
I1
sS'dynamics-crm-online'
p2843
F0.5
sS'onclick'
p2844
I1
sS'teechart'
p2845
I0
sS'breeze'
p2846
F0.5
sS'build'
p2847
F0.4
sS'sharepoint-2010'
p2848
I1
sS'openshift'
p2849
I0
sS'symfony2'
p2850
I0
sS'bde'
p2851
F0.5
sS'jsf'
p2852
F0.2
sS'flash-builder4.5'
p2853
I0
sS'components'
p2854
F0.1
sS'index'
p2855
I1
sS'bug-tracking'
p2856
F0.5
sS'data.frame'
p2857
I0
sS'nsoperationqueue'
p2858
I1
sS'linq-to-xml'
p2859
F0.1
sS'sts-springsourcetoolsuite'
p2860
F0.5
sS'static-constructor'
p2861
F0.5
sS'jsp'
p2862
F0.5
sS'cygwin'
p2863
F0.5
sS'myisam'
p2864
F0.5
sS'jpql'
p2865
F0.1
sS'sharding'
p2866
F0.5
sS'alpha'
p2867
I1
sS'shared-objects'
p2868
I1
sS'selector'
p2869
I1
sS'qthread'
p2870
F0.5
sS'pdfbox'
p2871
F0.5
sS'd3.js'
p2872
F0.2
sS'exe'
p2873
F0.5
sS'crosstab'
p2874
F0.5
sS'executable-jar'
p2875
F0.5
sS'mathematical-optimization'
p2876
I1
sS'mobile'
p2877
I1
sS'init'
p2878
F0.5
sS'gin'
p2879
F0.5
sS'nsdateformatter'
p2880
F0.5
sS'phonegap'
p2881
I1
sS'getter'
p2882
F0.5
sS'geckofx'
p2883
F0.5
sS'velocity'
p2884
F0.5
sS'ironpython'
p2885
F0.5
sS'microsoft'
p2886
I1
sS'android-arrayadapter'
p2887
F0.5
sS'httphandler'
p2888
F0.5
sS'wsgi'
p2889
F0.5
sS'rtc'
p2890
F0.1
sS'compact-framework'
p2891
F0.5
sS'google-tv'
p2892
F0.5
sS'xcode'
p2893
I1
sS'binary-tree'
p2894
I0
sS'tastypie'
p2895
F0.5
sS'scrollview'
p2896
F0.8
sS'node.js'
p2897
I1
sS'circular-dependency'
p2898
I1
sS'session'
p2899
I1
sS'rtp'
p2900
F0.5
sS'networkx'
p2901
F0.5
sS'entity'
p2902
F0.5
sS'name-mangling'
p2903
F0.5
sS'find'
p2904
I0
sS'hornetq'
p2905
F0.5
sS'nscoding'
p2906
F0.5
sS'drupal-modules'
p2907
F0.1
sS'cell'
p2908
I0
sS'elliptic-curve'
p2909
F0.5
sS'in-app-purchase'
p2910
F0.1
sS'parameters'
p2911
I1
sS'hdfs'
p2912
F0.5
sS'parallel-extensions'
p2913
F0.5
sS'stress-testing'
p2914
I0
sS'distributed'
p2915
F0.5
sS'fileapi'
p2916
F0.5
sS'google-play'
p2917
I1
sS'html-dom'
p2918
F0.5
sS'maven-surefire-plugin'
p2919
F0.5
sS'factor'
p2920
F0.5
sS'backbone-events'
p2921
I1
sS'circle'
p2922
I1
sS'jdom'
p2923
F0.1
sS'template-specialization'
p2924
F0.3
sS'jquery'
p2925
F0.2
sS'cell-array'
p2926
F0.8
sS'web-browser'
p2927
I1
sS'joomla-extensions'
p2928
I0
sS'scala-collections'
p2929
I1
sS'express'
p2930
I1
sS'js-test-driver'
p2931
F0.7
sS'computer-architecture'
p2932
I1
sS'synchronization'
p2933
F0.2
sS'data-access-layer'
p2934
F0.5
sS'.each'
p2935
F0.5
sS'sitecore6'
p2936
I1
sS'cloud9-ide'
p2937
F0.5
sS'xml-parsing'
p2938
I0
sS'continuous-integration'
p2939
F0.8
sS'egit'
p2940
I0
sS'roles'
p2941
F0.5
sS'activiti'
p2942
F0.5
sS'tcl'
p2943
I0
sS'crc'
p2944
F0.5
sS'graph-databases'
p2945
F0.5
sS'double'
p2946
F0.5
sS'cmdlet'
p2947
F0.5
sS'factory-girl'
p2948
I0
sS'git-rebase'
p2949
F0.5
sS'crm'
p2950
F0.5
sS'function-calls'
p2951
F0.5
sS'set'
p2952
I1
sS'equinox'
p2953
F0.5
sS'unicode'
p2954
I0
sS'seq'
p2955
F0.5
sS'text-files'
p2956
I1
sS'locale'
p2957
F0.5
sS'iteration'
p2958
F0.3
sS'core-audio'
p2959
F0.1
sS'mongoose'
p2960
F0.7
sS'webgrid'
p2961
F0.5
sS'web-services'
p2962
I0
sS'culture'
p2963
F0.5
sS'sed'
p2964
I0
sS'migration'
p2965
F0.5
sS'to-date'
p2966
F0.5
sS'seo'
p2967
I0
sS'move-semantics'
p2968
I0
sS'opencart'
p2969
F0.7
sS'arm'
p2970
I0
sS'sequences'
p2971
F0.4
sS'fullscreen'
p2972
F0.5
sS'openrasta'
p2973
F0.5
sS'evaluation'
p2974
F0.5
sS'decltype'
p2975
I1
sS'tlistview'
p2976
F0.5
sS'protobuf-net'
p2977
F0.5
sS'define'
p2978
I0
sS'scala-java-interop'
p2979
F0.5
sS'keypress'
p2980
F0.5
sS'precision'
p2981
F0.5
sS'itunesconnect'
p2982
F0.3
sS'railo'
p2983
I1
sS'jvm-hotspot'
p2984
F0.5
sS'unions'
p2985
I1
sS'mutex'
p2986
I0
sS'xna-4.0'
p2987
I0
sS'clisp'
p2988
F0.5
sS'screen-orientation'
p2989
I1
sS'ms-access'
p2990
F0.6
sS'displaytag'
p2991
F0.5
sS'popup'
p2992
F0.2
sS'imagemagick'
p2993
F0.5
sS'xslt'
p2994
F0.5
sS'fold'
p2995
F0.5
sS'japplet'
p2996
F0.5
sS'javascript'
p2997
F0.2
sS'custom-attributes'
p2998
F0.5
sS'scalability'
p2999
F0.5
sS'parser-combinators'
p3000
F0.5
sS'integration-testing'
p3001
F0.1
sS'swt'
p3002
I0
sS'mirth'
p3003
F0.5
sS'interface'
p3004
F0.1
sS'sql-server-ce'
p3005
F0.1
sS'pcap'
p3006
F0.1
sS'4gl'
p3007
F0.5
sS'metaprogramming'
p3008
F0.6
sS'modalviewcontroller'
p3009
F0.5
sS'c'
p3010
F0.1
sS'binary-data'
p3011
F0.5
sS'folding'
p3012
F0.5
sS'sfinae'
p3013
F0.5
sS'boto'
p3014
F0.5
sS'hyperlink'
p3015
I1
sS'gae-datastore'
p3016
I1
sS'arraylist'
p3017
I0
sS'primary-key'
p3018
F0.1
sS'pdo'
p3019
I1
sS'if-statement'
p3020
I1
sS'connection'
p3021
F0.4
sS'accurev'
p3022
F0.5
sS'context'
p3023
I1
sS'azure-storage-blobs'
p3024
I0
sS'pdf'
p3025
F0.4
sS'pde'
p3026
F0.5
sS'mean'
p3027
I1
sS'ejabberd'
p3028
I1
sS'dynamics-ax-2012'
p3029
F0.5
sS'load'
p3030
I0
sS'geolocation'
p3031
I1
sS'markdown'
p3032
F0.5
sS'ruby-on-rails-3'
p3033
I1
sS'array-push'
p3034
F0.5
sS'datediff'
p3035
F0.5
sS'box-api'
p3036
F0.5
sS'ios5'
p3037
I1
sS'rad'
p3038
F0.5
sS'exception-handling'
p3039
I1
sS'key'
p3040
F0.3
sS'header'
p3041
I1
sS'agents'
p3042
F0.3
sS'pointfree'
p3043
I1
sS'linux'
p3044
I1
sS'zurb-foundation'
p3045
F0.5
sS'mylyn'
p3046
I0
sS'listselectionlistener'
p3047
F0.7
sS'asdf'
p3048
F0.5
sS'dataimporthandler'
p3049
F0.5
sS'ps'
p3050
I0
sS'facebook-fql'
p3051
F0.5
sS'java'
p3052
F0.1
sS'shopify'
p3053
I0
sS'exc-bad-access'
p3054
F0.5
sS'swc'
p3055
F0.5
sS'rewrite'
p3056
F0.5
sS'wso2esb'
p3057
F0.5
sS'destructor'
p3058
F0.1
sS'embedded-linux'
p3059
F0.6
sS'extension-methods'
p3060
I1
sS'special-characters'
p3061
F0.2
sS'asp.net-mvc-routing'
p3062
F0.4
sS'variable-scope'
p3063
I1
sS'dup'
p3064
F0.5
sS'adb'
p3065
F0.4
sS'will-paginate'
p3066
F0.5
sS'data-binding'
p3067
F0.1
sS'po'
p3068
F0.5
sS'automation'
p3069
F0.6
sS'font-lock'
p3070
F0.5
sS'nsdate'
p3071
F0.1
sS'google-chrome'
p3072
I1
sS'kerberos'
p3073
F0.1
sS'gas'
p3074
F0.5
sS'covariance'
p3075
F0.5
sS'rspec'
p3076
I1
sS'multidimensional-array'
p3077
I1
sS'overloading'
p3078
I0
sS'serversocket'
p3079
I0
sS'yii-mvc'
p3080
F0.5
sS'func'
p3081
F0.5
sS'matlab-deployment'
p3082
F0.5
sS'rdtsc'
p3083
F0.5
sS'anyevent'
p3084
F0.5
sS'gac'
p3085
F0.5
sS'imap'
p3086
I0
sS'p2'
p3087
F0.5
sS'appmobi'
p3088
F0.5
sS'ravendb'
p3089
F0.2
sS'comparator'
p3090
F0.4
sS'responsive-design'
p3091
F0.1
sS'partial-views'
p3092
F0.5
sS'project-euler'
p3093
F0.1
sS'visual-studio-lightswitch'
p3094
F0.5
sS'optimization'
p3095
I1
sS'directoryservices'
p3096
F0.5
sS'screen-size'
p3097
F0.5
sS'shift'
p3098
F0.6
sS'spring-webflow'
p3099
F0.5
sS'clearcase'
p3100
I0
sS'bookmarklet'
p3101
F0.5
sS'teamcity'
p3102
F0.2
sS'prolog'
p3103
I0
sS'boost-phoenix'
p3104
F0.5
sS'malloc'
p3105
I1
sS'increment'
p3106
I1
sS'jpa'
p3107
I1
sS'gmock'
p3108
F0.5
sS'calculator'
p3109
F0.5
sS'binding'
p3110
I1
sS'facelets'
p3111
F0.1
sS'activex'
p3112
F0.5
sS'numerical'
p3113
F0.5
sS'hover'
p3114
I1
sS'symfony-1.4'
p3115
I0
sS'member-function-pointers'
p3116
F0.5
sS'skype'
p3117
F0.4
sS'format-specifiers'
p3118
I1
sS'signal-processing'
p3119
F0.5
sS'activesupport'
p3120
F0.5
sS'vaadin'
p3121
F0.5
sS'updatepanel'
p3122
F0.4
sS'dunit'
p3123
F0.5
sS'cclayer'
p3124
F0.5
sS'libcurl'
p3125
F0.5
sS'webgl'
p3126
F0.1
sS'x64'
p3127
F0.5
sS'qcar-sdk'
p3128
I1
sS'phonegap-plugins'
p3129
F0.5
sS'coffeescript'
p3130
F0.2
sS'google-visualization'
p3131
F0.5
sS'jpa-2.0'
p3132
F0.3
sS'tablet'
p3133
F0.5
sS'texture2d'
p3134
F0.5
sS'geoserver'
p3135
F0.5
sS'zope'
p3136
F0.6
sS'matlab-figure'
p3137
F0.1
sS'real-world-haskell'
p3138
F0.5
sS'string.format'
p3139
F0.5
sS'composition'
p3140
I1
sS'shiro'
p3141
F0.5
sS'interpolation'
p3142
F0.5
sS'facebook-timeline'
p3143
F0.5
sS'passwords'
p3144
I1
sS'temporary'
p3145
F0.8
sS'x86'
p3146
F0.1
sS'applicative'
p3147
F0.5
sS'freebase'
p3148
F0.5
sS'automatic-ref-counting'
p3149
I1
sS'android-sqlite'
p3150
I1
sS'vcl'
p3151
I0
sS'alert'
p3152
I1
sS'css-transition'
p3153
I0
sS'cucumber'
p3154
F0.3
sS'user'
p3155
F0.5
sS'static-methods'
p3156
I1
sS'aggregate'
p3157
F0.5
sS'mips'
p3158
F0.1
sS'prettify'
p3159
F0.4
sS'amf'
p3160
I1
sS'tsql'
p3161
F0.2
sS'stack'
p3162
I1
sS'ssrs-2008'
p3163
F0.5
sS'gsp'
p3164
F0.5
sS'sha1'
p3165
F0.5
sS'tasm'
p3166
F0.1
sS'ampl'
p3167
F0.5
sS'database'
p3168
I1
sS'navigation'
p3169
I1
sS'blackberry-simulator'
p3170
F0.5
sS'getelementsbyclassname'
p3171
F0.5
sS'memoization'
p3172
I1
sS'analysis'
p3173
F0.8
sS'opencms'
p3174
I0
sS'delphi-prism'
p3175
F0.5
sS'googletest'
p3176
F0.5
sS'flags'
p3177
F0.5
sS'normals'
p3178
F0.5
sS'grid'
p3179
F0.3
sS'gsm'
p3180
F0.5
sS'ultragrid'
p3181
F0.5
sS'c++builder'
p3182
I1
sS'packet-sniffers'
p3183
F0.5
sS'jtree'
p3184
I0
sS'decimal'
p3185
I1
sS'distutils'
p3186
I0
sS'antlr'
p3187
F0.1
sS'python-2.7'
p3188
I1
sS'user-defined-functions'
p3189
F0.1
sS'puzzle'
p3190
F0.5
sS'chromedriver'
p3191
F0.5
sS'writeablebitmap'
p3192
F0.5
sS'office-interop'
p3193
F0.2
sS'unique-constraint'
p3194
F0.5
sS'mysql'
p3195
I1
sS'spring-transactions'
p3196
F0.5
sS'conditional-compilation'
p3197
F0.5
sS'jdeveloper'
p3198
I0
sS'indexes'
p3199
F0.5
sS'alignment'
p3200
F0.4
sS'dynamics-ax'
p3201
F0.5
sS'hello-world'
p3202
F0.5
sS'libpcap'
p3203
F0.5
sS'keyevent'
p3204
F0.5
sS'quicklisp'
p3205
F0.5
sS'ormlite'
p3206
F0.5
sS'numeric'
p3207
I1
sS'signals'
p3208
F0.5
sS'signalr'
p3209
F0.2
sS'rgb'
p3210
F0.5
sS'siteedit'
p3211
F0.5
sS'location'
p3212
F0.7
sS'joosy'
p3213
F0.5
sS'input'
p3214
I0
sS'executorservice'
p3215
I0
sS'reportviewer'
p3216
F0.5
sS'transformation'
p3217
I0
sS'finder'
p3218
F0.1
sS'hamcrest'
p3219
F0.3
sS'vmware'
p3220
F0.5
sS'virtual-memory'
p3221
F0.5
sS'game-physics'
p3222
F0.5
sS'varchar'
p3223
I1
sS'jcomponent'
p3224
F0.3
sS'finalize'
p3225
I1
sS'format'
p3226
I1
sS'aggregation'
p3227
F0.3
sS'header-files'
p3228
F0.4
sS'spring-data-neo4j'
p3229
I1
sS'quest'
p3230
F0.2
sS'uiviewanimation'
p3231
I0
sS'insert'
p3232
I1
sS'augmented-reality'
p3233
F0.3
sS'integer'
p3234
I1
sS'bit'
p3235
F0.7
sS'enumerable'
p3236
F0.5
sS'ifstream'
p3237
F0.5
sS'linqpad'
p3238
F0.1
sS'documentum'
p3239
F0.5
sS'memory'
p3240
I1
sS'd'
p3241
F0.1
sS'sql-server-2012'
p3242
F0.1
sS'scapy'
p3243
F0.5
sS'nsview'
p3244
F0.5
sS'manifest'
p3245
F0.5
sS'ignore'
p3246
F0.5
sS'surfaceview'
p3247
I1
sS'api'
p3248
I1
sS'quicksort'
p3249
F0.5
sS'wordpress-plugin-dev'
p3250
I0
sS'android-screen-support'
p3251
F0.5
sS'mapkit'
p3252
I0
sS'variant'
p3253
I0
sS'terminology'
p3254
F0.5
sS'branching-and-merging'
p3255
F0.5
sS'methods'
p3256
I1
sS'class-diagram'
p3257
F0.5
sS'dllimport'
p3258
I1
sS'delayed-job'
p3259
F0.5
sS'google-api'
p3260
I1
sS'openjpa'
p3261
F0.5
sS'same-origin-policy'
p3262
F0.5
sS'svnant'
p3263
F0.7
sS'streaming'
p3264
I1
sS'wxpython'
p3265
I0
sS'slice'
p3266
F0.8
sS'simple-form'
p3267
F0.2
sS'apply'
p3268
F0.9
sS'group-by'
p3269
I1
sS'web-frameworks'
p3270
I1
sS'android-actionbar'
p3271
I1
sS'jquery-tablesorter'
p3272
F0.5
sS'virtualenv'
p3273
F0.5
sS'read-eval-print-loop'
p3274
I1
sS'netbeans-platform'
p3275
F0.3
sS'cvs2svn'
p3276
F0.5
sS'glibc'
p3277
F0.5
sS'warnings'
p3278
F0.4
sS'integration'
p3279
F0.6
sS'layout-manager'
p3280
F0.5
sS'maven-assembly-plugin'
p3281
F0.5
sS'market'
p3282
F0.3
sS'erlang'
p3283
F0.5
sS'robotium'
p3284
F0.7
sS'framebuffer'
p3285
F0.5
sS'iphone-web-app'
p3286
F0.3
sS'epic'
p3287
F0.5
sS'notepad++'
p3288
F0.5
sS'glob'
p3289
I1
sS'nose'
p3290
F0.5
sS'cgi'
p3291
F0.4
sS'telerik'
p3292
F0.7
sS'teradata'
p3293
F0.5
sS'newline'
p3294
I1
sS'run'
p3295
I1
sS'objective-c-blocks'
p3296
I1
sS'export-to-excel'
p3297
F0.5
sS'git-submodules'
p3298
F0.5
sS'processing'
p3299
F0.1
sS'method-overloading'
p3300
F0.4
sS'use'
p3301
F0.5
sS'django-haystack'
p3302
F0.5
sS'jdbctemplate'
p3303
F0.5
sS'asp.net-web-api'
p3304
I1
sS'wget'
p3305
F0.5
sS'wsdl'
p3306
F0.5
sS'diazo'
p3307
F0.5
sS'usb'
p3308
F0.1
sS'rapidminer'
p3309
F0.5
sS'grand-central-dispatch'
p3310
I0
sS'certificate'
p3311
I0
sS'relational-database'
p3312
F0.3
sS'text-mining'
p3313
I1
sS'github-api'
p3314
F0.5
sS'asmack'
p3315
F0.5
sS'sql-order-by'
p3316
I1
sS'idl'
p3317
F0.5
sS'dialog'
p3318
F0.2
sS'syntactic-sugar'
p3319
I1
sS'messaging'
p3320
I1
sS'webview'
p3321
I1
sS'ide'
p3322
F0.5
sS'socketchannel'
p3323
F0.8
sS'block'
p3324
I0
sS'unmarshalling'
p3325
F0.5
sS'hudson'
p3326
I1
sS'real-time'
p3327
F0.5
sS'makefile'
p3328
I1
sS'active-directory'
p3329
I0
sS'tiff'
p3330
I0
sS'crash'
p3331
I1
sS'media-player'
p3332
F0.5
sS'gtkmm'
p3333
F0.5
sS'tridion2009'
p3334
F0.5
sS'web-crawler'
p3335
I0
sS'perl'
p3336
I1
sS'pcre'
p3337
F0.3
sS'asp.net-mvc'
p3338
I1
sS'span'
p3339
I0
sS'propel'
p3340
F0.5
sS'spam'
p3341
I1
sS'openerp'
p3342
F0.1
sS'jax-rs'
p3343
I0
sS'sequence'
p3344
I1
sS'stylesheet'
p3345
F0.7
sS'submit'
p3346
I1
sS'u2'
p3347
F0.5
sS'heroku'
p3348
I0
sS'mstest'
p3349
I1
sS'dynamics-ax-2009'
p3350
F0.5
sS'static-linking'
p3351
F0.5
sS'associations'
p3352
F0.6
sS'coderush'
p3353
I0
sS'twitter'
p3354
F0.5
sS'xpath'
p3355
F0.3
sS'document.ready'
p3356
F0.4
sS'sizzle'
p3357
F0.5
sS'lucene.net'
p3358
F0.2
sS'c#-5.0'
p3359
F0.5
sS'c-strings'
p3360
F0.5
sS'linq'
p3361
I1
sS'encode'
p3362
F0.5
sS'atoi'
p3363
I1
sS'readdir'
p3364
I1
sS'branch'
p3365
F0.1
sS'sdl'
p3366
F0.2
sS'line'
p3367
F0.5
sS'requestfactory'
p3368
F0.5
sS'sdk'
p3369
I1
sS'groovy'
p3370
I0
sS'utc'
p3371
F0.5
sS'partitioning'
p3372
F0.5
sS'android-contacts'
p3373
F0.5
sS'wait'
p3374
I1
sS'propertychangelistener'
p3375
I1
sS'middleware'
p3376
F0.5
sS'gstreamer'
p3377
F0.1
sS'floating-accuracy'
p3378
I1
sS'cin'
p3379
F0.2
sS'dynamic'
p3380
I0
sS'cil'
p3381
F0.3
sS'server-side'
p3382
F0.5
sS'labview'
p3383
F0.5
sS'rubymotion'
p3384
F0.5
sS'visualsvn-server'
p3385
F0.6
sS'std-pair'
p3386
I1
sS'virtualtreeview'
p3387
F0.5
sS'execvp'
p3388
F0.5
sS'pure-virtual'
p3389
F0.5
sS'classloader'
p3390
I0
sS'quickfix'
p3391
I0
sS'operating-system'
p3392
I1
sS'business-intelligence'
p3393
I0
sS'hash'
p3394
F0.5
sS'domxpath'
p3395
F0.5
sS'fread'
p3396
F0.5
sS'unsafe'
p3397
F0.9
sS'accessibility'
p3398
F0.5
sS'char'
p3399
I1
sS'tomcat6'
p3400
F0.5
sS'xslt-1.0'
p3401
I1
sS'jpopup'
p3402
F0.5
sS'oauth-2.0'
p3403
F0.1
sS'nsuserdefaults'
p3404
F0.5
sS'rally'
p3405
I0
sS'parsec'
p3406
F0.2
sS'dbgrid'
p3407
F0.5
sS'user-experience'
p3408
I1
sS'cross-compiling'
p3409
F0.6
sS'vsto'
p3410
F0.2
sS'cmake'
p3411
I0
sS'amqp'
p3412
F0.7
sS'gnuplot'
p3413
F0.5
sS'strtol'
p3414
I1
sS'variadic-functions'
p3415
F0.5
sS'epoll'
p3416
F0.5
sS'nan'
p3417
F0.2
sS'jce'
p3418
F0.5
sS'scrapy'
p3419
I0
sS'nav'
p3420
I1
sS'igraph'
p3421
F0.5
sS'jcl'
p3422
F0.5
sS'get-childitem'
p3423
F0.6
sS'pandas'
p3424
I0
sS'draw'
p3425
I1
sS'llvm'
p3426
F0.1
sS'memory-mapped-files'
p3427
F0.2
sS'linear-regression'
p3428
F0.5
sS'mongodb'
p3429
I1
sS'scrum'
p3430
F0.5
sS'coldfusion-10'
p3431
F0.1
sS'caching'
p3432
I1
sS'public'
p3433
I1
sS'libtool'
p3434
F0.3
sS'visibility'
p3435
F0.5
sS'eval'
p3436
I0
sS'drupal-views'
p3437
F0.5
sS'linq-to-sql'
p3438
I1
sS'buildout'
p3439
F0.5
sS'outlook-vba'
p3440
I0
sS'structure'
p3441
F0.7
sS'expressionengine'
p3442
I0
sS'svn'
p3443
F0.2
sS'webdriver'
p3444
I0
sS'plotmath'
p3445
F0.5
sS'windows-phone-7.1'
p3446
F0.1
sS'jradiobutton'
p3447
I0
sS'svg'
p3448
F0.2
sS'uploadify'
p3449
F0.5
sS'system-calls'
p3450
F0.5
sS'youtube'
p3451
I0
sS'facebook-iframe'
p3452
F0.5
sS'divide-and-conquer'
p3453
F0.5
sS'jpanel'
p3454
I1
sS'dot'
p3455
F0.5
sS'ternary'
p3456
F0.5
sS'leak'
p3457
I1
sS'oracle'
p3458
F0.2
sS'selenium-rc'
p3459
F0.5
sS'specs2'
p3460
F0.5
sS'for-in-loop'
p3461
F0.5
sS'oop'
p3462
F0.3
sS'log4net'
p3463
I0
sS'getaddrinfo'
p3464
F0.5
sS'msbuild'
p3465
F0.2
sS'scons'
p3466
F0.1
sS'hashmap'
p3467
F0.3
sS'tstringlist'
p3468
F0.2
sS'redis'
p3469
F0.5
sS'intersystems-cache'
p3470
F0.5
sS'json.net'
p3471
F0.5
sS'bigdata'
p3472
F0.5
sS'bioconductor'
p3473
I0
sS'google-drive'
p3474
F0.5
sS'gd'
p3475
F0.5
sS'ggplot2'
p3476
I1
sS'jgit'
p3477
F0.5
sS'go'
p3478
I0
sS'google-dfp'
p3479
F0.5
sS'automake'
p3480
F0.5
sS'java-2d'
p3481
I1
sS'jsse'
p3482
I0
sS'information-retrieval'
p3483
F0.5
sS'cython'
p3484
F0.5
sS'nsnotification'
p3485
F0.5
sS'radphp'
p3486
F0.5
sS'nsstring'
p3487
I1
sS'condition-variable'
p3488
F0.5
sS'base64'
p3489
F0.5
sS'send'
p3490
I1
sS'javascript-library'
p3491
F0.3
sS'multicore'
p3492
F0.1
sS'istream'
p3493
F0.5
sS'sas-macro'
p3494
F0.5
sS'eclipse-rcp'
p3495
F0.5
sS'suite'
p3496
F0.5
sS'include'
p3497
F0.1
sS'dom-traversal'
p3498
F0.5
sS'getline'
p3499
F0.5
sS'resources'
p3500
I1
sS'testcomplete'
p3501
F0.5
sS'uninitialized'
p3502
F0.5
sS'symfony-sonata'
p3503
F0.5
sS'sage'
p3504
F0.1
sS'mixins'
p3505
F0.5
sS'spring.net'
p3506
F0.5
sS'gtk3'
p3507
F0.5
sS'ms-access-2007'
p3508
I0
sS'sorting'
p3509
I1
sS'facebook'
p3510
I0
sS'loadlibrary'
p3511
F0.5
sS'stackoverflow'
p3512
F0.8
sS'redefinition'
p3513
F0.5
sS'nsmanagedobjectcontext'
p3514
F0.1
sS'petapoco'
p3515
F0.5
sS'memory-alignment'
p3516
F0.5
sS'cdt'
p3517
I1
sS'entitymanager'
p3518
F0.5
sS'contenteditable'
p3519
F0.5
sS'options-menu'
p3520
I1
sS'import-from-excel'
p3521
F0.2
sS'udid'
p3522
I1
sS'mercurial'
p3523
F0.5
sS'button'
p3524
I1
sS'colors'
p3525
I1
sS'hive'
p3526
I1
sS'artifactory'
p3527
F0.5
sS'try-catch'
p3528
I1
sS'olap'
p3529
F0.5
sS'geospatial'
p3530
F0.5
sS'min'
p3531
I1
sS'rack'
p3532
F0.5
sS'versioning'
p3533
I0
sS'clojure'
p3534
I0
sS'biztalk'
p3535
F0.7
sS'zk'
p3536
F0.5
sS'asp-classic'
p3537
F0.5
sS'xpathnavigator'
p3538
F0.5
sS'elisp'
p3539
F0.5
sS'cfc'
p3540
F0.5
sS'cron'
p3541
I1
sS'cmis'
p3542
F0.5
sS'video'
p3543
I0
sS'membership-provider'
p3544
F0.5
sS'download'
p3545
I1
sS'icalendar'
p3546
F0.5
sS'flv'
p3547
F0.5
sS'click'
p3548
I0
sS'append'
p3549
F0.2
sS'sql-server-2008'
p3550
F0.2
sS'x++'
p3551
F0.5
sS'html-helper'
p3552
F0.5
sS'git-clone'
p3553
F0.5
sS'sql-server-2000'
p3554
F0.5
sS'd2'
p3555
F0.1
sS'tbb'
p3556
F0.5
sS'resque'
p3557
I0
sS'sql-server-2005'
p3558
F0.5
sS'box2d'
p3559
F0.5
sS'user-controls'
p3560
I1
sS'hlist'
p3561
F0.5
sS'heatmap'
p3562
F0.5
sS'volatile'
p3563
I1
sS'vb6'
p3564
I0
sS'bar-chart'
p3565
I1
sS'mathjax'
p3566
I0
sS'jdo'
p3567
F0.5
sS'cordova'
p3568
F0.5
sS'magento-admin'
p3569
I1
sS'3d'
p3570
F0.2
sS'typo3'
p3571
F0.5
sS'winapi'
p3572
F0.1
sS'drupal-7'
p3573
F0.1
sS'drupal-6'
p3574
F0.5
sS'commercial'
p3575
I1
sS'matplotlib'
p3576
I1
sS'in-app-billing'
p3577
F0.5
sS'scjp'
p3578
I1
sS'let'
p3579
I1
sS'octave'
p3580
F0.3
sS'ubuntu'
p3581
I1
sS'lex'
p3582
F0.5
sS'openmp'
p3583
F0.1
sS'viewstate'
p3584
F0.5
sS'accessor'
p3585
F0.5
sS'invokelater'
p3586
I1
sS'firefox-addon-sdk'
p3587
F0.5
sS'doctrine2'
p3588
F0.5
sS'vba'
p3589
I1
sS'cfchart'
p3590
F0.5
sS'uikit'
p3591
F0.2
sS'date-range'
p3592
F0.5
sS'vbo'
p3593
I0
sS'shader'
p3594
F0.1
sS'wcf-ria-services'
p3595
F0.5
sS'xdocument'
p3596
F0.2
sS'rdf'
p3597
I0
sS'derby'
p3598
F0.5
sS'enterprise-library'
p3599
F0.5
sS'language-design'
p3600
F0.3
sS'entity-relationship'
p3601
F0.3
sS'base-class'
p3602
F0.4
sS'keylistener'
p3603
I1
sS'perl-module'
p3604
F0.7
sS'wif'
p3605
I0
sS'java-io'
p3606
F0.5
sS'firefox'
p3607
F0.2
sS'apple'
p3608
I1
sS'realloc'
p3609
I1
sS'antlrworks'
p3610
I0
sS'nsattributedstring'
p3611
F0.5
sS'watir'
p3612
I0
sS'private'
p3613
F0.8
sS'lwp-useragent'
p3614
F0.5
sS'apk'
p3615
I1
sS'oracle10g'
p3616
I0
sS'boolean'
p3617
I1
sS'scalacheck'
p3618
F0.5
sS'jrun'
p3619
F0.5
sS'static-analysis'
p3620
F0.5
sS'master-pages'
p3621
I1
sS'windows-azure-storage'
p3622
F0.3
sS'cloud'
p3623
I1
sS'wix'
p3624
F0.5
sS'instantiation'
p3625
I1
sS'bazaar'
p3626
F0.5
sS'android-4.0'
p3627
F0.5
sS'zip'
p3628
F0.1
sS'google-app-engine'
p3629
F0.6
sS'azure-table-storage'
p3630
F0.5
sS'delphi-2010'
p3631
F0.5
sS'next'
p3632
F0.5
sS'nuget'
p3633
F0.5
sS'jvectormap'
p3634
F0.5
sS'camera'
p3635
I0
sS'tablecelleditor'
p3636
F0.1
sS'cran'
p3637
F0.5
sS'panel'
p3638
F0.5
sS'lcdui'
p3639
F0.5
sS'miglayout'
p3640
F0.5
sS'powershell-remoting'
p3641
F0.4
sS'boost-asio'
p3642
F0.3
sS'document-classification'
p3643
F0.5
sS'generic-list'
p3644
F0.3
sS'red5'
p3645
F0.5
sS'postgresql-8.4'
p3646
F0.5
sS'misra'
p3647
F0.3
sS'trait'
p3648
I1
sS'xaml'
p3649
I1
sS'mod-proxy'
p3650
F0.7
sS'template-haskell'
p3651
F0.5
sS'named-pipes'
p3652
F0.5
sS'override'
p3653
I1
sS'scipy'
p3654
I1
sS'scheduled-tasks'
p3655
F0.5
sS'mailmerge'
p3656
F0.5
sS'cakephp-1.3'
p3657
F0.5
sS'cakephp-1.2'
p3658
F0.5
sS'powermock'
p3659
F0.7
sS'gherkin'
p3660
F0.5
sS'resize'
p3661
I0
sS'subscription'
p3662
F0.5
sS'sample'
p3663
F0.5
sS'pagination'
p3664
I1
sS'ocr'
p3665
F0.5
sS'anonymous-types'
p3666
F0.5
sS'portability'
p3667
F0.5
sS'this'
p3668
I0
sS'enterprise-architect'
p3669
F0.5
sS'performance-testing'
p3670
F0.5
sS'appender'
p3671
F0.5
sS'clpfd'
p3672
F0.3
sS'hash-of-hashes'
p3673
F0.5
sS'shoulda'
p3674
F0.5
sS'dxl'
p3675
F0.5
sS'executor'
p3676
I0
sS'activeadmin'
p3677
F0.5
sS'spl'
p3678
F0.5
sS'simple-framework'
p3679
F0.5
sS'qimage'
p3680
I0
sS'proof'
p3681
I1
sS'control'
p3682
F0.5
sS'sqlite'
p3683
I1
sS'windows-shell'
p3684
I0
sS'model-glue'
p3685
F0.5
sS'xslcompiledtransform'
p3686
F0.3
sS'pointer-to-member'
p3687
I1
sS'process'
p3688
I0
sS'pdf-generation'
p3689
F0.5
sS'file-descriptor'
p3690
F0.8
sS'race-condition'
p3691
F0.5
sS'javadoc'
p3692
F0.3
sS'mips32'
p3693
F0.5
sS'suds'
p3694
F0.5
sS'webmatrix'
p3695
I0
sS'event-log'
p3696
F0.5
sS'native'
p3697
F0.5
sS'grocery-crud'
p3698
F0.7
sS'xna'
p3699
F0.4
sS'gcc'
p3700
I0
sS'uibarbuttonitem'
p3701
F0.5
sS'notation'
p3702
I1
sS'uibinder'
p3703
F0.5
sS'asn.1'
p3704
F0.5
sS'boxing'
p3705
F0.5
sS'blob'
p3706
F0.5
sS'pyqt'
p3707
I0
sS'delay'
p3708
F0.7
sS'prestashop'
p3709
F0.5
sS'azure-diagnostics'
p3710
F0.4
sS'attachment'
p3711
F0.5
sS'uinavigationcontroller'
p3712
F0.2
sS'glew'
p3713
I0
sS'integer-overflow'
p3714
F0.5
sS'apex-code'
p3715
I1
sS'android-edittext'
p3716
I0
sS'uitoolbar'
p3717
F0.5
sS'desktop-application'
p3718
F0.5
sS'npm'
p3719
I1
sS'session-cookies'
p3720
I1
sS'msdn'
p3721
F0.5
sS'tableview'
p3722
I1
sS'regex-greedy'
p3723
F0.5
sS'url-rewriting'
p3724
I1
sS'google-drive-sdk'
p3725
F0.5
sS'await'
p3726
F0.5
sS'negative-number'
p3727
I1
sS'gridbaglayout'
p3728
F0.5
sS'alertdialog'
p3729
F0.5
sS'loading'
p3730
F0.5
sS'mpns'
p3731
F0.5
sS'multiplication'
p3732
F0.5
sS'qtwebkit'
p3733
F0.5
sS'hashes'
p3734
F0.5
sS'out-of-memory'
p3735
F0.2
sS'windows-services'
p3736
F0.8
sS'xmlns'
p3737
I1
sS'msmq'
p3738
I0
sS'nsrange'
p3739
F0.5
sS'mondrian'
p3740
F0.5
sS'bind'
p3741
I0
sS'inheritance'
p3742
F0.4
sS'grails'
p3743
F0.1
sS'django-class-based-views'
p3744
F0.3
sS'hashset'
p3745
F0.6
sS'selectors'
p3746
F0.5
sS'gitolite'
p3747
F0.5
sS'xsd-validation'
p3748
I1
sS'nancy'
p3749
F0.5
sS'smartcard-reader'
p3750
F0.5
sS'gethashcode'
p3751
F0.5
sS'osgi'
p3752
I0
sS'mustache'
p3753
F0.5
sS'fadein'
p3754
F0.5
sS'jira'
p3755
F0.5
sS'face-recognition'
p3756
F0.5
sS'jqgrid-asp.net'
p3757
F0.5
sS'owl'
p3758
F0.4
sS'doctrine-1.2'
p3759
F0.5
sS'mod-perl2'
p3760
F0.5
sS'np-complete'
p3761
F0.2
sS'move'
p3762
F0.7
sS'joptionpane'
p3763
F0.5
sS'plsql'
p3764
F0.2
sS'combinations'
p3765
F0.1
sS'jna'
p3766
F0.5
sS'comma'
p3767
I1
sS'facebook-c#-sdk'
p3768
F0.1
sS'interpreter'
p3769
I0
sS'interceptor'
p3770
F0.5
sS'ofstream'
p3771
F0.5
sS'vms'
p3772
F0.5
sS'directx'
p3773
I0
sS'transactionscope'
p3774
I1
sS'spotify'
p3775
I0
sS'ld'
p3776
F0.4
sS'netzke'
p3777
F0.5
sS'dispose'
p3778
I0
sS'android-loadermanager'
p3779
F0.5
sS'paperclip'
p3780
I1
sS'ipython'
p3781
I0
sS'maven-2'
p3782
F0.5
sS'derivative'
p3783
F0.5
sS'httpcontext'
p3784
F0.8
sS'compiler'
p3785
F0.2
sS'static-cast'
p3786
F0.6
sS'foreach'
p3787
I1
sS'code-signing'
p3788
F0.5
sS'docx'
p3789
F0.5
sS'multimap'
p3790
F0.8
sS'domdocument'
p3791
F0.5
sS'double-checked-locking'
p3792
F0.5
sS'python'
p3793
F0.2
sS'system.reactive'
p3794
F0.5
sS'nokia'
p3795
F0.5
sS'indexing'
p3796
I1
sS'autorelease'
p3797
I1
sS'ms-word'
p3798
F0.2
sS'dbix-class'
p3799
I0
sS'smarty'
p3800
F0.5
sS'rotation'
p3801
I1
sS'cakephp'
p3802
I1
sS'rexx'
p3803
F0.5
sS'postgresql-9.1'
p3804
I1
sS'xpcom'
p3805
F0.5
sS'storyboard'
p3806
I1
sS'nfc'
p3807
F0.5
sS'trac'
p3808
F0.5
sS'xalan'
p3809
F0.5
sS'jsf-1.2'
p3810
F0.5
sS'appcelerator'
p3811
F0.7
sS'.net'
p3812
I1
sS'ruby-1.9'
p3813
F0.5
sS'weak-references'
p3814
F0.5
sS'merge'
p3815
I1
sS'scrollbar'
p3816
I1
sS'propertyinfo'
p3817
F0.5
sS'string-formatting'
p3818
F0.1
sS'tabcontrol'
p3819
F0.7
sS'winrt-xaml'
p3820
F0.1
sS'complexity-theory'
p3821
I1
sS'subset'
p3822
F0.4
sS'profile'
p3823
F0.6
sS'bignum'
p3824
F0.5
sS'jodatime'
p3825
I0
sS'strip'
p3826
F0.5
sS'google-chrome-extension'
p3827
F0.8
sS'type-punning'
p3828
I1
sS'app-config'
p3829
F0.5
sS'bluetooth'
p3830
F0.1
sS'exist-db'
p3831
F0.1
sS'image-processing'
p3832
F0.2
sS'static'
p3833
I1
sS'citrix'
p3834
F0.5
sS'mxml'
p3835
I0
sS'patch'
p3836
I1
sS'intersystems'
p3837
F0.5
sS'bpel'
p3838
F0.5
sS'httpurlconnection'
p3839
I1
sS'implicits'
p3840
F0.5
sS'xmldocument'
p3841
F0.5
sS'symfony-forms'
p3842
F0.5
sS'function-prototypes'
p3843
F0.5
sS'matrix'
p3844
F0.4
sS'command-line'
p3845
F0.1
sS'cortex-m3'
p3846
I0
sS'ssas'
p3847
I0
sS'kohana-3'
p3848
F0.5
sS'android-gcm'
p3849
F0.5
sS'specifications'
p3850
F0.5
sS'underscore.js'
p3851
F0.2
sS'liferay-6'
p3852
I1
sS'gwt-platform'
p3853
I0
sS'core-bluetooth'
p3854
F0.5
sS'max'
p3855
I1
sS'm2e'
p3856
F0.5
sS'spring-mvc'
p3857
I1
sS'metaclass'
p3858
F0.5
sS'clone'
p3859
I1
sS'microsoft-fakes'
p3860
F0.5
sS'long-polling'
p3861
F0.5
sS'multithreading'
p3862
I0
sS'postback'
p3863
F0.6
sS'iostream'
p3864
F0.3
sS'dictionary'
p3865
I1
sS'sendmail'
p3866
F0.6
sS'hl7'
p3867
F0.2
sS'subclipse'
p3868
I0
sS'ipod'
p3869
F0.5
sS'winforms'
p3870
I1
sS'delegates'
p3871
I1
sS'greedy'
p3872
F0.5
sS'moodle'
p3873
F0.5
sS'qt-creator'
p3874
F0.5
sS'zodb'
p3875
F0.5
sS'implode'
p3876
I1
sS'thrust'
p3877
F0.2
sS'firefox-addon'
p3878
F0.5
sS'laravel'
p3879
F0.5
sS'ienumerator'
p3880
F0.5
sS'indent'
p3881
F0.5
sS'git-merge'
p3882
I1
sS'midi'
p3883
F0.6
sS'geometry'
p3884
I1
sS'deprecated'
p3885
F0.5
sS'cruisecontrol.net'
p3886
F0.5
sS'lexer'
p3887
F0.5
sS'handlebars.js'
p3888
F0.5
sS'membership'
p3889
F0.5
sS'timer'
p3890
I1
sS'grok'
p3891
I0
sS'elasticsearch'
p3892
I1
sS'zend-form'
p3893
F0.7
sS'xml-schema'
p3894
F0.5
sS'retain'
p3895
F0.5
sS'bytestring'
p3896
F0.5
sS'midp'
p3897
I0
sS'unobtrusive-javascript'
p3898
F0.5
sS'sencha-touch-2'
p3899
F0.3
sS'maven-3'
p3900
I1
sS'keyboard-shortcuts'
p3901
F0.3
sS'squeryl'
p3902
F0.5
sS'struts-1'
p3903
F0.5
sS'smartcard'
p3904
F0.5
sS'android-view'
p3905
F0.5
sS'web.xml'
p3906
I1
sS'm2eclipse'
p3907
I1
sS'echo'
p3908
F0.7
sS'workflow-foundation'
p3909
F0.5
sS'jcombobox'
p3910
F0.7
sS'dbexpress'
p3911
F0.4
sS'puppet'
p3912
F0.5
sS'abstract-class'
p3913
I1
sS'automated-testing'
p3914
F0.5
sS'sockets'
p3915
F0.1
sS'xbuild'
p3916
F0.5
sS'initialization'
p3917
I1
sS'google-chrome-devtools'
p3918
I0
sS'ef-model-first'
p3919
F0.5
sS'pydev'
p3920
I0
sS'weka'
p3921
F0.5
sS'reference'
p3922
F0.6
sS'ordering'
p3923
I1
sS'scanf'
p3924
F0.3
sS'color-scheme'
p3925
F0.5
sS'mkdir'
p3926
F0.4
sS'system'
p3927
I1
sS'wrapper'
p3928
F0.5
sS'batch-file'
p3929
I1
sS'http-status-codes'
p3930
F0.5
sS'compiler-warnings'
p3931
F0.4
sS'git-push'
p3932
I0
sS'mybatis'
p3933
F0.5
sS'device-driver'
p3934
F0.5
sS'final'
p3935
F0.5
sS'pathogen'
p3936
F0.5
sS'opennetcf'
p3937
F0.5
sS'window-functions'
p3938
F0.5
sS'udp'
p3939
F0.1
sS'testing'
p3940
I1
sS'memorystream'
p3941
F0.5
sS'nsoperation'
p3942
F0.3
sS'dynamic-programming'
p3943
I1
sS'rsa'
p3944
F0.1
sS'perforce'
p3945
F0.2
sS'gwt-rpc'
p3946
F0.6
sS'composite-component'
p3947
I0
sS'jndi'
p3948
I0
sS'quantmod'
p3949
F0.5
sS'compiler-theory'
p3950
F0.5
sS'tar'
p3951
I0
sS'while-loop'
p3952
I1
sS'gson'
p3953
F0.1
sS'html.dropdownlistfor'
p3954
F0.5
sS'android-custom-view'
p3955
I1
sS'delphi-2009'
p3956
F0.5
sS'subroutine'
p3957
I1
sS'ocamlyacc'
p3958
F0.5
sS'fscanf'
p3959
F0.5
sS'simd'
p3960
F0.2
sS'adfs2.0'
p3961
F0.1
sS'pointers'
p3962
F0.2
sS'delphi-2006'
p3963
F0.5
sS'delphi-2007'
p3964
F0.5
sS'jscrollpane'
p3965
F0.2
sS'repository-pattern'
p3966
F0.1
sS'compass-css'
p3967
F0.5
sS'fragment-shader'
p3968
F0.5
sS'bean-validation'
p3969
F0.1
sS'jquery-ui-tabs'
p3970
F0.5
sS'treepanel'
p3971
F0.5
sS'entity-framework'
p3972
I1
sS'multiple-inheritance'
p3973
F0.7
sS'user-interface'
p3974
I1
sS'f#-interactive'
p3975
F0.5
sS'protocol-buffers'
p3976
F0.5
sS'google-bigquery'
p3977
I0
sS'twitter-api'
p3978
F0.5
sS'openedge'
p3979
F0.5
sS'viewer'
p3980
F0.5
sS'lines'
p3981
F0.5
sS'linker'
p3982
F0.6
sS'excel-vba'
p3983
I1
sS'like-operator'
p3984
I1
sS'unpivot'
p3985
F0.5
sS'corona'
p3986
F0.1
sS'element'
p3987
F0.4
sS'border'
p3988
F0.5
sS'linked'
p3989
F0.7
sS'instrumentation'
p3990
F0.5
sS'wchar-t'
p3991
F0.3
sS'angle'
p3992
I1
sS'stl-algorithm'
p3993
F0.4
sS'nsis'
p3994
F0.5
sS'asp.net'
p3995
I1
sS'fseek'
p3996
F0.5
sS'javacc'
p3997
F0.5
sS'gravity'
p3998
F0.5
sS'external-tables'
p3999
F0.5
sS'worksheet-function'
p4000
F0.2
sS'sinatra'
p4001
F0.2
sS'jboss7.x'
p4002
I0
sS'ember-data'
p4003
I0
sS'vimrc'
p4004
I1
sS'cocoa-bindings'
p4005
F0.5
sS'javacv'
p4006
F0.5
sS'platform-builder'
p4007
F0.5
sS'soap'
p4008
F0.1
sS'persistence'
p4009
I0
sS'lookup-tables'
p4010
I1
sS'calculus'
p4011
F0.5
sS'implicit-conversion'
p4012
F0.6
sS'observer-pattern'
p4013
F0.5
sS'thread-safety'
p4014
I0
sS'wpfdatagrid'
p4015
F0.5
sS'uiinterfaceorientation'
p4016
F0.5
sS'automated-tests'
p4017
I0
sS'awt'
p4018
I0
sS'windows-embedded-compact'
p4019
F0.5
sS'value-type'
p4020
F0.5
sS'hiphop'
p4021
F0.5
sS'awk'
p4022
I0
sS'specflow'
p4023
F0.6
sS'optional-parameters'
p4024
F0.5
sS'payment'
p4025
F0.5
sS'oracle11g'
p4026
I0
sS'url'
p4027
I1
sS'windowlistener'
p4028
F0.5
sS'baseadapter'
p4029
F0.5
sS'indy'
p4030
I0
sS'uri'
p4031
F0.5
sS'pipe'
p4032
F0.6
sS'django-templates'
p4033
I1
sS'com-interop'
p4034
F0.5
sS'joomla-component'
p4035
F0.6
sS'class-library'
p4036
F0.5
sS'dbi'
p4037
I0
sS'watcom'
p4038
F0.5
sS'stackoverflowexception'
p4039
F0.7
sS'scrollviewer'
p4040
F0.5
sS'web.py'
p4041
F0.5
sS'loadrunner'
p4042
F0.5
sS'text'
p4043
I1
sS'eclipselink'
p4044
F0.5
sS'oauth'
p4045
I0
sS'css-selectors'
p4046
I1
sS'forceclose'
p4047
I1
sS'pyparsing'
p4048
F0.1
sS'self-join'
p4049
F0.5
sS'setter'
p4050
F0.3
sS'redirect'
p4051
I1
sS'locationmanager'
p4052
F0.5
sS'dotnetopenauth'
p4053
F0.5
sS'serial-port'
p4054
F0.4
sS'php-internals'
p4055
F0.5
sS'activemq'
p4056
I0
sS'restlet'
p4057
F0.5
sS'removeclass'
p4058
I1
sS'jar'
p4059
F0.5
sS'controls'
p4060
F0.5
sS'jstree'
p4061
F0.5
sS'terminal'
p4062
I0
sS'google-street-view'
p4063
F0.5
sS'comparison-operators'
p4064
F0.5
sS'data-integration'
p4065
F0.5
sS'ambiguity'
p4066
F0.9
sS'local'
p4067
F0.5
sS'spring-security'
p4068
F0.5
sS'umbraco'
p4069
F0.4
sS'documentlistener'
p4070
F0.5
sS'uitabbar'
p4071
F0.5
sS'cube'
p4072
F0.5
sS'handle'
p4073
F0.5
sS'uibutton'
p4074
I1
sS'cloudera'
p4075
F0.5
sS'prolog-cut'
p4076
F0.5
sS'stripes'
p4077
F0.5
sS'overload-resolution'
p4078
F0.1
sS'listener'
p4079
F0.7
sS'ant-contrib'
p4080
F0.5
sS'install'
p4081
F0.5
sS'jira-plugin'
p4082
F0.5
sS'neural-network'
p4083
I1
sS'db2'
p4084
F0.5
sS'scrolling'
p4085
I1
sS'memcpy'
p4086
F0.9
sS'converter'
p4087
F0.5
sS'android-camera'
p4088
I0
sS'aes'
p4089
F0.5
sS'irc'
p4090
F0.5
sS'qt'
p4091
F0.1
sS'netsuite'
p4092
F0.5
sS'dynamic-data'
p4093
I0
sS'nsbutton'
p4094
F0.3
sS'rebase'
p4095
F0.5
sS'coronasdk'
p4096
I0
sS'python-requests'
p4097
F0.5
sS'calling'
p4098
F0.5
sS'qa'
p4099
I1
sS'asp.net-mvc-2'
p4100
F0.5
sS'javacard'
p4101
F0.5
sS'datetime-format'
p4102
F0.5
sS'git-svn'
p4103
F0.2
sS'fixed'
p4104
F0.5
sS'dpi'
p4105
F0.7
sS'lalr'
p4106
F0.5
sS'variadic-templates'
p4107
F0.3
sS'saml-2.0'
p4108
F0.5
sS'qtp'
p4109
F0.5
sS'x11'
p4110
F0.5
sS'datalist'
p4111
F0.5
sS'preventdefault'
p4112
I1
sS'javasound'
p4113
F0.5
sS'json-rpc'
p4114
I1
sS'android-adapter'
p4115
F0.5
sS'named-ranges'
p4116
F0.5
sS'profiling'
p4117
F0.1
sS'afnetworking'
p4118
F0.5
sS'racket'
p4119
I0
sS'rpgle'
p4120
F0.2
sS'hbase'
p4121
F0.1
sS'reverse-engineering'
p4122
I1
sS'uialertview'
p4123
I1
sS'paypal-sandbox'
p4124
F0.5
sS'ibm-mq'
p4125
F0.5
sS'jqplot'
p4126
F0.5
sS'ms-dos'
p4127
F0.2
sS'sql-update'
p4128
I1
sS'dwolla'
p4129
F0.5
sS'stanford-nlp'
p4130
F0.5
sS'breakpoints'
p4131
F0.5
sS'performselector'
p4132
F0.5
sS'lua'
p4133
I0
sS'state'
p4134
F0.5
sS'big-o'
p4135
I0
sS'verilog'
p4136
F0.1
sS'stata'
p4137
F0.3
sS'ad-hoc-distribution'
p4138
F0.5
sS'email'
p4139
I1
sS'qt4'
p4140
I0
sS'access-modifiers'
p4141
F0.5
sS'cmd.exe'
p4142
F0.5
sS'jformattedtextfield'
p4143
F0.5
sS'windows-mobile-6'
p4144
F0.5
sS'focus'
p4145
F0.2
sS'c++-faq'
p4146
F0.5
sS'facebook-apps'
p4147
F0.5
sS'mfc'
p4148
I0
sS'google-maps-api-2'
p4149
F0.5
sS'equation-solving'
p4150
F0.5
sS'emacs24'
p4151
I1
sS'team-build'
p4152
F0.6
sS'sharedpreferences'
p4153
F0.3
sS'infinispan'
p4154
F0.1
sS'group'
p4155
F0.7
sS'configuration'
p4156
F0.3
sS'runtime-error'
p4157
I1
sS'gaps-and-islands'
p4158
F0.5
sS'tls'
p4159
F0.5
sS'doxygen'
p4160
I0
sS'tkinter'
p4161
I1
sS'junit'
p4162
I0
sS'outfile'
p4163
F0.5
sS'admin'
p4164
F0.5
sS'arduino'
p4165
I1
sS'selenium-webdriver'
p4166
F0.4
sS'valgrind'
p4167
F0.5
sS'ndef'
p4168
F0.6
sS'itertools'
p4169
F0.7
sS'android-notifications'
p4170
F0.5
sS'ioexception'
p4171
F0.5
sS'hudson-plugins'
p4172
F0.5
sS'attributes'
p4173
F0.2
sS'ember-old-router'
p4174
F0.5
sS'jersey'
p4175
I1
sS'statistics'
p4176
I0
sS'socialengine'
p4177
I0
sS'webservice-client'
p4178
F0.7
sS'android-wifi'
p4179
F0.2
sS'vxworks'
p4180
I0
sS'websphere-mq'
p4181
F0.1
sS'amazon-swf'
p4182
F0.5
sS'bundling-and-minification'
p4183
F0.5
sS'cd'
p4184
F0.5
sS'gen-server'
p4185
I1
sS'knockout.js'
p4186
F0.1
sS'rpc'
p4187
F0.6
sS'version-control'
p4188
I1
sS'onload'
p4189
F0.6
sS'rpg'
p4190
F0.5
sS'compile-time'
p4191
F0.5
sS'event-handling'
p4192
I1
sS'void-pointers'
p4193
F0.5
sS'scientific-computing'
p4194
F0.5
sS'android-webview'
p4195
F0.1
sS'mailto'
p4196
I1
sS'list-comprehension'
p4197
I0
sS'packages'
p4198
F0.2
sS'android-button'
p4199
I1
sS'cultureinfo'
p4200
F0.5
sS'solr'
p4201
I1
sS'core-data'
p4202
I1
sS'android-dialogfragment'
p4203
F0.1
sS'jit'
p4204
F0.2
sS'devise'
p4205
F0.4
sS'json'
p4206
I1
sS'sweave'
p4207
F0.5
sS'uitableviewcell'
p4208
I1
sS'excel-2003'
p4209
F0.2
sS'query-execution-plans'
p4210
F0.5
sS'aggregate-functions'
p4211
F0.2
sS'ls'
p4212
F0.3
sS'capistrano'
p4213
F0.5
sS'minify'
p4214
F0.5
sS'url-routing'
p4215
I0
sS'objective-c++'
p4216
F0.5
sS'c#'
p4217
F0.2
sS'tycho'
p4218
F0.5
sS'xpath-2.0'
p4219
F0.1
sS'local-storage'
p4220
I1
sS'controller'
p4221
F0.5
sS'blackberry-eclipse-plugin'
p4222
F0.5
sS'move-constructor'
p4223
F0.2
sS'python-subprocess-module'
p4224
F0.5
sS'ploneformgen'
p4225
F0.5
sS'nested-loops'
p4226
F0.5
sS'reverse'
p4227
F0.7
sS'jmockit'
p4228
F0.5
sS'cypher'
p4229
F0.5
sS'reportbuilder3.0'
p4230
I0
sS'xacml'
p4231
F0.5
sS'xpages'
p4232
F0.3
sS'iife'
p4233
F0.8
sS'ocmock'
p4234
F0.5
sS'nsmenuitem'
p4235
I1
sS'cvs'
p4236
F0.2
sS'dvcs'
p4237
F0.5
sS'frameworks'
p4238
F0.1
sS'nemerle'
p4239
F0.7
sS'dalvik'
p4240
F0.2
sS'jquery-deferred'
p4241
F0.5
sS'posixct'
p4242
F0.5
sS'intellisense'
p4243
F0.5
sS'firebug'
p4244
F0.3
sS'openstreetmap'
p4245
I0
sS'datacontext'
p4246
I0
sS'cocos2d-x'
p4247
F0.5
sS'alassetslibrary'
p4248
F0.5
sS'helper'
p4249
F0.5
sS'flex'
p4250
I1
sS'libxml2'
p4251
F0.5
sS'uiimageview'
p4252
I1
sS'linkedin'
p4253
F0.4
sS'hardware'
p4254
F0.7
sS'digital-signature'
p4255
F0.5
sS'do-while'
p4256
F0.7
sS'linq-to-entities'
p4257
I1
sS'stringtokenizer'
p4258
F0.6
sS'simplepie'
p4259
F0.5
sS'arabic'
p4260
F0.5
sS'avg'
p4261
F0.5
sS'regression'
p4262
I1
sS'cjk'
p4263
F0.5
sS'formatexception'
p4264
F0.5
sS'stdstring'
p4265
F0.7
sS'qgraphicsscene'
p4266
F0.5
sS'enumeration'
p4267
I1
sS'member'
p4268
F0.4
sS'factorial'
p4269
F0.4
sS'unity'
p4270
F0.5
sS'tfs2010'
p4271
F0.6
sS'google-geochart'
p4272
F0.2
sS'qtreewidget'
p4273
I1
sS'auto'
p4274
F0.5
sS'utf-8'
p4275
I1
sS'android'
p4276
I1
sS'graphics2d'
p4277
F0.5
sS'slickgrid'
p4278
I0
sS'classnotfoundexception'
p4279
F0.5
sS'stdvector'
p4280
I1
sS'http'
p4281
I1
sS'video-streaming'
p4282
F0.5
sS'n-tier-architecture'
p4283
F0.5
sS'myfaces'
p4284
F0.5
sS'iequatable'
p4285
F0.5
sS'sequel'
p4286
F0.3
sS'reporting'
p4287
F0.5
sS'cleartool'
p4288
F0.5
sS'effect'
p4289
F0.5
sS'.net-framework-version'
p4290
F0.1
sS'cpan'
p4291
F0.7
sS'fileinputstream'
p4292
F0.6
sS'v8'
p4293
I1
sS'spree'
p4294
F0.5
sS'php'
p4295
I1
sS'identity'
p4296
I1
sS'xcode4'
p4297
I1
sS'polymorphism'
p4298
I1
sS'coding-style'
p4299
I0
sS'reflection'
p4300
F0.3
sS'webforms'
p4301
I1
sS'fluent-nhibernate-mapping'
p4302
F0.5
sS'collabnet'
p4303
F0.5
sS'draggable'
p4304
F0.5
sS'patterns'
p4305
F0.5
sS'command'
p4306
I1
sS'adobe-analytics'
p4307
F0.3
sS'position'
p4308
F0.5
sS'moose'
p4309
I0
sS'audio'
p4310
I0
sS'parallel-processing'
p4311
I1
sS'drawing'
p4312
F0.5
sS'webclient'
p4313
F0.5
sS'uisegmentedcontrol'
p4314
I0
sS'pax-runner'
p4315
F0.5
sS'file-io'
p4316
I1
sS'lotus-notes'
p4317
F0.1
sS'mathematica'
p4318
I0
sS'less'
p4319
F0.7
sS'glut'
p4320
F0.5
sS'unordered-map'
p4321
F0.3
sS'ksh'
p4322
F0.2
sS'tcp'
p4323
F0.2
sS'data-visualization'
p4324
I0
sS'abap'
p4325
F0.5
sS'search-and-replace'
p4326
F0.4
sS'cqrs'
p4327
F0.6
sS'xml-serialization'
p4328
F0.1
sS'signals-slots'
p4329
F0.5
sS'low-level'
p4330
I1
sS'web'
p4331
I1
sS'adt'
p4332
F0.5
sS'console'
p4333
F0.2
sS'dao'
p4334
I1
sS'.net-remoting'
p4335
F0.7
sS'field'
p4336
F0.2
sS'nstextview'
p4337
F0.5
sS'nhibernate-criteria'
p4338
F0.5
sS'spinner'
p4339
I1
sS'lattice'
p4340
F0.5
sS'add'
p4341
F0.6
sS'extends'
p4342
F0.5
sS'facebook-like'
p4343
I0
sS'ada'
p4344
I0
sS'application-server'
p4345
F0.5
sS'ado'
p4346
F0.5
sS'c11'
p4347
F0.5
sS'publish-subscribe'
p4348
F0.5
sS'ccsprite'
p4349
F0.1
sS'match'
p4350
I1
sS'primefaces'
p4351
I1
sS'css3'
p4352
F0.2
sS'code-review'
p4353
F0.5
sS'jython'
p4354
F0.6
sS'web-config'
p4355
I1
sS'habtm'
p4356
I1
sS'c#-3.0'
p4357
F0.5
sS'actionbarsherlock'
p4358
F0.6
sS'morphia'
p4359
F0.4
sS'bit-manipulation'
p4360
I1
sS'message-queue'
p4361
I0
sS'using-statement'
p4362
F0.5
sS'windows-xp'
p4363
F0.6
sS'php4'
p4364
F0.5
sS'jboss-weld'
p4365
F0.5
sS'purely-functional'
p4366
F0.5
sS'deployment'
p4367
I1
sS'edt'
p4368
F0.5
sS'intersection'
p4369
F0.7
sS'uislider'
p4370
F0.5
sS'relational-division'
p4371
F0.5
sS'vimclojure'
p4372
I1
sS'xss'
p4373
I0
sS'like'
p4374
I0
sS'altova'
p4375
F0.5
sS'dynamic-cast'
p4376
F0.2
sS'inputverifier'
p4377
I1
sS'database-replication'
p4378
F0.5
sS'solrj'
p4379
I1
sS'command-prompt'
p4380
F0.5
sS'modx'
p4381
F0.2
sS'xquery'
p4382
I0
sS'lambda-functions'
p4383
F0.5
sS'visualsvn'
p4384
F0.5
sS'servlet-filters'
p4385
F0.2
sS'android-mapview'
p4386
F0.5
sS'replacement'
p4387
F0.5
sS'monotouch.dialog'
p4388
F0.5
sS'mod-rewrite'
p4389
I1
sS'vst'
p4390
F0.4
sS'jls'
p4391
F0.2
sS'hazelcast'
p4392
F0.5
sS'gcc-warning'
p4393
I1
sS'android-xml'
p4394
F0.5
sS'mschart'
p4395
F0.5
sS'section508'
p4396
F0.5
sS'tumblr'
p4397
F0.5
sS'gevent'
p4398
I0
sS'stage3d'
p4399
F0.5
sS'boost-thread'
p4400
I1
sS'bitwise-operators'
p4401
I1
sS'nvcc'
p4402
F0.7
sS'django-1.4'
p4403
F0.5
sS'ess'
p4404
F0.5
sS'borland'
p4405
F0.5
sS'ghostscript'
p4406
I1
sS'overlay'
p4407
F0.5
sS'cocos2d-android'
p4408
F0.5
sS'cross-domain'
p4409
F0.5
sS'tooltip'
p4410
I1
sS'temporary-objects'
p4411
I1
sS'uiapplicationdelegate'
p4412
F0.2
sS'django-views'
p4413
F0.7
sS'random-access'
p4414
F0.2
sS'marklogic'
p4415
F0.1
sS'symbol'
p4416
F0.5
sS'typetraits'
p4417
I1
sS'at-command'
p4418
F0.5
sS'object-detection'
p4419
F0.5
sS'pyrocms'
p4420
F0.5
sS'importerror'
p4421
F0.8
sS'datasnap'
p4422
F0.5
sS'ieee-754'
p4423
I0
sS'char-array'
p4424
I1
sS'symlink'
p4425
F0.5
sS'ggplot'
p4426
F0.5
sS'maven'
p4427
F0.2
sS'dataannotations'
p4428
F0.5
sS'ssms'
p4429
F0.2
sS'pycharm'
p4430
F0.1
sS'nstableview'
p4431
F0.2
sS'sqlconnection'
p4432
F0.5
sS'strlen'
p4433
F0.5
sS'autofixture'
p4434
F0.5
sS'jlabel'
p4435
I0
sS'stage'
p4436
F0.5
sS'haproxy'
p4437
F0.5
sS'datareader'
p4438
F0.5
sS'objectoutputstream'
p4439
F0.5
sS'wicked-pdf'
p4440
F0.1
sS'sts-securitytokenservice'
p4441
F0.2
sS'guice'
p4442
F0.5
sS'strcpy'
p4443
F0.3
sS'oracle-adf'
p4444
I1
sS'constructor'
p4445
I1
sS'cascading-deletes'
p4446
F0.5
sS'generate-series'
p4447
I0
sS'constraints'
p4448
I1
sS'uiviewcontroller'
p4449
I1
sS'password-protection'
p4450
F0.5
sS'openfeint'
p4451
F0.5
sS'typeclass'
p4452
I1
sS'clustered-index'
p4453
F0.5
sS'binary-search'
p4454
F0.4
sS'nested-forms'
p4455
F0.5
sS'qmake'
p4456
F0.5
sS'dataset'
p4457
I1
sS'cocoa'
p4458
I1
sS'squeak'
p4459
F0.5
sS'simpledateformat'
p4460
F0.1
sS'nsight'
p4461
F0.5
sS'promise'
p4462
F0.5
sS'renderer'
p4463
I1
sS'asteriskami'
p4464
F0.5
sS'virtualbox'
p4465
I1
sS'undef'
p4466
F0.5
sS'w3c'
p4467
F0.5
sS'bing-maps'
p4468
F0.5
sS'networking'
p4469
I1
sS'maven-plugin'
p4470
F0.5
sS'snmp'
p4471
F0.5
sS'java-memory-model'
p4472
F0.5
sS'flash-cs5'
p4473
F0.5
sS'android-spinner'
p4474
F0.5
sS'xml-twig'
p4475
F0.5
sS'concat'
p4476
F0.6
sS'appfabric'
p4477
F0.5
sS'var'
p4478
I1
sS'maze'
p4479
F0.5
sS'filehandle'
p4480
F0.5
sS'dynamic-sql'
p4481
I1
sS'streamreader'
p4482
F0.2
sS'function'
p4483
I1
sS'oxygene'
p4484
F0.5
sS'repeater'
p4485
I0
sS'crystal-reports-xi'
p4486
F0.5
sS'django-admin'
p4487
I1
sS'projects-and-solutions'
p4488
F0.5
sS'sunos'
p4489
F0.5
sS'histogram'
p4490
F0.3
sS'phusion-passenger'
p4491
I1
sS'antlr3'
p4492
F0.1
sS'sybase'
p4493
F0.5
sS'automapper'
p4494
F0.5
sS'overflow'
p4495
I1
sS'highstock'
p4496
F0.5
sS'redgate'
p4497
I0
sS'count'
p4498
I1
sS'web-scraping'
p4499
F0.1
sS'dmd'
p4500
F0.5
sS'htmlunit'
p4501
I1
sS'python-3.x'
p4502
I0
sS'prettyfaces'
p4503
F0.5
sS'diacritics'
p4504
F0.5
sS'j'
p4505
F0.5
sS'hosting'
p4506
F0.6
sS'signed'
p4507
F0.5
sS'cocos2d-iphone'
p4508
I0
sS'record'
p4509
F0.5
sS'persian'
p4510
F0.5
sS'limit'
p4511
F0.5
sS'iteratee'
p4512
I1
sS'cocoa-touch'
p4513
F0.2
sS'distribution'
p4514
F0.5
sS'jdialog'
p4515
F0.5
sS'blackberry-10'
p4516
I1
sS'datepicker'
p4517
I0
sS'android-tabhost'
p4518
I1
sS'sscanf'
p4519
F0.6
sS'timespan'
p4520
F0.8
sS'int'
p4521
I1
sS'flex4.6'
p4522
F0.5
sS'pic'
p4523
F0.5
sS'jmenubar'
p4524
F0.1
sS'android-emulator'
p4525
I1
sS'excel-vba-mac'
p4526
F0.5
sS'soql'
p4527
F0.5
sS'hibernate-criteria'
p4528
F0.5
sS'ini'
p4529
F0.9
sS'regex-lookarounds'
p4530
F0.5
sS'mod-wsgi'
p4531
F0.5
sS'pip'
p4532
F0.5
sS'zebra-puzzle'
p4533
F0.7
sS'eol'
p4534
F0.7
sS'nested-queries'
p4535
F0.5
sS'jmdns'
p4536
F0.5
sS'xpages-extlib'
p4537
F0.6
sS'sprite'
p4538
I1
sS'visual-c++'
p4539
F0.1
sS'inotifypropertychanged'
p4540
F0.4
sS'resharper'
p4541
I0
sS'retina-display'
p4542
F0.5
sS'java-bytecode-asm'
p4543
F0.5
sS'sicp'
p4544
F0.1
sS'virtual'
p4545
I1
sS'openni'
p4546
F0.5
sS'netlogo'
p4547
I0
sS'dd4t'
p4548
F0.5
sS'meteor'
p4549
I1
sS'hpc'
p4550
F0.5
sS'unit-testing'
p4551
F0.1
sS'.class-file'
p4552
F0.5
sS'riak'
p4553
I1
sS'linkedhashmap'
p4554
F0.7
sS'stat'
p4555
I1
sS'portlet'
p4556
F0.7
sS'vtable'
p4557
F0.5
sS'fslex'
p4558
F0.5
sS'class'
p4559
I1
sS'flash-builder'
p4560
F0.2
sS'iso-prolog'
p4561
F0.5
sS'flwor'
p4562
I1
sS'cpu-usage'
p4563
F0.5
sS'asset-pipeline'
p4564
F0.5
sS'buffer-overflow'
p4565
F0.5
sS'wamp'
p4566
F0.5
sS'quaternion'
p4567
F0.5
sS'websphere-6.1'
p4568
F0.5
sS'readline'
p4569
F0.5
sS'astronomy'
p4570
F0.5
sS'extjs'
p4571
I0
sS'sencha-architect'
p4572
I1
sS'video-processing'
p4573
I1
sS'feature-detection'
p4574
F0.7
sS'validation'
p4575
I1
sS'sphinx'
p4576
F0.5
sS'eof'
p4577
F0.5
sS'tomcat'
p4578
I0
sS'ios-ui-automation'
p4579
F0.5
sS'floating-point-precision'
p4580
I1
sS'unboundid-ldap-sdk'
p4581
F0.5
sS'uitableviewcontroller'
p4582
F0.7
sS'z-index'
p4583
F0.5
sS'exception-safety'
p4584
F0.5
sS'flex4.5'
p4585
F0.1
sS'partial-specialization'
p4586
F0.1
sS'pytz'
p4587
F0.5
sS'amazon-dynamodb'
p4588
F0.5
sS'http-status-code-403'
p4589
F0.5
sS'source-code'
p4590
F0.5
sS'python-idle'
p4591
F0.5
sS'spring-3'
p4592
F0.5
sS'bcp'
p4593
I1
sS'iis-7.5'
p4594
I0
s.