(lp0
I5
aI786441
aI13
aI17
aI20
aI22
aI26
aI29
aI1310765
aI1004893
aI50
aI56
aI60
aI64
aI67
aI71
aI77
aI91
aI96
aI524389
aI106
aI115
aI1048697
aI122
aI786560
aI133
aI137
aI149
aI1835198
aI191
aI207
aI1835217
aI210
aI786644
aI219
aI225
aI234
aI786471
aI238
aI243
aI2621693
aI2359560
aI524555
aI268
aI270
aI45
aI524566
aI1048862
aI524588
aI302
aI304
aI305
aI312
aI320
aI786487
aI337
aI338
aI342
aI361
aI364
aI1835378
aI1835379
aI383
aI384
aI392
aI396
aI404
aI419
aI2097224
aI524723
aI437
aI1573309
aI447
aI524740
aI459
aI476
aI493
aI786935
aI521
aI525
aI1049104
aI536
aI550
aI571
aI572
aI787016
aI619
aI2884230
aI648
aI653
aI262808
aI1573531
aI1311393
aI262822
aI698
aI262868
aI728
aI262875
aI736
aI740
aI830247
aI751
aI1311472
aI758
aI787195
aI769
aI1835788
aI781
aI784
aI792
aI794
aI525090
aI806
aI810
aI811
aI813
aI1573683
aI832
aI87520
aI262980
aI1573708
aI263004
aI1311593
aI2622314
aI1835884
aI893
aI905
aI263057
aI914
aI956
aI525251
aI974
aI787407
aI2098149
aI1026
aI1053
aI525374
aI1049668
aI1097
aI1136141
aI263251
aI1109
aI1114
aI1116
aI1123
aI1574004
aI1149
aI2098335
aI1200
aI787648
aI263362
aI1228
aI1237
aI525530
aI1249
aI174971
aI1265
aI525558
aI1311994
aI1278
aI1288
aI1323
aI1324
aI787757
aI1574198
aI2360631
aI1341
aI1344
aI1310945
aI1363
aI787796
aI263525
aI1312107
aI1400
aI1409
aI1414
aI525714
aI1432
aI1450
aI524530
aI1454
aI393459
aI787893
aI2098614
aI1483
aI525788
aI1527
aI263681
aI1538
aI525828
aI262401
aI263692
aI1836557
aI1551
aI1050156
aI1583
aI1585
aI1588
aI1591
aI1836600
aI2098747
aI267
aI1574477
aI1574489
aI1638
aI1310995
aI525940
aI1654
aI1659
aI1664
aI1694
aI1697
aI1738
aI263895
aI526040
aI1755
aI1574622
aI788192
aI1762
aI1775
aI1786
aI788220
aI1790
aI1312519
aI1801
aI1050382
aI2361104
aI1820
aI1312544
aI788260
aI1831
aI526133
aI2623298
aI1862
aI262456
aI264020
aI1312610
aI1896
aI1897
aI1050479
aI1904
aI1907
aI1908
aI437226
aI1920
aI1921
aI1934
aI1942
aI1946
aI1950
aI1965
aI1968
aI1704264
aI1980
aI1312722
aI1312728
aI788441
aI2025
aI526321
aI1050610
aI264181
aI2038
aI264194
aI480943
aI788509
aI526367
aI2080
aI2086
aI2119
aI2120
aI264276
aI2133
aI87739
aI2199
aI2214
aI371
aI1050809
aI2238
aI526535
aI264395
aI2257
aI526547
aI2273
aI2284
aI2287
aI2291
aI2321
aI264480
aI2435402
aI44084
aI2362
aI2363
aI1575238
aI2385
aI2405
aI1313143
aI2424
aI788864
aI2443
aI2452
aI2469
aI2484
aI2486
aI2491
aI2515
aI2525
aI2536
aI2541
aI2543
aI526849
aI264735
aI2596
aI2598
aI2603
aI2611
aI2648
aI264794
aI264795
aI1313373
aI789090
aI2671
aI2099829
aI2688
aI1005334
aI2701
aI1575570
aI759517
aI1837731
aI2733
aI2749
aI789186
aI1051334
aI2766
aI789213
aI2785
aI2788
aI2797
aI628584
aI527096
aI2828
aI1051410
aI2847
aI2859
aI1837881
aI527185
aI2908
aI789344
aI527205
aI1837926
aI2932
aI2938
aI2952
aI2955
aI2972
aI1575844
aI2988
aI2990
aI265159
aI265165
aI527312
aI1313757
aI3041
aI3043
aI3055
aI265205
aI3078
aI265232
aI2886678
aI1051677
aI3105
aI1313855
aI3171
aI1313904
aI3191
aI612202
aI3201
aI3204
aI1049111
aI3215
aI646056
aI2100372
aI2100435
aI3287
aI527577
aI3149020
aI1838307
aI515124
aI527617
aI3333
aI830680
aI3347
aI3354
aI2185093
aI253254
aI265510
aI3381
aI1576247
aI527687
aI524855
aI1576269
aI3408
aI527698
aI1314132
aI1314143
aI265570
aI265575
aI131050
aI3461
aI1838483
aI3485
aI527776
aI2362799
aI3527
aI393805
aI3542
aI2624986
aI2887133
aI527840
aI3560
aI265712
aI3571
aI3572
aI265736
aI3594
aI3603
aI527892
aI350127
aI1052204
aI790070
aI3659
aI3661
aI265807
aI527968
aI3695
aI3713
aI3737
aI3742
aI1838763
aI3767
aI1052356
aI790224
aI3797
aI3798
aI2625248
aI265966
aI3827
aI3834
aI44330
aI3848
aI175407
aI3916
aI3937
aI3947
aI790387
aI3957
aI266115
aI528262
aI3980
aI266143
aI4012
aI266159
aI1052622
aI1573542
aI528370
aI4092
aI1576957
aI696600
aI266249
aI44375
aI2101267
aI4144
aI528436
aI4172
aI4174
aI4192
aI524987
aI4196
aI4203
aI1839214
aI1052788
aI528507
aI4239
aI4249
aI4257
aI790695
aI88092
aI4279
aI266453
aI4321
aI4323
aI3150057
aI4333
aI4337
aI1052923
aI4376
aI266535
aI266541
aI790846
aI266561
aI1315142
aI1839439
aI4433
aI4435
aI2101598
aI1315176
aI4465
aI2625906
aI745
aI1315199
aI4481
aI4489
aI790955
aI4525
aI1053103
aI1577396
aI4574
aI4588
aI4590
aI350294
aI1053204
aI1267801
aI4636
aI1748400
aI266795
aI4665
aI4668
aI1311500
aI266846
aI977809
aI4714
aI4725
aI1053331
aI1053335
aI1053338
aI4771
aI1315498
aI4782
aI4830
aI4833
aI4853
aI791287
aI656172
aI1484099
aI4879
aI4893
aI529189
aI4903
aI529193
aI4926
aI4936
aI1577814
aI131898
aI529259
aI2888561
aI1315734
aI5017
aI5023
aI5055
aI5056
aI5058
aI1180492
aI2364363
aI1053742
aI5169
aI5190
aI791657
aI2102393
aI791686
aI267404
aI5286
aI5287
aI5295
aI529585
aI5298
aI5304
aI5321
aI2364629
aI1316060
aI5343
aI1053949
aI529689
aI5416
aI1355315
aI1049481
aI529725
aI5441
aI5445
aI1316166
aI1054036
aI5465
aI5468
aI529758
aI267631
aI791979
aI791998
aI88310
aI1054151
aI1136887
aI5597
aI529891
aI5628
aI1578500
aI5646
aI1054225
aI5651
aI529967
aI5701
aI1316440
aI1578604
aI267887
aI5744
aI5746
aI2889345
aI5791
aI1578667
aI5817
aI1486454
aI792264
aI1180620
aI5834
aI1054425
aI267998
aI5865
aI792302
aI1316617
aI1054484
aI5921
aI268074
aI1578811
aI268093
aI511558
aI1316698
aI5981
aI5987
aI6010
aI1316731
aI792445
aI1841029
aI1841048
aI6044
aI6062
aI2141853
aI268273
aI6144
aI6146
aI1379394
aI1841194
aI263175
aI530502
aI6216
aI530514
aI6234
aI6244
aI831164
aI268396
aI6258
aI628700
aI6309
aI3152069
aI792791
aI6388
aI612734
aI530681
aI1054992
aI530709
aI481670
aI6440
aI6461
aI1579327
aI6482
aI2404067
aI6491
aI1030243
aI6512
aI6521
aI792970
aI1137055
aI793024
aI268742
aI6604
aI6615
aI6651
aI874927
aI1317409
aI6691
aI1055284
aI6733
aI44816
aI6760
aI531052
aI1317492
aI6782
aI219586
aI1661380
aI6819
aI1055398
aI268968
aI268969
aI6848
aI1841920
aI6920
aI1317651
aI525445
aI6946
aI6948
aI1579821
aI44853
aI1442966
aI1055628
aI531342
aI916784
aI88558
aI1055655
aI1317805
aI7094
aI1317845
aI1317864
aI831314
aI7173
aI471607
aI793633
aI1580068
aI1317927
aI7210
aI269377
aI269394
aI2054671
aI7264
aI7280
aI1318002
aI1842294
aI7315
aI269493
aI531644
aI793796
aI7370
aI7376
aI269521
aI1318117
aI793842
aI1055987
aI7412
aI7423
aI7426
aI7432
aI1056010
aI269581
aI7441
aI1580322
aI7469
aI1318194
aI7488
aI7516
aI269670
aI1606394
aI531851
aI1093528
aI7581
aI7585
aI7586
aI7595
aI7602
aI1842618
aI7613
aI7616
aI7625
aI2797476
aI531940
aI269804
aI531954
aI794102
aI7675
aI7679
aI269829
aI7714
aI1842729
aI88672
aI269892
aI532070
aI7793
aI794226
aI2367096
aI794234
aI532102
aI7816
aI2104976
aI269970
aI7831
aI7847
aI7867
aI7872
aI7883
aI270037
aI7894
aI7913
aI532205
aI307157
aI1093590
aI7979
aI7988
aI8005
aI1335
aI532314
aI8041
aI1580941
aI794513
aI1580962
aI8123
aI270274
aI8131
aI1056711
aI532430
aI8151
aI1698732
aI532489
aI8206
aI8236
aI794713
aI1305911
aI1056885
aI8331
aI794764
aI8338
aI2891929
aI8360
aI1581226
aI1843388
aI8384
aI8388
aI532685
aI532688
aI532695
aI8409
aI8427
aI8435
aI1319187
aI1057045
aI3154233
aI532797
aI1423
aI176186
aI1581413
aI8559
aI8563
aI794996
aI532870
aI8590
aI969210
aI8611
aI8655
aI1581522
aI656804
aI532978
aI8707
aI8710
aI8715
aI795149
aI795158
aI8745
aI8804
aI8815
aI1843848
aI8844
aI105043
aI1057429
aI2106009
aI8884
aI795319
aI1057485
aI8930
aI8946
aI1057527
aI8954
aI8960
aI8969
aI1057547
aI533260
aI8985
aI8986
aI1057564
aI2630447
aI2630455
aI9021
aI1057639
aI1319787
aI482111
aI795532
aI351043
aI271253
aI533399
aI1411314
aI9128
aI1057730
aI1582029
aI533454
aI9167
aI271353
aI2630668
aI2885122
aI2630674
aI1268570
aI9249
aI795683
aI9254
aI1319998
aI2630732
aI9296
aI1582164
aI1582182
aI9328
aI271475
aI1320053
aI9345
aI9360
aI9371
aI2630817
aI1844389
aI9394
aI9396
aI2106556
aI9406
aI271577
aI9438
aI9443
aI533738
aI795896
aI9475
aI569558
aI1580
aI795961
aI1749217
aI97828
aI1058134
aI795995
aI1058140
aI533861
aI796017
aI1058166
aI1844608
aI9625
aI220060
aI533941
aI1058232
aI533953
aI9686
aI271917
aI9796
aI1844811
aI9811
aI534101
aI534109
aI438544
aI3147366
aI534124
aI271999
aI9859
aI534150
aI272031
aI1058466
aI9897
aI3155639
aI1320635
aI272072
aI534223
aI272084
aI9951
aI482256
aI796393
aI9970
aI1582846
aI9990
aI796443
aI10018
aI10026
aI1058609
aI272193
aI534362
aI1880380
aI534406
aI796554
aI10141
aI796584
aI796611
aI1845194
aI534476
aI10202
aI796717
aI10322
aI10333
aI10369
aI2369697
aI1845423
aI10423
aI10431
aI35264
aI534755
aI2107657
aI1059101
aI10558
aI534862
aI10583
aI10585
aI10608
aI797049
aI797063
aI569751
aI1662018
aI10639
aI10661
aI272839
aI1059273
aI1583566
aI1845714
aI10717
aI10728
aI1126404
aI797194
aI10771
aI10778
aI1845790
aI272958
aI10861
aI797303
aI2632346
aI797363
aI1059529
aI797393
aI1059549
aI535275
aI1321716
aI535296
aI11011
aI11027
aI273189
aI11047
aI273200
aI797495
aI1181494
aI1583946
aI2894682
aI2108256
aI11114
aI273270
aI351383
aI1836866
aI535467
aI11181
aI1846192
aI2370483
aI535480
aI11197
aI11208
aI2370514
aI1321941
aI1321944
aI11236
aI1059828
aI11256
aI797692
aI11301
aI535617
aI613559
aI11354
aI11388
aI11397
aI11427
aI11451
aI1846480
aI1322198
aI1094181
aI797922
aI11492
aI273637
aI1846533
aI11530
aI11549
aI2108715
aI11568
aI11569
aI11577
aI535871
aI1225270
aI798042
aI11619
aI1060205
aI535935
aI11649
aI11654
aI1322390
aI273816
aI535962
aI798116
aI11702
aI11708
aI1060292
aI2108893
aI1322469
aI1060350
aI11792
aI11820
aI1060407
aI11834
aI273985
aI274008
aI2536037
aI1584746
aI1846918
aI1060487
aI11917
aI11926
aI11940
aI244811
aI657355
aI11995
aI12030
aI1584898
aI12038
aI12043
aI274188
aI1322767
aI2371360
aI1060656
aI1060679
aI798539
aI1060686
aI12148
aI2633591
aI978057
aI12161
aI1847185
aI12178
aI1847203
aI274340
aI798634
aI45725
aI96100
aI12243
aI798681
aI12280
aI274473
aI12349
aI274519
aI12388
aI2109573
aI2633871
aI1061012
aI798880
aI12471
aI536768
aI1061086
aI536801
aI274673
aI1585400
aI367037
aI12540
aI12579
aI1585455
aI620181
aI12604
aI12605
aI799046
aI12637
aI799073
aI12649
aI1061257
aI536984
aI12707
aI12711
aI12716
aI2634160
aI12725
aI12730
aI2109888
aI537031
aI12744
aI439031
aI537046
aI12772
aI1061391
aI12855
aI12870
aI275019
aI537173
aI12918
aI12930
aI2110100
aI12950
aI1618713
aI307994
aI12958
aI12960
aI12971
aI12983
aI13018
aI13019
aI1061602
aI570150
aI799476
aI799481
aI13054
aI13055
aI799502
aI351705
aI13087
aI1323813
aI275243
aI13153
aI799588
aI2110309
aI13198
aI1061786
aI13216
aI13227
aI13249
aI537541
aI13263
aI13264
aI13279
aI13281
aI1061871
aI537584
aI1324019
aI2110460
aI1061903
aI275477
aI537623
aI13356
aI1880925
aI13375
aI13379
aI1061967
aI13397
aI275567
aI799858
aI13442
aI799876
aI13447
aI1062025
aI308079
aI13480
aI799917
aI275643
aI275647
aI13508
aI13549
aI351785
aI613932
aI800014
aI1848600
aI1335996
aI537913
aI13627
aI1848654
aI13663
aI1324423
aI1062281
aI537998
aI13724
aI800170
aI2110909
aI13803
aI800237
aI13816
aI13825
aI800261
aI800270
aI2373138
aI275990
aI13860
aI276022
aI13895
aI276052
aI13913
aI276068
aI13925
aI276070
aI538216
aI13930
aI276076
aI13956
aI276101
aI2580076
aI276106
aI1749956
aI276138
aI1586880
aI800457
aI14026
aI1324756
aI14054
aI14104
aI276250
aI14118
aI14131
aI800608
aI800639
aI14253
aI538551
aI276409
aI745121
aI538570
aI46072
aI800728
aI538594
aI2373629
aI14343
aI1849359
aI14357
aI538646
aI800793
aI538669
aI800817
aI1062992
aI14419
aI14451
aI14454
aI1063035
aI800907
aI538778
aI14514
aI276673
aI1325272
aI14569
aI1325290
aI538866
aI2111737
aI14606
aI483032
aI801042
aI538901
aI2898215
aI14637
aI14651
aI2636099
aI14690
aI526741
aI539023
aI14744
aI14749
aI14750
aI14753
aI2580211
aI14777
aI1587645
aI801241
aI276999
aI14860
aI1587739
aI14877
aI308315
aI14897
aI2112051
aI539209
aI277067
aI14924
aI14955
aI14971
aI277136
aI1587858
aI277140
aI539285
aI1587864
aI801434
aI2374302
aI15031
aI801466
aI15055
aI15066
aI15099
aI1587973
aI801544
aI539403
aI15124
aI1063703
aI1063706
aI277284
aI1063730
aI277304
aI15168
aI1588064
aI539509
aI15245
aI2112408
aI801702
aI801706
aI2898867
aI801751
aI15349
aI277509
aI1588233
aI15393
aI15394
aI539686
aI15416
aI15421
aI2636882
aI1326169
aI277600
aI262386
aI15472
aI277666
aI1850534
aI15537
aI15541
aI308425
aI1064121
aI1326271
aI2637006
aI1064171
aI1850609
aI2112754
aI539895
aI15609
aI277757
aI15614
aI802050
aI1064226
aI1064270
aI15697
aI1850710
aI15710
aI1064305
aI1064325
aI1588648
aI1326512
aI1064374
aI1064378
aI1326536
aI904428
aI15872
aI540162
aI802335
aI2653
aI278064
aI540245
aI540247
aI802397
aI1588845
aI15982
aI540274
aI15992
aI15996
aI1064584
aI1851024
aI2113185
aI802471
aI2637490
aI540352
aI1746344
aI16124
aI278275
aI540422
aI540447
aI540453
aI46387
aI16185
aI1064767
aI1064794
aI2580455
aI16271
aI278435
aI802727
aI16299
aI16306
aI16308
aI2113468
aI1851329
aI1064901
aI253686
aI802791
aI16363
aI90111
aI46425
aI1851442
aI540753
aI802899
aI1589336
aI540765
aI16509
aI16511
aI1662998
aI540812
aI1051331
aI802965
aI1414655
aI1065129
aI439667
aI802997
aI16567
aI2113722
aI221217
aI16587
aI1065171
aI1065180
aI1065197
aI177534
aI278785
aI16668
aI1589540
aI540965
aI278899
aI278918
aI16777
aI16779
aI16782
aI541091
aI541098
aI2113963
aI2209007
aI2113969
aI16822
aI278976
aI541137
aI1065429
aI1589724
aI1226150
aI16883
aI16892
aI16911
aI1065489
aI16940
aI1095090
aI1065525
aI16959
aI701879
aI1851986
aI570812
aI17017
aI1824936
aI803458
aI17028
aI17032
aI279204
aI803518
aI17091
aI2231075
aI803540
aI17112
aI541404
aI17121
aI17162
aI2318467
aI17172
aI17174
aI1065786
aI279372
aI17232
aI279393
aI279395
aI1590121
aI279412
aI17300
aI803739
aI17335
aI279482
aI218340
aI17360
aI820640
aI541667
aI803841
aI2114572
aI541714
aI279577
aI803876
aI279608
aI17469
aI2915
aI803925
aI279644
aI541796
aI570897
aI17516
aI279680
aI541827
aI2308060
aI1328300
aI17602
aI541927
aI804087
aI804091
aI1066240
aI804100
aI527233
aI2901323
aI1328497
aI17781
aI1328508
aI17803
aI1328531
aI17815
aI279966
aI17826
aI1328550
aI17846
aI17847
aI804289
aI17875
aI17887
aI1328612
aI17896
aI218822
aI280050
aI17919
aI2115079
aI2668119
aI1328656
aI542251
aI17964
aI280143
aI1590872
aI18027
aI134077
aI804477
aI1328768
aI804495
aI18077
aI280222
aI646551
aI804517
aI280244
aI177784
aI833146
aI18146
aI18157
aI352552
aI908425
aI1853181
aI18180
aI804614
aI18192
aI1663278
aI542488
aI1591067
aI2199825
aI18210
aI1853229
aI18228
aI2115381
aI1328954
aI533079
aI1066828
aI1328978
aI542550
aI18264
aI18265
aI280410
aI3050
aI1066915
aI1066922
aI1329081
aI804799
aI920572
aI542701
aI804867
aI2639882
aI542734
aI280598
aI1853467
aI46768
aI2902053
aI1067051
aI221537
aI18511
aI804976
aI18565
aI280730
aI18590
aI2640048
aI2377920
aI18626
aI18636
aI280783
aI1329367
aI1329397
aI280842
aI18706
aI805151
aI306140
aI876937
aI602928
aI1329482
aI18771
aI18772
aI18774
aI1591669
aI18811
aI280972
aI805266
aI18846
aI18856
aI1067434
aI281028
aI18895
aI281043
aI18914
aI18936
aI1067521
aI2640400
aI2116149
aI19020
aI543318
aI2116213
aI925913
aI19068
aI2902661
aI543368
aI19090
aI281252
aI19165
aI19166
aI281335
aI1592069
aI19212
aI805681
aI543559
aI19302
aI543601
aI281469
aI1592191
aI281472
aI46914
aI281488
aI1330118
aI19401
aI543693
aI19409
aI19468
aI281614
aI1794563
aI1068058
aI309086
aI1592398
aI281682
aI19540
aI1068142
aI1068147
aI19617
aI806061
aI2903251
aI19676
aI19687
aI1068266
aI544000
aI1179077
aI524399
aI806169
aI19746
aI2641208
aI90678
aI19799
aI544109
aI19851
aI282000
aI1068443
aI124084
aI79225
aI1068539
aI19966
aI282112
aI1592836
aI847382
aI2641425
aI544277
aI19990
aI544283
aI20003
aI527623
aI1592884
aI282175
aI20032
aI20074
aI20089
aI637889
aI1855126
aI20126
aI20128
aI1068719
aI3165879
aI806599
aI1068746
aI20178
aI20198
aI282352
aI544505
aI2117389
aI20261
aI1532551
aI20272
aI1331003
aI2903898
aI20336
aI282484
aI1855357
aI1008278
aI1855383
aI20394
aI2117550
aI20417
aI463319
aI282601
aI527702
aI544779
aI440323
aI20504
aI178183
aI544825
aI282706
aI544856
aI20578
aI1069156
aI1069158
aI1855592
aI1069189
aI282772
aI807072
aI544931
aI20654
aI20670
aI544963
aI20689
aI1331430
aI20713
aI1331451
aI545030
aI1314177
aI1069320
aI1855753
aI789893
aI20770
aI1069352
aI807229
aI20801
aI20820
aI47161
aI1069405
aI1331554
aI807268
aI20848
aI20862
aI283037
aI545192
aI2642356
aI283078
aI20938
aI20946
aI545247
aI20972
aI20980
aI20992
aI1069604
aI21030
aI283181
aI545328
aI545332
aI21062
aI1331842
aI807560
aI2642616
aI1856206
aI21200
aI21217
aI283366
aI1331947
aI21239
aI807674
aI545537
aI21310
aI3552
aI1069899
aI21336
aI178320
aI1332068
aI807787
aI283505
aI283509
aI2642809
aI21399
aI545701
aI807851
aI21424
aI21441
aI21460
aI21461
aI283608
aI309412
aI61818
aI1332190
aI2537637
aI21475
aI545773
aI1856504
aI283676
aI807969
aI402253
aI2118700
aI21574
aI545865
aI283727
aI283739
aI21613
aI21632
aI21640
aI283807
aI2643110
aI1856680
aI21677
aI21699
aI2381006
aI283863
aI21755
aI384803
aI283933
aI1856861
aI21886
aI2119053
aI309486
aI21926
aI2905527
aI47348
aI808393
aI1856970
aI21966
aI1332691
aI546272
aI808417
aI3167751
aI2381321
aI22033
aI2905625
aI808516
aI546382
aI284240
aI808532
aI1070732
aI22164
aI1532871
aI284364
aI22224
aI2537766
aI47401
aI1070844
aI808719
aI615385
aI22303
aI284476
aI22364
aI22371
aI546661
aI2381671
aI284538
aI1333133
aI22417
aI22419
aI396956
aI284602
aI22459
aI22466
aI484342
aI22470
aI22474
aI1333195
aI808921
aI91130
aI2013521
aI615421
aI22514
aI284685
aI22550
aI546861
aI284731
aI284741
aI2119757
aI1333329
aI22617
aI1595495
aI1071228
aI22656
aI1071246
aI22673
aI546999
aI1595578
aI547020
aI1882497
aI284947
aI1071383
aI547122
aI809280
aI547144
aI809301
aI809314
aI547214
aI22946
aI702875
aI1071526
aI1071527
aI547242
aI285102
aI22982
aI809423
aI22992
aI23044
aI1071630
aI23056
aI1595944
aI1333809
aI285263
aI1074442
aI2120289
aI23142
aI285289
aI1333873
aI472139
aI1008748
aI23199
aI1858208
aI1333941
aI1401975
aI23263
aI285409
aI1858280
aI23283
aI23300
aI547640
aI23354
aI23368
aI285587
aI2382743
aI23457
aI285619
aI23501
aI809953
aI23528
aI1072112
aI2907128
aI760211
aI810007
aI1072186
aI810051
aI1596489
aI23649
aI53162
aI23666
aI1596545
aI1596547
aI23691
aI3140846
aI285878
aI810176
aI548046
aI23760
aI23786
aI571946
aI285951
aI23810
aI23815
aI23822
aI23855
aI23886
aI1334612
aI1334635
aI548225
aI746736
aI23999
aI286149
aI24010
aI548322
aI877819
aI24054
aI286204
aI746757
aI2645538
aI548396
aI286260
aI24122
aI987185
aI2907723
aI24147
aI1072735
aI24170
aI24181
aI810628
aI2121349
aI24215
aI24224
aI810669
aI1072828
aI1072830
aI548568
aI286432
aI24380
aI2121538
aI1597255
aI548696
aI1335141
aI24433
aI24445
aI286595
aI286599
aI810899
aI810901
aI810911
aI47773
aI1073107
aI1073122
aI1073131
aI548854
aI811001
aI24582
aI548874
aI24587
aI811131
aI286871
aI24744
aI3170478
aI24755
aI811211
aI811240
aI441047
aI549141
aI24874
aI287020
aI287047
aI2975123
aI811405
aI24995
aI811439
aI1073633
aI1073635
aI25066
aI549363
aI549372
aI287256
aI2908724
aI25152
aI287300
aI47886
aI1073758
aI549472
aI1073772
aI25210
aI25216
aI25251
aI1073836
aI175422
aI1073852
aI287436
aI25300
aI287455
aI287464
aI25330
aI2646788
aI1598213
aI811785
aI25358
aI25375
aI25380
aI266374
aI1336112
aI25398
aI25412
aI25427
aI287583
aI25449
aI549755
aI1598333
aI811918
aI549820
aI1074110
aI2887841
aI746999
aI25549
aI549848
aI25616
aI287783
aI812155
aI812183
aI1598643
aI1860800
aI1336514
aI1074382
aI25815
aI1074400
aI287976
aI91687
aI812269
aI812303
aI288032
aI550190
aI1074481
aI812369
aI25949
aI2218635
aI288143
aI26004
aI1074592
aI1074594
aI550309
aI26051
aI288201
aI550349
aI26115
aI2123290
aI26160
aI26188
aI26192
aI26210
aI2909797
aI26226
aI1336975
aI26259
aI1861269
aI1599191
aI550618
aI26331
aI26334
aI1074944
aI26394
aI26406
aI288564
aI288568
aI26457
aI26479
aI812912
aI26481
aI1075059
aI288629
aI550794
aI288671
aI288672
aI1599479
aI26620
aI26626
aI288773
aI813080
aI310276
aI26658
aI790877
aI550975
aI26721
aI2648179
aI26742
aI551049
aI288906
aI1861779
aI2648239
aI1599694
aI26859
aI26860
aI1337617
aI26931
aI26932
aI2648376
aI1075534
aI1075543
aI27009
aI27020
aI551322
aI1862063
aI27073
aI289219
aI813523
aI289246
aI551436
aI2124303
aI289319
aI1337906
aI1600058
aI27198
aI1589591
aI27204
aI1862225
aI1862228
aI289396
aI1075829
aI1600124
aI27294
aI813730
aI27309
aI1338055
aI551625
aI27340
aI1600231
aI1338103
aI27388
aI27423
aI2911020
aI27439
aI551734
aI27474
aI1338201
aI27482
aI27512
aI289666
aI27528
aI27536
aI551841
aI1338290
aI1338292
aI27583
aI814048
aI814059
aI27637
aI289832
aI266763
aI1076305
aI1983611
aI1862779
aI552067
aI1065868
aI1076389
aI1600680
aI814253
aI289985
aI814290
aI27862
aI1694362
aI552182
aI552185
aI27905
aI27922
aI27938
aI27958
aI1600854
aI1053241
aI572644
aI92048
aI28004
aI552301
aI2387316
aI814463
aI290187
aI28053
aI28071
aI290221
aI1338846
aI28128
aI2649570
aI28144
aI552438
aI1076743
aI28169
aI1863179
aI290338
aI814628
aI290343
aI290359
aI1338936
aI2649661
aI814679
aI814690
aI28260
aI28278
aI1338999
aI1339012
aI1076889
aI28324
aI814761
aI2125485
aI28376
aI28380
aI28388
aI28401
aI28408
aI1077003
aI290583
aI1601332
aI2387772
aI814916
aI552792
aI1077101
aI28540
aI28543
aI179520
aI552840
aI28567
aI2125720
aI28582
aI1077160
aI28604
aI552902
aI1077204
aI290784
aI815073
aI28643
aI1533953
aI1339459
aI28779
aI553073
aI1601656
aI553081
aI553098
aI28832
aI28841
aI815295
aI553153
aI28884
aI1446609
aI553195
aI1077485
aI553209
aI815386
aI553279
aI1601857
aI48523
aI791265
aI1077609
aI815466
aI291180
aI29043
aI291189
aI3174788
aI29093
aI1077670
aI2388392
aI553404
aI2912714
aI2126292
aI291293
aI29152
aI2276782
aI2126368
aI62076
aI553523
aI1339987
aI29270
aI29277
aI2388585
aI815724
aI29297
aI2126487
aI29347
aI815792
aI291541
aI29407
aI29429
aI291589
aI291600
aI1078035
aI29462
aI553773
aI1078067
aI1140873
aI291640
aI2650938
aI29502
aI1864513
aI291670
aI553862
aI291733
aI29595
aI2651036
aI291741
aI1864610
aI553909
aI29655
aI29696
aI4950
aI29707
aI1053530
aI29746
aI524733
aI816227
aI2389101
aI554135
aI1864864
aI2127039
aI554180
aI29903
aI376345
aI816374
aI1340674
aI966187
aI816416
aI29995
aI1602864
aI30007
aI30018
aI30038
aI292230
aI1563501
aI816602
aI816620
aI92414
aI30203
aI30225
aI179805
aI5043
aI30273
aI816721
aI573045
aI1621622
aI1603275
aI30433
aI292578
aI30440
aI292586
aI30447
aI1603313
aI1272107
aI292614
aI1079047
aI554761
aI30478
aI30512
aI292659
aI554821
aI30545
aI816987
aI292712
aI292731
aI1341308
aI292735
aI30594
aI48791
aI616776
aI1840115
aI1341373
aI30674
aI30697
aI817152
aI555017
aI2652208
aI30812
aI555116
aI817277
aI900119
aI293042
aI30913
aI817349
aI30921
aI30945
aI30946
aI1079573
aI2652444
aI2914589
aI5168
aI2128168
aI555322
aI555325
aI31039
aI1603952
aI555384
aI293248
aI1866147
aI293291
aI485790
aI2914742
aI293352
aI555518
aI1079821
aI293403
aI31284
aI31288
aI555605
aI31318
aI555632
aI31395
aI555699
aI1342159
aI31444
aI1342180
aI293612
aI555760
aI1604346
aI293627
aI31491
aI1080079
aI817950
aI31567
aI31582
aI2390904
aI31610
aI555899
aI31615
aI31641
aI555946
aI818091
aI31662
aI31671
aI1342405
aI573261
aI1866722
aI556009
aI2128875
aI293885
aI818182
aI818187
aI1080354
aI31791
aI556087
aI2915384
aI1866810
aI1681414
aI556124
aI31884
aI2915481
aI31899
aI2915493
aI1342638
aI1866939
aI294076
aI31945
aI1866998
aI294150
aI294176
aI32037
aI32050
aI1080633
aI88358
aI1080670
aI556388
aI681934
aI2391413
aI32129
aI354881
aI32140
aI1080723
aI818600
aI1053938
aI32177
aI32203
aI294360
aI32225
aI556536
aI385152
aI2129425
aI818732
aI2408371
aI1080890
aI556617
aI818764
aI2129509
aI1081030
aI556767
aI556770
aI1053992
aI1343222
aI818944
aI1490904
aI660784
aI294700
aI1010312
aI556856
aI819031
aI786699
aI1578298
aI1343333
aI1048572
aI1081234
aI1867669
aI2129835
aI1490931
aI1343420
aI32704
aI557015
aI557019
aI819194
aI32775
aI557090
aI2392106
aI32812
aI32816
aI1081396
aI294972
aI294980
aI1343560
aI294986
aI1267667
aI2801687
aI32943
aI879306
aI295112
aI1343690
aI1796813
aI819417
aI1081569
aI1605879
aI1343736
aI557306
aI311339
aI33036
aI33051
aI33052
aI557342
aI1605966
aI557396
aI295262
aI295264
aI557410
aI557419
aI1605999
aI180286
aI557445
aI33160
aI33164
aI295342
aI557489
aI1343924
aI33212
aI33225
aI33226
aI33258
aI33264
aI295440
aI819732
aI557597
aI1081897
aI557612
aI295508
aI1081941
aI1310467
aI180326
aI819887
aI557748
aI33466
aI2654924
aI819947
aI33522
aI557836
aI557846
aI1606432
aI295734
aI33604
aI820039
aI529892
aI295770
aI295783
aI879420
aI1868660
aI295797
aI33663
aI295813
aI820119
aI295852
aI33727
aI33732
aI558021
aI558038
aI558049
aI136700
aI311465
aI1344509
aI820254
aI2846794
aI2917432
aI1868857
aI295996
aI1082440
aI1606729
aI1082449
aI442553
aI33918
aI1082527
aI558243
aI820436
aI34009
aI1344760
aI1606912
aI1534849
aI34065
aI1082646
aI34088
aI835805
aI34102
aI1606984
aI2619849
aI34201
aI296346
aI355226
aI34208
aI34211
aI1344937
aI558517
aI820664
aI1344955
aI1869253
aI558569
aI296433
aI1869308
aI558592
aI558672
aI34386
aI820822
aI34397
aI3180129
aI111960
aI296568
aI558724
aI34441
aI2131601
aI1083026
aI558751
aI296609
aI1170839
aI296677
aI2131689
aI34586
aI1607462
aI821057
aI1083228
aI2656101
aI34671
aI2131848
aI34715
aI296861
aI821161
aI296889
aI559070
aI559079
aI34796
aI34806
aI559095
aI34813
aI1345535
aI34831
aI34855
aI559157
aI2394172
aI821334
aI442724
aI1013731
aI1083494
aI559210
aI559221
aI2583572
aI34942
aI297087
aI297114
aI2724625
aI297183
aI821473
aI1607918
aI821488
aI35070
aI1403947
aI1083652
aI1083663
aI35091
aI35092
aI1607968
aI1607977
aI35116
aI35130
aI1083764
aI35197
aI1345943
aI821657
aI297376
aI268016
aI821722
aI297435
aI35292
aI1083898
aI297484
aI821773
aI559648
aI35363
aI1083946
aI2656811
aI1491380
aI1870394
aI180664
aI297592
aI2714730
aI559745
aI297641
aI35501
aI786796
aI297683
aI1870555
aI1084133
aI821995
aI1084143
aI93311
aI35585
aI1608452
aI559882
aI1608464
aI1608468
aI297762
aI297765
aI559913
aI35634
aI2132800
aI559940
aI297811
aI1346404
aI822138
aI1346464
aI2657237
aI560114
aI35829
aI1972052
aI180736
aI1084437
aI298053
aI560215
aI1608816
aI560287
aI560299
aI298165
aI1084619
aI36071
aI298225
aI298233
aI560383
aI1084691
aI355548
aI822580
aI748766
aI36175
aI36191
aI822630
aI2919798
aI2133379
aI822711
aI560585
aI36305
aI560600
aI298479
aI560642
aI822789
aI560648
aI1578925
aI705115
aI560735
aI36465
aI1347215
aI1142042
aI36525
aI36531
aI36537
aI836214
aI1085134
aI1347281
aI2920151
aI298745
aI1085196
aI560942
aI36656
aI823109
aI36687
aI36723
aI823161
aI823172
aI2658189
aI1563723
aI823235
aI36866
aI561194
aI36938
aI299121
aI823441
aI37020
aI561309
aI299189
aI1895436
aI37081
aI823519
aI1085699
aI37147
aI49885
aI37189
aI37190
aI2920779
aI561485
aI1085778
aI2920787
aI37207
aI37213
aI574181
aI1347953
aI2396540
aI561545
aI823725
aI37298
aI823738
aI149636
aI1085891
aI1610186
aI1872379
aI2134538
aI561690
aI561731
aI299592
aI2134604
aI37460
aI37472
aI1348195
aI37489
aI37494
aI37507
aI823942
aI823966
aI561846
aI1348324
aI1610473
aI299756
aI299782
aI299787
aI1610517
aI1348391
aI37710
aI1610582
aI1086317
aI299897
aI3183491
aI562073
aI299934
aI2659259
aI1348550
aI37843
aI824280
aI562145
aI300011
aI37881
aI562183
aI2135051
aI824377
aI37947
aI1086529
aI1086560
aI1873002
aI2659458
aI245679
aI38024
aI1873041
aI824472
aI2135194
aI38055
aI300204
aI562355
aI1873094
aI836474
aI562401
aI1610986
aI38124
aI38126
aI1086727
aI38207
aI1349025
aI50079
aI224844
aI1873387
aI300526
aI224855
aI1086991
aI38426
aI1349152
aI1873446
aI1087040
aI824904
aI562764
aI1873485
aI952747
aI1349218
aI50109
aI2659972
aI1087119
aI1349334
aI661797
aI300797
aI181206
aI38666
aI300836
aI1087273
aI300863
aI1087299
aI38743
aI2135910
aI563070
aI224918
aI1087370
aI38795
aI300996
aI1087433
aI825297
aI1087464
aI50173
aI301043
aI1611779
aI1087547
aI301152
aI39013
aI6504
aI39068
aI356042
aI301277
aI301280
aI50214
aI301303
aI39161
aI1349916
aI224988
aI563535
aI563545
aI137615
aI825695
aI1087847
aI1087848
aI301419
aI825711
aI1612146
aI399770
aI1087910
aI825780
aI39353
aI825789
aI880379
aI1087998
aI1612290
aI39430
aI93953
aI301596
aI1350193
aI301635
aI563807
aI39622
aI1350344
aI6610
aI618281
aI301816
aI301832
aI39709
aI564000
aI39722
aI1350476
aI39785
aI225085
aI564083
aI39808
aI39809
aI39843
aI1350570
aI826290
aI564157
aI39904
aI1874924
aI2278569
aI1088520
aI826384
aI302103
aI39992
aI1875004
aI40015
aI564353
aI40080
aI302246
aI826568
aI399908
aI1875166
aI40161
aI302341
aI123545
aI40214
aI1088797
aI302414
aI826714
aI1875296
aI40342
aI40352
aI2661818
aI1011616
aI498900
aI564689
aI1613278
aI564721
aI2137601
aI826898
aI1613335
aI564806
aI40521
aI1823713
aI1197228
aI1351319
aI40614
aI827060
aI3186370
aI302793
aI40650
aI40655
aI50468
aI1351387
aI1875682
aI827110
aI2400000
aI1613589
aI268933
aI827168
aI40744
aI2137903
aI302898
aI2662203
aI302926
aI40807
aI1579673
aI1613723
aI1048847
aI565244
aI40961
aI40999
aI303154
aI1089596
aI2662489
aI2662490
aI41071
aI1351801
aI565380
aI565398
aI303270
aI836979
aI50548
aI41153
aI827599
aI1614080
aI303363
aI41261
aI565635
aI41360
aI2662807
aI303513
aI1089967
aI880713
aI303549
aI303552
aI41420
aI1876473
aI2138629
aI1090079
aI1005222
aI827977
aI1352271
aI827989
aI1352288
aI828012
aI565877
aI1090166
aI41596
aI2138752
aI1090190
aI254528
aI41655
aI41665
aI41679
aI41688
aI1090267
aI566012
aI566032
aI1352471
aI41761
aI828197
aI303911
aI1614651
aI303939
aI1090389
aI828255
aI3187556
aI828261
aI1876838
aI228755
aI41956
aI1614825
aI41981
aI41983
aI1090562
aI2139171
aI2803206
aI304174
aI304175
aI717181
aI304185
aI181771
aI94394
aI2401386
aI42092
aI42106
aI42126
aI42136
aI42139
aI2610022
aI1090727
aI828584
aI304319
aI1615087
aI42227
aI2925837
aI1353011
aI42304
aI566608
aI1090915
aI304499
aI1615226
aI2925963
aI1353132
aI304559
aI1798387
aI828864
aI1973152
aI1353158
aI181836
aI304588
aI304645
aI42518
aI42522
aI1353256
aI42540
aI2926151
aI42585
aI42586
aI1877620
aI1615483
aI1091207
aI566920
aI1091212
aI1091256
aI304832
aI304839
aI304870
aI829166
aI304879
aI1004239
aI42769
aI2139928
aI924643
aI42847
aI42865
aI829331
aI42900
aI42902
aI1615776
aI42921
aI42979
aI2140143
aI1091598
aI43029
aI1878050
aI1353771
aI1878060
aI305207
aI1878073
aI94559
aI43089
aI219661
aI829533
aI43140
aI305319
aI567486
aI1353937
aI43222
aI43270
aI305423
aI1354004
aI567595
aI575199
aI43337
aI1091949
aI1091955
aI1354106
aI749973
aI305545
aI829835
aI305552
aI567736
aI43452
aI567751
aI305644
aI2140687
aI567864
aI830035
aI2402943
aI2140803
aI1354378
aI43671
aI43677
aI43681
aI43687
aI830125
aI356808
aI567986
aI830134
aI1092294
aI94668
aI1092324
aI830197
aI1354497
aI568085
aI305949
aI1616676
aI43816
aI568109
aI305971
aI182072
aI2665334
aI43906
aI568203
aI306084
aI461647
aI43959
aI43965
aI1616832
aI400547
aI830431
aI2716156
aI44041
aI568342
aI568371
aI1616951
aI306253
aI1616976
aI108533
aI1616987
aI306272
aI1092711
aI306285
aI568458
aI306323
aI1354910
aI1354939
aI830663
aI1354978
aI44269
aI1623935
aI44295
aI44309
aI306478
aI830785
aI1092951
aI44389
aI1355166
aI306602
aI1380669
aI568785
aI44523
aI1617394
aI44562
aI1093146
aI831011
aI568884
aI306753
aI44620
aI488035
aI44639
aI44643
aI44683
aI2141839
aI2323059
aI44743
aI531746
aI44765
aI569106
aI44852
aI1355584
aI2666313
aI2489271
aI1879895
aI1355611
aI569183
aI1093486
aI307072
aI831371
aI45005
aI1093582
aI569302
aI1093634
aI1617926
aI831507
aI1617954
aI45091
aI831531
aI1093694
aI7526
aI307310
aI1880191
aI123711
aI2928770
aI307338
aI307347
aI831645
aI2666671
aI1093828
aI45254
aI182305
aI569544
aI307414
aI1618143
aI45311
aI1618189
aI1880351
aI1356098
aI1356107
aI831824
aI1618257
aI1093982
aI2279483
aI45433
aI831878
aI881388
aI1721135
aI45476
aI3191224
aI831932
aI2594040
aI1094091
aI1356238
aI307687
aI307703
aI832009
aI569872
aI2667037
aI45601
aI1880627
aI182369
aI45664
aI45691
aI45734
aI1094311
aI570040
aI45767
aI45786
aI1094399
aI307976
aI45849
aI45852
aI2405165
aI570191
aI45916
aI3191645
aI308066
aI832363
aI570222
aI45948
aI308097
aI45967
aI45991
aI570283
aI1356721
aI46011
aI1618948
aI1729885
aI308251
aI1356836
aI2667559
aI1711633
aI1094772
aI46210
aI1356994
aI400932
aI750459
aI570624
aI2405641
aI46354
aI488325
aI2405667
aI46395
aI2470364
aI46460
aI832894
aI570757
aI570763
aI570787
aI1095114
aI832976
aI832998
aI46575
aI2143734
aI46588
aI46594
aI833031
aI1095206
aI1100046
aI46690
aI1095276
aI308868
aI1274817
aI909376
aI1881750
aI1881769
aI1095363
aI46810
aI95190
aI46867
aI1619738
aI241232
aI571189
aI571194
aI1095495
aI1881935
aI571230
aI46991
aI47020
aI1095616
aI47064
aI571353
aI47086
aI2406388
aI47107
aI47110
aI571407
aI1357843
aI2668568
aI1095710
aI833573
aI571436
aI309308
aI833622
aI571507
aI309395
aI571545
aI1357978
aI571563
aI1358004
aI571593
aI1095883
aI1620194
aI309483
aI47351
aI833807
aI833820
aI47453
aI969107
aI309630
aI571783
aI2144649
aI1358220
aI36498
aI47527
aI47529
aI309683
aI47550
aI309706
aI47580
aI834030
aI834032
aI47602
aI47603
aI47623
aI47633
aI182705
aI834114
aI572014
aI47738
aI834178
aI309917
aI1620671
aI834273
aI1267304
aI1096443
aI47875
aI47895
aI2407212
aI263467
aI1358670
aI47961
aI1620827
aI572270
aI834424
aI310139
aI2279914
aI2681414
aI48015
aI48067
aI572380
aI1096725
aI310297
aI1293502
aI310359
aI572504
aI1096794
aI1096802
aI834672
aI572543
aI48310
aI48317
aI572635
aI48348
aI707111
aI48387
aI572680
aI1883402
aI464251
aI834844
aI48417
aI1359139
aI48424
aI310574
aI1359163
aI572737
aI48450
aI1883464
aI48465
aI572761
aI572771
aI576060
aI48492
aI572784
aI310678
aI835042
aI310767
aI1097212
aI1883647
aI2145800
aI572939
aI750852
aI2670112
aI48684
aI1097285
aI48728
aI1359450
aI573032
aI835209
aI2145980
aI310982
aI576119
aI48886
aI1359655
aI1621821
aI576139
aI1097600
aI1359785
aI1799816
aI311220
aI49102
aI2932724
aI49153
aI1622028
aI1097780
aI1359931
aI1622083
aI573514
aI1097816
aI311389
aI1097858
aI1493698
aI49294
aI573634
aI2146515
aI49376
aI49388
aI573688
aI1097989
aI311572
aI49478
aI49485
aI311660
aI1360253
aI51947
aI1360261
aI1098128
aI1360312
aI311744
aI836048
aI1098238
aI311829
aI836144
aI49742
aI1098379
aI1098389
aI1622684
aI311966
aI311973
aI2409138
aI836277
aI311992
aI49879
aI836318
aI49910
aI49942
aI2147097
aI202431
aI49951
aI1360693
aI49982
aI50011
aI312161
aI2147188
aI1098622
aI836484
aI50058
aI312208
aI2671514
aI707401
aI312260
aI574419
aI312294
aI1623019
aI312317
aI836611
aI1755990
aI312329
aI1624921
aI1360941
aI2147398
aI1360985
aI1098851
aI574576
aI1098884
aI1361042
aI139459
aI50356
aI50358
aI2324004
aI50394
aI574686
aI1624960
aI312586
aI1099045
aI50475
aI50476
aI50505
aI574815
aI50552
aI576406
aI1623430
aI312716
aI574904
aI312781
aI312785
aI1099227
aI50660
aI1361399
aI574998
aI50711
aI837154
aI312884
aI50742
aI2149301
aI575047
aI312907
aI50776
aI357990
aI575097
aI52160
aI837251
aI2672265
aI2147987
aI226927
aI1623728
aI1361638
aI2672373
aI1623811
aI313115
aI313121
aI313137
aI1623859
aI575284
aI2324107
aI313194
aI1099670
aI51101
aI2148284
aI218565
aI1099743
aI358055
aI1624049
aI313353
aI837649
aI575527
aI51242
aI3135432
aI2148420
aI313416
aI51295
aI2934902
aI51326
aI1886349
aI1572938
aI1362108
aI1362115
aI1362136
aI575721
aI837886
aI1624330
aI313628
aI51507
aI1362294
aI838020
aI51593
aI313758
aI1100238
aI838733
aI1100248
aI51685
aI969812
aI838151
aI313902
aI51759
aI51760
aI1100339
aI838308
aI314027
aI314056
aI51915
aI314488
aI2673375
aI838374
aI1886977
aI1100552
aI314166
aI576313
aI52087
aI576396
aI314291
aI52162
aI576488
aI52201
aI52207
aI2411515
aI1031766
aI52256
aI838700
aI2149440
aI576589
aI2149465
aI52317
aI314481
aI1100919
aI656421
aI314503
aI52360
aI838805
aI838807
aI314539
aI576725
aI52443
aI838912
aI270899
aI576831
aI52551
aI52568
aI1101154
aI576875
aI489364
aI314763
aI839086
aI314850
aI839139
aI52724
aI8792
aI577042
aI839199
aI1887779
aI1363495
aI1887798
aI577096
aI52817
aI839256
aI183569
aI1887854
aI315010
aI315024
aI1363613
aI1101480
aI315059
aI52920
aI839356
aI839359
aI839379
aI1101534
aI52963
aI577264
aI1363726
aI53007
aI577300
aI577306
aI315168
aI53030
aI839465
aI839484
aI2674519
aI1625955
aI53114
aI315260
aI577423
aI53139
aI315306
aI53170
aI53182
aI1363927
aI53212
aI3198969
aI1363964
aI577541
aI2150422
aI1888292
aI315435
aI52573
aI1101893
aI576866
aI315562
aI53424
aI1102014
aI2674883
aI53487
aI2674937
aI53501
aI315650
aI1364241
aI315670
aI315677
aI1626399
aI53538
aI315689
aI1538100
aI577878
aI2412895
aI577894
aI315781
aI577926
aI1102215
aI53653
aI315828
aI53686
aI577979
aI2412997
aI53712
aI53788
aI315935
aI315988
aI578154
aI445887
aI2151050
aI53926
aI53948
aI53960
aI1364685
aI2151120
aI1888977
aI578288
aI54017
aI227465
aI2480848
aI316228
aI54091
aI578411
aI840566
aI1102741
aI316310
aI2413470
aI316334
aI2151351
aI1013923
aI54259
aI316408
aI1889273
aI2675751
aI1365048
aI2413651
aI54356
aI54364
aI1627238
aI54378
aI578667
aI1102962
aI54420
aI54426
aI2675882
aI54468
aI840901
aI1319799
aI578770
aI316627
aI1889492
aI54491
aI358608
aI639035
aI1103092
aI840973
aI1627406
aI1365265
aI1627410
aI316700
aI316727
aI1365324
aI54606
aI578895
aI1627479
aI1232447
aI316799
aI841108
aI54680
aI2676137
aI1365428
aI54742
aI54746
aI579047
aI54806
aI1365549
aI316978
aI54838
aI2938440
aI1014032
aI96537
aI1889972
aI54975
aI841435
aI317180
aI1103617
aI682698
aI882993
aI1625737
aI55111
aI1103702
aI55151
aI55209
aI1628109
aI9209
aI2414556
aI579615
aI55351
aI579646
aI1103964
aI841830
aI1366137
aI55455
aI1628320
aI841959
aI579849
aI579860
aI55573
aI55589
aI842050
aI317768
aI317780
aI55637
aI1366360
aI842075
aI1366376
aI317849
aI579996
aI55724
aI55732
aI55747
aI842218
aI317937
aI1104402
aI317975
aI2415129
aI580131
aI317989
aI55847
aI55859
aI55862
aI580172
aI1366624
aI1104483
aI1888017
aI842345
aI124069
aI1366673
aI2939548
aI55965
aI1628832
aI2415293
aI56018
aI318174
aI580325
aI318206
aI621013
aI56066
aI318223
aI56121
aI2153274
aI752568
aI842616
aI842658
aI56256
aI1407478
aI56309
aI56338
aI2153495
aI2153497
aI318493
aI1451184
aI318502
aI1014281
aI580675
aI1101671
aI56449
aI56465
aI525623
aI318667
aI56524
aI1695318
aI56604
aI2153758
aI318758
aI1891625
aI56658
aI580951
aI56686
aI56725
aI1105314
aI56748
aI56753
aI56761
aI1367485
aI2678213
aI1105384
aI56829
aI752213
aI56864
aI319027
aI1105467
aI1105480
aI926988
aI843455
aI57068
aI581371
aI57095
aI57120
aI57159
aI1105744
aI843621
aI57191
aI9536
aI752603
aI319375
aI319403
aI225589
aI1105871
aI57318
aI843787
aI2940964
aI319542
aI581747
aI1892473
aI581771
aI319633
aI581779
aI57508
aI843953
aI2063051
aI843985
aI581845
aI319702
aI1058171
aI57582
aI57588
aI1892607
aI57611
aI57639
aI2543666
aI1368381
aI1915523
aI57695
aI2786485
aI57729
aI319878
aI319918
aI844210
aI844216
aI1630665
aI1106382
aI1106393
aI319969
aI57847
aI582138
aI320021
aI57883
aI844322
aI57915
aI57952
aI1106534
aI844416
aI57986
aI2674795
aI582278
aI228123
aI342365
aI320220
aI320242
aI1630963
aI58107
aI490282
aI1630977
aI58114
aI1031962
aI1893132
aI58128
aI58145
aI58186
aI2417483
aI3203918
aI831197
aI9702
aI320373
aI58244
aI320399
aI58260
aI320417
aI359239
aI58289
aI844726
aI320471
aI1106925
aI1106939
aI58375
aI883543
aI582704
aI97123
aI1631323
aI2417756
aI320615
aI320616
aI844923
aI58505
aI1107110
aI2587505
aI2942163
aI320726
aI381709
aI1893629
aI845059
aI58635
aI320796
aI58656
aI1631551
aI1631615
aI583049
aI845198
aI2680216
aI845217
aI58792
aI58808
aI845248
aI2418119
aI2942409
aI845280
aI58856
aI58880
aI321080
aI883644
aI839952
aI321135
aI2418295
aI1631871
aI1894021
aI576506
aI583339
aI59107
aI59111
aI59119
aI534147
aI1632043
aI845620
aI845622
aI59198
aI59242
aI583539
aI59272
aI1107860
aI845721
aI59301
aI59303
aI1370034
aI321468
aI272034
aI59352
aI321505
aI583651
aI321539
aI845859
aI59438
aI1108032
aI59461
aI583783
aI59501
aI2156756
aI53635
aI2681109
aI1632534
aI1108279
aI1108292
aI321862
aI1370442
aI59730
aI59731
aI321882
aI1108334
aI846206
aI846213
aI1108368
aI1894803
aI321946
aI2681246
aI1108431
aI1370576
aI1108442
aI1320698
aI584192
aI1108495
aI59947
aI1370693
aI584262
aI584266
aI1370722
aI60020
aI584311
aI1370750
aI846471
aI846480
aI255142
aI1370847
aI584420
aI60147
aI53718
aI2157321
aI60188
aI1108772
aI584490
aI846636
aI846652
aI60223
aI2419531
aI1370956
aI1370958
aI322395
aI1633117
aI60261
aI846752
aI1156119
aI1108910
aI584634
aI60381
aI883880
aI584713
aI1633314
aI184839
aI60518
aI2681964
aI60556
aI10093
aI322722
aI60598
aI1895611
aI1633510
aI60664
aI322818
aI60682
aI2682132
aI1302445
aI2019889
aI60724
aI585041
aI2157907
aI322900
aI1109352
aI60783
aI2682232
aI585105
aI115503
aI323005
aI595602
aI1109468
aI2063610
aI847330
aI847331
aI323051
aI1633783
aI847363
aI60950
aI847383
aI847434
aI576519
aI61027
aI61029
aI1371805
aI61092
aI61109
aI61164
aI585456
aI1634046
aI585484
aI840330
aI323407
aI585552
aI901239
aI752738
aI61337
aI61338
aI1109988
aI1539412
aI1634302
aI847880
aI1372195
aI1372224
aI323656
aI61523
aI1634393
aI323694
aI1110160
aI1896608
aI61605
aI585913
aI61632
aI848090
aI1634524
aI848102
aI1372414
aI323839
aI1372424
aI447191
aI1372444
aI848163
aI848164
aI1896761
aI61754
aI586051
aI2806497
aI323924
aI586085
aI586086
aI1896815
aI848242
aI848249
aI1634695
aI586181
aI61902
aI61905
aI2421213
aI61938
aI324094
aI61974
aI2421292
aI62002
aI2683447
aI62055
aI159189
aI1634933
aI62082
aI1110662
aI1452141
aI586439
aI324312
aI62178
aI1408465
aI62194
aI1635060
aI324354
aI324389
aI62248
aI62255
aI1110833
aI62262
aI1635144
aI586621
aI62361
aI228848
aI324516
aI228852
aI848841
aI586706
aI1635294
aI324584
aI1373162
aI1373170
aI1373178
aI1111052
aI1111068
aI586809
aI62571
aI849004
aI586869
aI62590
aI849078
aI1111228
aI62664
aI1373409
aI447356
aI324853
aI2159874
aI62747
aI1373484
aI1111363
aI1897799
aI62829
aI324978
aI1111429
aI1635726
aI491075
aI97869
aI1635807
aI587237
aI62951
aI62970
aI753237
aI753238
aI316343
aI1373776
aI63083
aI63094
aI325241
aI63155
aI2422457
aI63202
aI1373932
aI1373934
aI2684660
aI63225
aI447448
aI587543
aI849711
aI63295
aI1636209
aI849779
aI63379
aI849843
aI185335
aI1374162
aI63449
aI1374175
aI325626
aI587775
aI587803
aI534877
aI1898562
aI1112154
aI325727
aI1374311
aI63627
aI587920
aI1636522
aI1374407
aI325836
aI325852
aI1898718
aI2588368
aI588005
aI850157
aI63733
aI63756
aI588079
aI1105514
aI850234
aI63841
aI850286
aI491243
aI850319
aI326040
aI709711
aI63965
aI1898981
aI412395
aI64004
aI64009
aI1636876
aI2588421
aI1374763
aI64045
aI1636917
aI64056
aI1933073
aI2161269
aI64193
aI64203
aI1374929
aI64275
aI64279
aI326458
aI850749
aI578700
aI64372
aI326536
aI850833
aI1113023
aI64495
aI64503
aI10751
aI64519
aI2948109
aI2423840
aI326705
aI588868
aI64586
aI185527
aI3112803
aI326742
aI588916
aI326792
aI326804
aI326807
aI1113246
aI326820
aI588973
aI1113296
aI1637585
aI851159
aI64730
aI64741
aI64750
aI326904
aI64763
aI1637683
aI851273
aI1113426
aI1113435
aI851292
aI64897
aI64904
aI851350
aI2424224
aI1113515
aI589259
aI327151
aI613198
aI851498
aI65070
aI665575
aI851548
aI65120
aI855874
aI327301
aI851604
aI2424484
aI1113766
aI1113772
aI65232
aI65295
aI281504
aI1365297
aI327466
aI1376051
aI1113921
aI65387
aI65412
aI327563
aI10906
aI589746
aI65464
aI1900503
aI65501
aI65542
aI65548
aI851985
aI1114171
aI753676
aI65611
aI589909
aI589919
aI589924
aI65663
aI1900692
aI65694
aI327853
aI65714
aI2425012
aI65732
aI1321676
aI1114322
aI65750
aI327901
aI1376536
aI65843
aI590177
aI328072
aI1114506
aI590219
aI328085
aI1114530
aI1114536
aI65977
aI590278
aI590299
aI358328
aI66051
aI1376914
aI66226
aI852659
aI1901272
aI1377002
aI1377021
aI590601
aI66330
aI66348
aI66353
aI328501
aI66372
aI1901400
aI66416
aI590719
aI852866
aI1115043
aI66475
aI848931
aI328676
aI66549
aI66580
aI2688027
aI66591
aI710150
aI590976
aI66692
aI1115360
aI66803
aI591097
aI579115
aI1901847
aI591166
aI591203
aI185916
aI853360
aI66945
aI1115554
aI622834
aI591282
aI591283
aI591285
aI1115577
aI1902010
aI67009
aI579148
aI1115652
aI2688545
aI1115693
aI67153
aI67168
aI1377915
aI1377951
aI1115817
aI853694
aI591578
aI67332
aI853777
aI67366
aI1115957
aI67392
aI67416
aI1640282
aI1378146
aI622008
aI591776
aI67505
aI67520
aI2426818
aI1321976
aI67566
aI67606
aI329755
aI1640484
aI329769
aI1902635
aI754015
aI854080
aI591939
aI591962
aI67712
aI1599669
aI1378453
aI329880
aI2427059
aI1116354
aI592099
aI854246
aI2427117
aI592111
aI1902882
aI1322034
aI1116467
aI1902919
aI592213
aI492767
aI67945
aI330092
aI67959
aI1378681
aI592253
aI592301
aI68015
aI68041
aI2427349
aI2689500
aI892629
aI68105
aI1903116
aI68146
aI1116742
aI1378888
aI68172
aI854624
aI1641070
aI592495
aI68210
aI2021142
aI68231
aI2427538
aI854698
aI330417
aI1378999
aI1641160
aI330471
aI1641198
aI330494
aI1671639
aI854803
aI68396
aI2165552
aI330565
aI386356
aI330601
aI592746
aI330617
aI1379211
aI330644
aI68507
aI508566
aI854961
aI592839
aI1641443
aI68587
aI330732
aI592887
aI592893
aI68611
aI1322158
aI2165812
aI592958
aI330867
aI68725
aI2952311
aI68757
aI330911
aI68788
aI68808
aI593105
aI19750
aI330987
aI593154
aI331043
aI68909
aI855363
aI1379664
aI855395
aI1641835
aI593264
aI855421
aI331137
aI68998
aI1379740
aI331174
aI710556
aI1641941
aI69080
aI855543
aI69125
aI1117720
aI11525
aI2414515
aI69172
aI593487
aI855636
aI331397
aI2166409
aI855705
aI1117850
aI113938
aI331460
aI855760
aI69340
aI331488
aI1642219
aI331508
aI798001
aI1904460
aI37231
aI1380323
aI593958
aI69697
aI69713
aI331858
aI714495
aI1497103
aI1366033
aI856170
aI69755
aI69777
aI69809
aI69818
aI69820
aI331982
aI69868
aI332019
aI856353
aI594235
aI332124
aI1904995
aI69993
aI1642880
aI1380744
aI1905055
aI594338
aI594341
aI856501
aI2717065
aI1414562
aI594420
aI113570
aI2167297
aI1380918
aI332351
aI594509
aI1118830
aI70261
aI332419
aI1364071
aI594589
aI70317
aI856790
aI332516
aI1643237
aI2167531
aI70386
aI2691847
aI332565
aI332578
aI1147698
aI798173
aI70477
aI70492
aI2167655
aI594793
aI856942
aI2167692
aI857025
aI70604
aI2167834
aI1643558
aI70714
aI2533777
aI86015
aI332904
aI1119356
aI595070
aI1643653
aI595099
aI1119459
aI595204
aI333061
aI1381667
aI1119533
aI1119550
aI2970237
aI71034
aI71059
aI71079
aI1119677
aI333253
aI333255
aI683233
aI595437
aI333296
aI1906168
aI333315
aI2168326
aI710913
aI2692688
aI1906265
aI1644131
aI1119844
aI2430567
aI1366293
aI1906306
aI1906307
aI333466
aI333486
aI71343
aI857776
aI333493
aI1906362
aI1382112
aI857848
aI595709
aI71436
aI333589
aI2982874
aI536205
aI71522
aI333698
aI1382292
aI1382306
aI2168773
aI333777
aI1382356
aI333786
aI71701
aI1382435
aI2168879
aI596068
aI333930
aI1235305
aI858247
aI858257
aI1382552
aI1644699
aI596137
aI1906862
aI71906
aI334053
aI596200
aI334060
aI858366
aI2169104
aI1120530
aI596247
aI1120560
aI1120648
aI623683
aI1907093
aI2955675
aI334243
aI596389
aI1382832
aI1645000
aI334314
aI12034
aI1120798
aI1382955
aI72247
aI858686
aI596587
aI1512532
aI1672308
aI858823
aI334536
aI72436
aI72443
aI72453
aI72478
aI2956067
aI596781
aI1410185
aI2956115
aI72562
aI72577
aI72583
aI2431885
aI2694093
aI334813
aI859130
aI2431997
aI596998
aI334865
aI859154
aI72824
aI597122
aI72859
aI859314
aI72896
aI1645769
aI361684
aI1121532
aI335105
aI859402
aI72989
aI2170192
aI1121633
aI597384
aI230636
aI73103
aI335267
aI859558
aI1410291
aI2432447
aI597441
aI597460
aI143269
aI859640
aI73226
aI1908235
aI2170392
aI2432538
aI73278
aI859725
aI73297
aI335460
aI859762
aI335507
aI335514
aI325418
aI859832
aI1121982
aI73430
aI73432
aI1384155
aI2065702
aI73488
aI1908499
aI73501
aI860000
aI73573
aI770606
aI2695054
aI860084
aI1646540
aI2446585
aI2433059
aI1122351
aI860212
aI73785
aI1384539
aI335964
aI2433117
aI1495124
aI2695276
aI1122466
aI1122476
aI73901
aI1646783
aI73948
aI73951
aI255605
aI860421
aI598280
aI598289
aI74022
aI74053
aI598343
aI1384784
aI1909117
aI1060928
aI598420
aI598424
aI842480
aI1122748
aI1384913
aI1384916
aI860630
aI598500
aI598511
aI74230
aI2171430
aI336423
aI336444
aI2695742
aI598591
aI74305
aI74309
aI74314
aI798818
aI860752
aI598637
aI99777
aI74389
aI598683
aI336542
aI336552
aI860857
aI405623
aI336626
aI598805
aI1385242
aI1847429
aI74585
aI861019
aI1385314
aI1385358
aI493038
aI336827
aI1123278
aI599020
aI74757
aI599075
aI74815
aI336983
aI2359333
aI74847
aI1909864
aI2958454
aI337055
aI337085
aI1385672
aI861399
aI337128
aI337149
aI1910017
aI3114539
aI75017
aI337166
aI75025
aI1910035
aI337227
aI861521
aI861565
aI337294
aI337306
aI1385896
aI75192
aI1192188
aI75245
aI229461
aI75267
aI75328
aI599634
aI599635
aI337504
aI337522
aI1386111
aI599689
aI1910447
aI861874
aI1386166
aI599792
aI75505
aI861940
aI99966
aI99967
aI75525
aI337693
aI1386298
aI1386359
aI75642
aI599970
aI75694
aI599991
aI12624
aI862216
aI600082
aI75801
aI600101
aI1910843
aI600135
aI142191
aI1672897
aI600209
aI1124529
aI600247
aI1386680
aI1648831
aI1910991
aI338128
aI1386720
aI1911019
aI430254
aI76031
aI338195
aI600342
aI1648920
aI2435406
aI2959713
aI76137
aI862594
aI1386886
aI76173
aI2284613
aI600486
aI1236044
aI187469
aI76263
aI600618
aI338477
aI1649198
aI76337
aI1911346
aI76363
aI76381
aI2959971
aI76392
aI2959986
aI1387142
aI1911432
aI862883
aI76456
aI1151280
aI1125062
aI338665
aI1236099
aI76564
aI2435861
aI2173750
aI863111
aI770710
aI537080
aI863192
aI76777
aI1387519
aI2721622
aI2241026
aI863248
aI1125402
aI76832
aI863304
aI339034
aI601179
aI76900
aI1649781
aI601224
aI1125513
aI863380
aI1387670
aI76968
aI339122
aI77011
aI77017
aI863470
aI863487
aI77067
aI77090
aI1649960
aI863529
aI56541
aI1912147
aI2960751
aI621524
aI601466
aI1912213
aI1125784
aI2960823
aI77244
aI863680
aI339423
aI1650150
aI1650152
aI1388017
aI601616
aI863803
aI863814
aI339535
aI601701
aI2174580
aI744225
aI2698899
aI799342
aI863924
aI77538
aI77546
aI863980
aI1126127
aI77567
aI1388319
aI1388410
aI187712
aI339850
aI339852
aI864150
aI77722
aI1388454
aI77804
aI77814
aI449877
aI339974
aI1650716
aI340002
aI77887
aI1126473
aI622356
aI602205
aI843114
aI864385
aI864393
aI1126614
aI1503994
aI78093
aI864528
aI1650967
aI1913125
aI2437417
aI340266
aI1126704
aI602451
aI78182
aI1973271
aI340355
aI340380
aI78246
aI78259
aI1388989
aI799478
aI602618
aI864763
aI78336
aI1236396
aI1126943
aI602661
aI78374
aI11339
aI561269
aI602714
aI78436
aI340610
aI864908
aI144152
aI1389232
aI1127114
aI340688
aI1913564
aI1389301
aI78601
aI187863
aI865038
aI340760
aI78639
aI78640
aI2700088
aI340799
aI2175812
aI340807
aI78685
aI78712
aI603003
aI865148
aI865162
aI1651598
aI78738
aI603042
aI340939
aI340947
aI1651689
aI603127
aI340997
aI1389596
aI1389604
aI603184
aI603200
aI1355629
aI78949
aI603256
aI341117
aI341180
aI341188
aI341201
aI79061
aI79068
aI79078
aI603369
aI1127669
aI2962686
aI603393
aI865552
aI1127699
aI2438423
aI341282
aI1127761
aI1652064
aI79207
aI362730
aI603568
aI2197750
aI231675
aI1127909
aI1127918
aI603633
aI341491
aI79354
aI341508
aI79379
aI341583
aI2700898
aI341620
aI2634690
aI1914514
aI1128103
aI1128114
aI341692
aI603855
aI341713
aI866016
aI866022
aI341750
aI866045
aI341762
aI341763
aI185961
aI79677
aI1128268
aI603986
aI2701144
aI1128293
aI79737
aI866172
aI1390477
aI1061870
aI866206
aI2176962
aI1128407
aI79835
aI604166
aI342073
aI79934
aI342113
aI604259
aI1128558
aI604296
aI342156
aI1652962
aI866542
aI80112
aI604401
aI1915145
aI1390858
aI342303
aI1653040
aI1391040
aI2177479
aI342473
aI342483
aI342553
aI80425
aI1653305
aI80479
aI866930
aI581402
aI144496
aI866983
aI342706
aI1391284
aI604876
aI2177755
aI124891
aI80630
aI80636
aI1129247
aI342852
aI80714
aI80720
aI342909
aI342918
aI867232
aI2984432
aI2702262
aI80836
aI605129
aI605142
aI386770
aI80860
aI867294
aI80911
aI343067
aI2440223
aI343088
aI1391671
aI343108
aI2440262
aI1129558
aI867432
aI931004
aI2702447
aI1149459
aI343161
aI81053
aI343202
aI1653936
aI343230
aI2964675
aI1916110
aI144589
aI81106
aI81117
aI81179
aI625200
aI81193
aI81194
aI81205
aI867671
aI1654121
aI1654143
aI343452
aI867760
aI605643
aI343531
aI1654265
aI1761195
aI1129995
aI343568
aI1392169
aI2702894
aI605744
aI2965046
aI867944
aI605808
aI1193236
aI2178702
aI1392287
aI605863
aI343721
aI343725
aI81589
aI2678731
aI232054
aI343755
aI1392355
aI1392379
aI1130266
aI81711
aI81717
aI81723
aI606019
aI1381910
aI1130317
aI343886
aI343889
aI1130377
aI868279
aI1130433
aI868321
aI1916902
aI1392628
aI81937
aI1392707
aI570118
aI82004
aI868447
aI1586539
aI82062
aI344211
aI344215
aI606371
aI669044
aI1130734
aI344304
aI669057
aI344347
aI82208
aI2703656
aI606518
aI188477
aI344463
aI344467
aI82330
aI1130908
aI868766
aI344480
aI868770
aI82350
aI1130930
aI344527
aI57423
aI82417
aI1131027
aI1655332
aI344643
aI606794
aI82515
aI82526
aI606821
aI897889
aI82548
aI1131161
aI82586
aI82594
aI82599
aI869033
aI344769
aI344774
aI1655495
aI1393352
aI82686
aI159876
aI869134
aI82708
aI1131321
aI344895
aI607061
aI344945
aI2442099
aI869247
aI11487
aI1393558
aI345007
aI345014
aI607162
aI607163
aI345031
aI345078
aI2180189
aI607332
aI2966673
aI83096
aI83109
aI607407
aI2180326
aI83178
aI1393908
aI345343
aI2704654
aI607514
aI83247
aI2704706
aI2704736
aI83304
aI1394025
aI83309
aI345479
aI345480
aI2285805
aI345490
aI1131949
aI345520
aI83389
aI1394120
aI83406
aI975097
aI345585
aI83446
aI869895
aI13911
aI2442804
aI1132100
aI83528
aI2111078
aI607848
aI1132140
aI607874
aI83605
aI188702
aI1918669
aI83664
aI83667
aI607959
aI83719
aI345890
aI345896
aI1394484
aI345944
aI1394553
aI98811
aI346005
aI346012
aI1394590
aI608170
aI346063
aI83924
aI1394663
aI1936386
aI2967572
aI346169
aI84042
aI870483
aI1656986
aI84128
aI84131
aI84167
aI1132744
aI84178
aI84190
aI1132770
aI2181350
aI346344
aI84201
aI84206
aI84236
aI84237
aI608576
aI870729
aI870743
aI1132889
aI84328
aI608624
aI84395
aI84473
aI1133064
aI1133102
aI1395266
aI346693
aI1133145
aI608886
aI871050
aI1133199
aI84631
aI84651
aI625782
aI871132
aI609001
aI871150
aI84745
aI609036
aI346905
aI1657639
aI609074
aI84791
aI1062708
aI2444111
aI1133405
aI2444130
aI609176
aI84951
aI1368570
aI609251
aI887978
aI1133577
aI85010
aI347180
aI85094
aI538471
aI871574
aI871580
aI494789
aI347304
aI1658032
aI85170
aI871617
aI85215
aI1920232
aI871672
aI1324929
aI1499698
aI85309
aI347456
aI2706794
aI347508
aI85385
aI1630789
aI609707
aI347594
aI871910
aI85505
aI232706
aI1134119
aI2706988
aI1396276
aI872018
aI85597
aI347742
aI1134214
aI347790
aI1658526
aI1396395
aI872109
aI609988
aI347865
aI247268
aI1396478
aI85785
aI347934
aI85803
aI85821
aI2445124
aI1134411
aI1920847
aI348008
aI610168
aI85882
aI1587180
aI85905
aI610204
aI610217
aI85930
aI872363
aI762288
aI85940
aI872395
aI1658861
aI276478
aI610305
aI348180
aI1396771
aI1921062
aI86072
aI348285
aI348301
aI348314
aI610505
aI86218
aI2445556
aI610573
aI872719
aI86288
aI86295
aI86296
aI610585
aI348459
aI86328
aI1397051
aI1921385
aI58088
aI1397114
aI3116437
aI86421
aI872856
aI86473
aI2445775
aI86483
aI610777
aI1397220
aI1135092
aI873003
aI101811
aI1397319
aI2445933
aI1397379
aI2183827
aI348841
aI610996
aI873145
aI873153
aI86751
aI611056
aI1397504
aI611084
aI2446102
aI86809
aI873254
aI1980551
aI2183982
aI873263
aI1019358
aI2446143
aI873282
aI86860
aI349012
aI2184055
aI86913
aI232940
aI1397648
aI86937
aI873398
aI349112
aI611264
aI86989
aI349138
aI1135590
aI87015
aI63428
aI87053
aI1063090
aI2446397
aI1135684
aI1135703
aI873567
aI1397870
aI2199059
aI87170
aI1135753
aI87189
aI611479
aI349433
aI87306
aI611600
aI1660178
aI1135954
aI87399
aI87407
aI873909
aI1136062
aI873954
aI2708966
aI364114
aI349695
aI1136139
aI87565
aI1237934
aI1398305
aI87596
aI1922609
aI1136195
aI626273
aI87629
aI1922662
aI87702
aI1922711
aI1398425
aI1398437
aI1136304
aI1660616
aI87796
aI666331
aI844759
aI874257
aI2709296
aI1398581
aI129655
aI612189
aI87942
aI350087
aI87956
aI350106
aI350118
aI1398701
aI2185142
aI1136572
aI1923010
aI874508
aI612367
aI88097
aI874533
aI88123
aI1136709
aI350278
aI88158
aI173421
aI88195
aI88204
aI350374
aI88231
aI757461
aI350538
aI1137017
aI88446
aI874888
aI1661358
aI612804
aI874970
aI1137134
aI350725
aI612873
aI875048
aI1661508
aI88656
aI88662
aI932282
aI1923685
aI875127
aI612987
aI350858
aI613004
aI88732
aI710008
aI1399491
aI350921
aI1399505
aI2972382
aI613130
aI539097
aI1137432
aI81520
aI1923869
aI2679942
aI875311
aI351031
aI88896
aI875342
aI875362
aI88932
aI1631379
aI613251
aI1137563
aI1631387
aI613295
aI2330441
aI351174
aI351201
aI351207
aI1587716
aI744937
aI351305
aI89182
aI351330
aI320700
aI351346
aI613495
aI2097941
aI613540
aI1399979
aI89266
aI1281907
aI613568
aI613588
aI133910
aI89342
aI875777
aI351508
aI1137947
aI89373
aI89391
aI351548
aI613702
aI351564
aI233358
aI351614
aI1937302
aI1138058
aI89484
aI875941
aI89556
aI1400279
aI351754
aI1400370
aI1138245
aI89682
aI351835
aI351836
aI351859
aI351893
aI1138333
aI351903
aI89761
aI89766
aI1138346
aI89771
aI876211
aI89789
aI89806
aI614112
aI351980
aI614152
aI614251
aI876398
aI876409
aI876411
aI1138559
aI89989
aI15000
aI352150
aI90011
aI823527
aI1662884
aI90025
aI2187206
aI1662948
aI2449389
aI2281280
aI352260
aI2187273
aI876554
aI352273
aI614425
aI189786
aI90151
aI1138751
aI1400897
aI352325
aI352346
aI1400971
aI614566
aI90297
aI352449
aI352493
aI614644
aI102441
aI1401094
aI1663296
aI614766
aI1238421
aI1401216
aI2711945
aI90511
aI1401235
aI90527
aI352672
aI352687
aI352693
aI614844
aI352705
aI1401320
aI90613
aI352765
aI90647
aI90648
aI352796
aI352804
aI877095
aI90674
aI90691
aI1139346
aI2187927
aI90826
aI1401562
aI90848
aI1139444
aI90874
aI353020
aI615182
aI90899
aI353093
aI2374459
aI615282
aI1401720
aI2712444
aI2272581
aI877472
aI1139626
aI1139697
aI189950
aI353278
aI615434
aI877581
aI1401879
aI91189
aI1664064
aI321035
aI877644
aI615519
aI1401973
aI2450607
aI1926343
aI626894
aI1588095
aI2188545
aI91403
aI353567
aI2450730
aI2188587
aI615746
aI408459
aI2089286
aI615754
aI877948
aI1140136
aI91612
aI58961
aI2188778
aI1664501
aI353790
aI353802
aI670639
aI91696
aI2188862
aI1402433
aI353872
aI1664597
aI626963
aI1893997
aI317302
aI616095
aI616107
aI353988
aI91857
aI1719246
aI2451180
aI1664755
aI91914
aI1402636
aI1140511
aI267719
aI1664852
aI539623
aI233792
aI878482
aI364869
aI354222
aI92096
aI2451405
aI878602
aI354317
aI1402929
aI1140828
aI354436
aI408598
aI92313
aI92315
aI616606
aI616637
aI616643
aI171703
aI1937785
aI616666
aI627071
aI2713854
aI616728
aI878877
aI92446
aI878888
aI1403208
aI92493
aI2505784
aI616815
aI354681
aI1238764
aI616859
aI92602
aI92606
aI758177
aI2189771
aI1665540
aI354831
aI1064025
aI2452002
aI440558
aI1665573
aI879168
aI15459
aI879199
aI1403488
aI1141370
aI1665673
aI1927832
aI354992
aI355027
aI1403638
aI355063
aI879354
aI505154
aI92955
aI92957
aI2190115
aI2190131
aI1403714
aI2124254
aI1141611
aI879485
aI617364
aI1403801
aI617373
aI2190252
aI617395
aI617424
aI93156
aI11831
aI617461
aI93222
aI355389
aI617615
aI1404049
aI1356109
aI93345
aI93356
aI93360
aI355507
aI1928375
aI355512
aI2452708
aI1142004
aI355583
aI93448
aI879899
aI617762
aI1928484
aI845704
aI2452810
aI617822
aI93540
aI617839
aI15592
aI879993
aI355722
aI1404311
aI617883
aI880029
aI355785
aI880096
aI1142252
aI880118
aI93687
aI617996
aI93732
aI817657
aI2768137
aI1195277
aI355944
aI2453173
aI93884
aI1142467
aI880326
aI618206
aI93922
aI356079
aI880372
aI93966
aI1142543
aI93988
aI93990
aI618279
aI880434
aI2191161
aI356169
aI94026
aI2191187
aI880490
aI618347
aI356214
aI1142659
aI1666976
aI94144
aI1142722
aI1667018
aI94173
aI880619
aI94197
aI1142781
aI356372
aI356378
aI356380
aI880685
aI880702
aI880703
aI1667136
aI94278
aI356451
aI2191473
aI2375017
aI618620
aI880772
aI94351
aI2331331
aI94363
aI356541
aI2453699
aI356550
aI2831353
aI2191572
aI880859
aI94428
aI1405151
aI1143013
aI94451
aI1143029
aI1405208
aI356635
aI1929503
aI140293
aI1143116
aI94557
aI1929573
aI881011
aI356726
aI1667460
aI1405318
aI1151724
aI356746
aI356759
aI94695
aI356849
aI1143300
aI1929748
aI889604
aI619036
aI234248
aI356915
aI2191945
aI94813
aI881250
aI2191976
aI496405
aI881286
aI94893
aI1405634
aI1143495
aI1239160
aI103206
aI94961
aI94977
aI1405711
aI1143576
aI1930009
aI881441
aI95033
aI95055
aI2698119
aI2454376
aI357234
aI1667969
aI95107
aI1405830
aI1405835
aI881551
aI95135
aI95140
aI1668005
aI1143732
aI95175
aI889678
aI1930219
aI619505
aI619529
aI1143825
aI95267
aI146950
aI365405
aI15880
aI357440
aI357448
aI357452
aI1143917
aI95350
aI95353
aI409110
aI881798
aI95369
aI95382
aI357578
aI1414008
aI1406188
aI1144057
aI357629
aI2454790
aI357641
aI95509
aI1144104
aI357693
aI357743
aI882051
aI95642
aI357801
aI1668533
aI147019
aI1930721
aI253617
aI745158
aI439642
aI95810
aI620237
aI2193111
aI620249
aI620253
aI95967
aI234451
aI95992
aI358163
aI358193
aI620338
aI1931097
aI2193255
aI620444
aI1669022
aI620448
aI933531
aI358308
aI1406888
aI358331
aI2298941
aI1406961
aI1144849
aI358435
aI1407020
aI358464
aI1144916
aI96342
aI1669208
aI96354
aI846185
aI96386
aI846190
aI358556
aI1669279
aI1145009
aI1679187
aI1632632
aI3128209
aI882918
aI620813
aI358679
aI1145124
aI1931622
aI234558
aI1931641
aI1931663
aI96656
aI1145235
aI1583175
aI358811
aI358834
aI883141
aI1669598
aI96740
aI1669623
aI358906
aI96806
aI96811
aI846259
aI1931841
aI883291
aI359052
aI234606
aI359104
aI2456263
aI1145578
aI97010
aI1932079
aI97076
aI359226
aI1145666
aI1145672
aI278329
aI621427
aI97142
aI1932151
aI73070
aI97248
aI1407999
aI1145861
aI627885
aI883741
aI1145932
aI359508
aI1932379
aI621691
aI97408
aI1408137
aI1146022
aI1146033
aI2456759
aI2981058
aI621767
aI359665
aI2194674
aI553177
aI883970
aI1670413
aI97558
aI97572
aI1146151
aI1932588
aI359736
aI1408356
aI97647
aI359798
aI97658
aI759019
aI621962
aI536610
aI359839
aI2457005
aI1932751
aI359890
aI322129
aI1670665
aI622104
aI359964
aI622129
aI1670736
aI103696
aI97890
aI2719348
aI360053
aI361151
aI97938
aI97964
aI1670841
aI1408717
aI1146585
aI147407
aI884453
aI622310
aI1146602
aI360171
aI1146608
aI98038
aI360186
aI98048
aI884491
aI98078
aI1670956
aI98125
aI103739
aI1452289
aI1146747
aI387347
aI98187
aI98191
aI98204
aI98206
aI1933216
aI453277
aI360374
aI1414473
aI191140
aI622563
aI884770
aI1933347
aI16391
aI98357
aI98378
aI98389
aI360539
aI98401
aI1146987
aI360565
aI884862
aI98493
aI16417
aI1933527
aI622813
aI1933563
aI360705
aI98589
aI885028
aI885036
aI1147197
aI360770
aI98627
aI1671508
aI98657
aI360811
aI497043
aI1409399
aI360829
aI360844
aI98706
aI20745
aI360890
aI1933783
aI623117
aI1147411
aI623150
aI623178
aI1933917
aI1409636
aI98917
aI2720388
aI2458310
aI885453
aI885457
aI2709301
aI1147650
aI623400
aI885556
aI623436
aI361295
aI1409909
aI99220
aI715592
aI99256
aI409762
aI361427
aI361464
aI99323
aI1853864
aI623654
aI361535
aI1410118
aI1934452
aI1672318
aI361608
aI361609
aI2458820
aI623827
aI540884
aI361755
aI1148194
aI623912
aI1672494
aI623952
aI1672632
aI104014
aI1426157
aI1410567
aI362043
aI99923
aI2063381
aI2459296
aI886437
aI624305
aI1148619
aI1935052
aI1935077
aI362218
aI886539
aI584674
aI624466
aI624472
aI100190
aI1673062
aI362350
aI100208
aI624551
aI2721725
aI104096
aI1411014
aI624593
aI624594
aI624626
aI100339
aI1411060
aI100342
aI1673211
aI104117
aI1303971
aI1109005
aI886881
aI100458
aI448527
aI362634
aI362639
aI886931
aI624801
aI362681
aI497356
aI886994
aI624884
aI1149181
aI624900
aI362769
aI1414873
aI362780
aI2197797
aI100652
aI100658
aI1458569
aI887149
aI362871
aI616937
aI100754
aI887263
aI100835
aI2984457
aI1935918
aI1149495
aI100930
aI1411659
aI100952
aI625242
aI100964
aI1673842
aI745331
aI1373822
aI2460294
aI1411724
aI1936059
aI101059
aI625348
aI887495
aI625365
aI363224
aI101090
aI887539
aI410072
aI101139
aI625440
aI101157
aI1149736
aI363341
aI887668
aI625540
aI101258
aI212869
aI63523
aI363448
aI625594
aI99395
aI1149981
aI363573
aI2985029
aI363605
aI1412209
aI2198656
aI363701
aI625860
aI885016
aI888069
aI625952
aI363815
aI784540
aI363881
aI888177
aI101807
aI101827
aI101849
aI101869
aI1936909
aI101914
aI888376
aI1412686
aI101970
aI364136
aI104380
aI1150613
aI1150619
aI1388588
aI2461379
aI1150683
aI102112
aI60711
aI1150718
aI1677272
aI102181
aI102205
aI888641
aI364365
aI364383
aI626531
aI1412986
aI364412
aI60737
aI1150863
aI1150878
aI888750
aI364483
aI102345
aI102371
aI978264
aI2594823
aI102447
aI102451
aI102526
aI102529
aI1413272
aI364708
aI1413321
aI364754
aI1675492
aI116895
aI1151224
aI626957
aI102704
aI627018
aI102731
aI191886
aI410343
aI364913
aI2511140
aI364938
aI627098
aI1413579
aI1151456
aI102896
aI102937
aI1675804
aI102957
aI279307
aI1151569
aI365160
aI103017
aI1413754
aI365183
aI103081
aI1675954
aI90723
aI365237
aI1938122
aI627408
aI889583
aI454103
aI1938203
aI103202
aI103211
aI103225
aI2462524
aI889665
aI365380
aI2200391
aI1413973
aI1151831
aI103260
aI627569
aI1414013
aI1414026
aI1151929
aI759971
aI103385
aI103386
aI2724854
aI889852
aI1938435
aI1152004
aI889865
aI627770
aI1295344
aI889949
aI889972
aI365695
aI103568
aI365719
aI1676444
aI2200766
aI103617
aI2463948
aI90741
aI1784175
aI103647
aI890082
aI365796
aI1152240
aI365814
aI1939671
aI1152309
aI2725196
aI2420280
aI1676673
aI1938828
aI1414543
aI365977
aI365985
aI890276
aI562117
aI1330275
aI103959
aI366114
aI1938982
aI1633893
aI366864
aI1939046
aI891153
aI104040
aI148412
aI1152664
aI890523
aI366306
aI890601
aI104184
aI104198
aI1677096
aI2463570
aI1162141
aI890726
aI1415038
aI366472
aI17389
aI104337
aI104349
aI366529
aI1152980
aI628699
aI104424
aI2463734
aI628738
aI1939465
aI104465
aI104468
aI2201640
aI890936
aI1153121
aI628859
aI585411
aI2638874
aI82046
aI1153256
aI17447
aI891143
aI366856
aI104750
aI104775
aI629068
aI1677717
aI104874
aI1153457
aI104891
aI891338
aI891362
aI367077
aI104934
aI367141
aI104999
aI1415724
aI367154
aI105015
aI891461
aI367174
aI1677912
aI760251
aI105066
aI367273
aI367339
aI105206
aI105224
aI629513
aI367371
aI629521
aI891667
aI2726687
aI367401
aI1678148
aI2464607
aI367456
aI367479
aI1896257
aI891794
aI1940385
aI367529
aI1940394
aI2464706
aI2595319
aI2857466
aI1154020
aI367591
aI105460
aI1154037
aI367607
aI367649
aI105539
aI1678428
aI105566
aI105570
aI2202732
aI105581
aI1154165
aI367770
aI2866643
aI105662
aI105687
aI105707
aI367878
aI630038
aI105768
aI498226
aI1154350
aI367949
aI367960
aI892256
aI368003
aI630170
aI623288
aI630203
aI368070
aI105929
aI230483
aI892387
aI570918
aI892460
aI368186
aI892493
aI892499
aI892503
aI368230
aI106095
aI892534
aI2465402
aI106114
aI106118
aI368264
aI630422
aI106140
aI368296
aI368307
aI106208
aI368361
aI1679084
aI106224
aI106236
aI1416980
aI106261
aI1416989
aI17716
aI106302
aI106356
aI630654
aI106403
aI106420
aI630716
aI106438
aI1679310
aI1941466
aI1765370
aI1417185
aI1521298
aI892955
aI1679410
aI368691
aI368697
aI368708
aI368714
aI1417314
aI368772
aI630920
aI368821
aI2990266
aI117030
aI630989
aI368864
aI631017
aI61479
aI1155323
aI498391
aI195594
aI106778
aI1110063
aI1679680
aI368964
aI106862
aI1417588
aI2728329
aI631187
aI955026
aI631238
aI1679849
aI1679863
aI107004
aI107009
aI369161
aI107036
aI893502
aI570953
aI369247
aI1679995
aI893578
aI107152
aI369310
aI631459
aI369330
aI1417926
aI204750
aI1155801
aI893658
aI631516
aI107250
aI1680119
aI107268
aI107277
aI369437
aI631619
aI893780
aI631652
aI148968
aI1418103
aI411122
aI369591
aI631796
aI107510
aI107529
aI1680422
aI369707
aI369724
aI631870
aI2204759
aI107613
aI107625
aI894061
aI107642
aI369792
aI1156254
aI107691
aI1241297
aI1033615
aI107797
aI107820
aI632117
aI632133
aI894284
aI717027
aI107862
aI632173
aI1435156
aI1680802
aI370103
aI979188
aI632251
aI1680836
aI632316
aI108030
aI2325522
aI108056
aI1156650
aI1418796
aI1680941
aI1156668
aI1680957
aI370286
aI370290
aI108147
aI1418878
aI108168
aI370321
aI108205
aI108208
aI105417
aI1418948
aI632524
aI1419007
aI280192
aI108296
aI1419036
aI1681191
aI108348
aI894784
aI108354
aI108359
aI894792
aI2561217
aI1419099
aI125816
aI1681272
aI108434
aI108448
aI894885
aI1419175
aI370605
aI894899
aI108512
aI632806
aI894982
aI108575
aI108578
aI1681451
aI1419315
aI843943
aI370786
aI632950
aI632951
aI632992
aI1419427
aI633000
aI377816
aI1157309
aI108741
aI895174
aI633059
aI2464809
aI895225
aI1419515
aI108796
aI633098
aI108827
aI1419566
aI895279
aI2206004
aI108878
aI371040
aI1157493
aI371071
aI105536
aI895364
aI2185889
aI633281
aI109026
aI371181
aI371184
aI633340
aI1157633
aI895491
aI371228
aI109102
aI109112
aI895558
aI149260
aI633424
aI633438
aI1944167
aI371309
aI371319
aI2206362
aI895646
aI2992806
aI633513
aI633527
aI848330
aI109251
aI371408
aI1682148
aI109302
aI236671
aI109341
aI1944367
aI109360
aI109374
aI542517
aI1157952
aI371537
aI371539
aI1157979
aI1944415
aI1591101
aI760980
aI1420159
aI1944458
aI1420186
aI324079
aI1682339
aI1420197
aI2206677
aI1682415
aI1420313
aI1420347
aI1944637
aI1682509
aI109690
aI109696
aI109702
aI105669
aI109749
aI1420493
aI1158361
aI1682650
aI1158372
aI1158376
aI109814
aI109822
aI109825
aI109826
aI2206984
aI2206990
aI896280
aI804741
aI634155
aI109880
aI896341
aI109919
aI152054
aI109941
aI2469255
aI1682826
aI1285360
aI634275
aI143327
aI634286
aI1420728
aI110010
aI1372751
aI110088
aI1945110
aI1329075
aI896567
aI1158729
aI110202
aI372376
aI110233
aI1158810
aI634581
aI99692
aI634589
aI1421022
aI2159228
aI892200
aI1421049
aI105771
aI18393
aI1285423
aI455302
aI1421098
aI352837
aI1421110
aI372539
aI372551
aI1158990
aI372562
aI1159056
aI1683351
aI110495
aI372643
aI110508
aI372654
aI634824
aI634863
aI1042438
aI2469886
aI897024
aI372757
aI1945651
aI105827
aI1945688
aI897113
aI372855
aI110714
aI367985
aI761202
aI372926
aI2732224
aI372935
aI110812
aI62163
aI635134
aI897279
aI897293
aI110871
aI1234487
aI110915
aI1421665
aI897385
aI18494
aI897399
aI897414
aI111030
aI373175
aI62202
aI1683943
aI111082
aI230654
aI373254
aI2208270
aI897559
aI1421881
aI635457
aI1684048
aI1023421
aI635504
aI1159795
aI1946228
aI635523
aI273085
aI111266
aI897709
aI2470576
aI111307
aI1946319
aI635608
aI111348
aI373496
aI1684247
aI635678
aI2470724
aI111433
aI761314
aI111438
aI1160022
aI111466
aI635766
aI237033
aI635784
aI2732986
aI111554
aI111575
aI1422309
aI1160198
aI1946636
aI898071
aI635947
aI111663
aI111665
aI111669
aI111683
aI635981
aI898153
aI1110887
aI2733184
aI239405
aI373916
aI1160357
aI1422512
aI636115
aI373986
aI630316
aI283055
aI630319
aI111934
aI898416
aI1160568
aI112002
aI571117
aI374166
aI1110941
aI112100
aI374262
aI2471423
aI898563
aI2471429
aI898580
aI374310
aI1160747
aI1160754
aI1285726
aI112196
aI374341
aI1160796
aI112222
aI374391
aI374395
aI2995854
aI636561
aI1947286
aI374449
aI112310
aI1160937
aI112377
aI112407
aI636709
aI898901
aI898905
aI636786
aI1161076
aI898957
aI374687
aI374693
aI112550
aI1947609
aI374750
aI899048
aI112620
aI1947652
aI112658
aI1161235
aI374804
aI1947677
aI899126
aI374866
aI112731
aI1161318
aI899188
aI1161353
aI761547
aI1161412
aI899271
aI1766435
aI637142
aI1416911
aI112870
aI112871
aI848937
aI899344
aI499419
aI112936
aI1423682
aI112968
aI2210128
aI637283
aI637284
aI1416944
aI1423787
aI637367
aI375224
aI637369
aI113083
aI2996732
aI113173
aI113195
aI637493
aI637499
aI637508
aI586851
aI73603
aI375394
aI1948260
aI637552
aI1948292
aI113291
aI1161876
aI2210457
aI637617
aI1067466
aI805325
aI375510
aI375551
aI637740
aI1373324
aI375690
aI637853
aI1023815
aI113616
aI1686485
aI900077
aI1162233
aI113701
aI113716
aI1686626
aI113763
aI375912
aI113794
aI375956
aI375960
aI375962
aI375966
aI2596724
aI2211053
aI2473201
aI113910
aI193748
aI113960
aI237449
aI376128
aI376138
aI114029
aI638344
aI193772
aI1949075
aI1424802
aI1949099
aI1424835
aI638404
aI114132
aI1234595
aI1424869
aI1162727
aI638452
aI638471
aI2473505
aI412252
aI1687083
aI630708
aI1679286
aI114251
aI638544
aI1575034
aI638621
aI1828177
aI1592493
aI638649
aI376513
aI900807
aI376535
aI114400
aI1162989
aI1163000
aI114462
aI900898
aI1163057
aI376632
aI1425210
aI114526
aI1163103
aI376680
aI114547
aI1980235
aI114582
aI376728
aI376743
aI901048
aI376789
aI1356819
aI630780
aI114672
aI2211877
aI376873
aI114747
aI1949759
aI901191
aI901200
aI114770
aI114795
aI639104
aI1425602
aI377037
aI114917
aI901379
aI62851
aI1941552
aI377133
aI1425711
aI114996
aI377142
aI901434
aI639295
aI901443
aI1163607
aI115049
aI639343
aI639346
aI1425785
aI115076
aI377225
aI1042588
aI1687972
aI639406
aI639430
aI115145
aI115160
aI1959140
aI377392
aI901749
aI1950327
aI377464
aI237676
aI1426065
aI639659
aI1688274
aI1426131
aI368762
aI639716
aI115432
aI639725
aI115466
aI115481
aI377628
aI126052
aI901925
aI377639
aI1155209
aI901944
aI901946
aI1373663
aI115563
aI1688441
aI639868
aI980459
aI115608
aI115650
aI1688518
aI2474966
aI639960
aI115698
aI377856
aI902161
aI640043
aI902207
aI640095
aI377953
aI902242
aI115845
aI115866
aI378024
aI1164465
aI1164491
aI368848
aI1164527
aI115965
aI640288
aI1951026
aI1426742
aI378183
aI2737501
aI902497
aI1426788
aI1164646
aI116087
aI972789
aI805787
aI1164726
aI1426891
aI902654
aI116273
aI640577
aI640584
aI63074
aI1164966
aI1427124
aI1427138
aI640727
aI1427161
aI1951461
aI116472
aI378622
aI1427200
aI1427287
aI1165146
aI903010
aI1427309
aI116614
aI2213767
aI903055
aI903102
aI1689539
aI640978
aI1951708
aI116712
aI1165289
aI379235
aI1689607
aI237917
aI2213940
aI379008
aI116879
aI903324
aI936986
aI1427631
aI2476247
aI1165535
aI903397
aI929173
aI379160
aI1689894
aI1427758
aI1165635
aI117068
aI1165646
aI117092
aI903585
aI1427878
aI641484
aI117215
aI1427942
aI379378
aI117259
aI641553
aI117268
aI2214437
aI2738734
aI117350
aI903790
aI1428089
aI379550
aI2476706
aI1165998
aI379572
aI903888
aI1428191
aI903907
aI379650
aI1166092
aI1428241
aI2738966
aI456496
aI379698
aI117587
aI1428316
aI1428318
aI117603
aI904045
aI1242944
aI641934
aI117648
aI379800
aI117657
aI1662436
aI1166285
aI379936
aI642096
aI19635
aI379980
aI63333
aI2477178
aI642173
aI1428609
aI1428643
aI2215083
aI3927
aI380096
aI642242
aI1428679
aI904393
aI118007
aI1953016
aI118027
aI1690908
aI642340
aI718728
aI118068
aI1461682
aI2335291
aI1428854
aI1723626
aI118145
aI1166727
aI380317
aI893510
aI1428904
aI118222
aI118228
aI380374
aI19707
aI380405
aI380425
aI642572
aI955404
aI396746
aI1429053
aI380483
aI380487
aI642670
aI1429122
aI1953431
aI380579
aI118437
aI904874
aI380589
aI1953464
aI2739900
aI380621
aI63437
aI380625
aI642774
aI118500
aI1167113
aI544045
aI904992
aI1953603
aI1167194
aI1112042
aI380829
aI1691559
aI118703
aI380942
aI414221
aI118817
aI643109
aI238260
aI905293
aI118903
aI1691769
aI1953933
aI1429666
aI2160669
aI1461622
aI1112097
aI118989
aI1691857
aI381148
aI643298
aI1429777
aI544132
aI1954076
aI119081
aI119084
aI643406
aI631525
aI19856
aI1692003
aI119159
aI1167750
aI1429895
aI643483
aI381345
aI119212
aI643514
aI2216380
aI119230
aI2740677
aI119271
aI119280
aI1167867
aI119326
aI1167953
aI369429
aI1418007
aI107289
aI1168038
aI1430241
aI119527
aI643827
aI643842
aI2216749
aI119622
aI119660
aI1296178
aI906136
aI381849
aI1954734
aI1430450
aI119737
aI3003352
aI381938
aI194732
aI644173
aI119909
aI119910
aI1168493
aI1430648
aI1168588
aI382166
aI1430754
aI1168625
aI382228
aI1168661
aI1430810
aI73831
aI1430812
aI644388
aI644394
aI644419
aI120138
aI63717
aI120163
aI644467
aI2685161
aI107415
aI644518
aI2291955
aI1024928
aI3003858
aI1430996
aI1680298
aI382463
aI1168916
aI644649
aI382508
aI382521
aI644669
aI120399
aI1169007
aI906878
aI644766
aI500681
aI120513
aI1431239
aI1680345
aI893918
aI547238
aI644992
aI382849
aI382852
aI806550
aI1693593
aI1431453
aI645029
aI907184
aI120753
aI120767
aI151200
aI120779
aI120808
aI382979
aI382982
aI645132
aI383007
aI383019
aI1169454
aI645167
aI645186
aI645188
aI544439
aI1431629
aI2218062
aI194915
aI1169519
aI120955
aI383102
aI1169540
aI907415
aI120990
aI383148
aI121006
aI117507
aI510314
aI1956041
aI121096
aI369708
aI645386
aI1169696
aI1169705
aI121146
aI719247
aI1956207
aI1169798
aI645511
aI907678
aI588189
aI121285
aI1169863
aI204807
aI1169883
aI121309
aI1432033
aI383478
aI907779
aI1694215
aI121363
aI121364
aI2742805
aI1169959
aI907860
aI121445
aI2218610
aI383609
aI907911
aI383635
aI121493
aI894063
aI1170080
aI2218668
aI2742978
aI383731
aI383744
aI383759
aI383786
aI645956
aI2264874
aI369812
aI2218907
aI383904
aI383912
aI1694691
aI1170411
aI1694707
aI107694
aI1025201
aI2204851
aI122005
aI1432762
aI1432771
aI908494
aI2743517
aI2743530
aI908536
aI122118
aI1957127
aI122162
aI384316
aI122183
aI1724300
aI122196
aI122199
aI2971944
aI1957251
aI1695127
aI997664
aI646585
aI1695163
aI122313
aI1170900
aI326224
aI1957346
aI122353
aI1433093
aI646668
aI2204931
aI122422
aI122428
aI937911
aI908879
aI1593273
aI1171043
aI384617
aI122524
aI326257
aI1433268
aI384701
aI1433298
aI1171172
aI646891
aI122607
aI384808
aI1433392
aI65188
aI2219831
aI384838
aI1171276
aI122718
aI2744162
aI1957760
aI122757
aI122765
aI384915
aI1957780
aI746057
aI64157
aI384994
aI122868
aI385024
aI2220042
aI1171470
aI1695766
aI240324
aI1957932
aI1171509
aI1171529
aI806925
aI122978
aI763246
aI123033
aI2220206
aI385205
aI20512
aI909506
aI647380
aI1958114
aI2744553
aI123127
aI385273
aI123140
aI64223
aI123204
aI326370
aI909651
aI2744663
aI1171806
aI385378
aI2220391
aI123297
aI1696166
aI1171884
aI1331272
aI909760
aI1958344
aI909777
aI123378
aI909814
aI501166
aI123415
aI1172002
aI64262
aI501173
aI2220612
aI909902
aI647794
aI123527
aI123564
aI501196
aI1172174
aI123600
aI1172205
aI1855621
aI910113
aI123695
aI1696560
aI123709
aI1172352
aI763371
aI1400768
aI123781
aI385950
aI123827
aI123837
aI385982
aI117601
aI123844
aI385997
aI1696731
aI1112917
aI386085
aI1434688
aI386152
aI386161
aI1172606
aI386178
aI2247494
aI607004
aI648372
aI2221245
aI124110
aI1696979
aI124119
aI2483422
aI1172714
aI124160
aI1172739
aI386348
aI213633
aI386378
aI124238
aI124257
aI386455
aI648615
aI1435068
aI2483649
aI1156688
aI910844
aI1697320
aI1173033
aI2168947
aI124486
aI910941
aI1173113
aI386751
aI1435341
aI386779
aI648938
aI1435376
aI124674
aI64474
aI649006
aI1244126
aI911244
aI1173390
aI1173402
aI124828
aI649120
aI807239
aI387002
aI387028
aI1592845
aI1697798
aI1435655
aI1959948
aI124946
aI124966
aI911412
aI2746429
aI911431
aI1173601
aI1435749
aI2746474
aI414055
aI387194
aI1173638
aI981817
aI414062
aI911519
aI1173667
aI387247
aI387254
aI20856
aI387285
aI2484445
aI501459
aI1698073
aI649504
aI1331592
aI387387
aI387405
aI125278
aI1698155
aI2423870
aI1436032
aI1173898
aI649632
aI501494
aI387526
aI649687
aI1960425
aI911854
aI1113171
aI387573
aI1960455
aI1174035
aI1173869
aI649790
aI545207
aI125629
aI387800
aI125685
aI178767
aI912163
aI387885
aI370483
aI125750
aI545253
aI912236
aI650094
aI650109
aI1436548
aI387996
aI1698723
aI650157
aI125871
aI388026
aI125938
aI125981
aI1698887
aI1698893
aI2055521
aI126033
aI126039
aI126042
aI1856015
aI1961102
aI2747560
aI388267
aI912563
aI650425
aI126188
aI912623
aI650489
aI912658
aI126229
aI388388
aI650551
aI1437005
aI1174869
aI1437016
aI650606
aI1961333
aI126352
aI2485660
aI126372
aI388520
aI126411
aI650722
aI912873
aI912946
aI126540
aI126562
aI913020
aI126600
aI650891
aI913053
aI2485921
aI388787
aI1961669
aI913097
aI126688
aI388834
aI913166
aI913184
aI711273
aI126766
aI126768
aI388916
aI388929
aI388951
aI108518
aI913261
aI913281
aI126893
aI1437668
aI389099
aI1699833
aI389119
aI913421
aI306360
aI126998
aI1175585
aI2224186
aI1175633
aI127059
aI1437783
aI64873
aI2224265
aI389258
aI1437845
aI389279
aI1175714
aI651440
aI1175739
aI2224331
aI913620
aI127189
aI127203
aI1175802
aI475607
aI1175881
aI913758
aI913761
aI127359
aI1175966
aI1175983
aI1176000
aI127440
aI1700321
aI127465
aI458161
aI127543
aI127549
aI64949
aI622353
aI64963
aI651924
aI2749095
aI1637832
aI1438393
aI938787
aI127724
aI127742
aI914184
aI652057
aI1700634
aI127792
aI389958
aI405876
aI914272
aI2361100
aI127928
aI1700797
aI914405
aI1700845
aI390139
aI1438733
aI1176601
aI128035
aI914500
aI128076
aI501945
aI1700963
aI1697700
aI390278
aI390280
aI914612
aI390381
aI128245
aI390407
aI652649
aI390510
aI3011961
aI652669
aI128386
aI128397
aI128398
aI652693
aI128421
aI652728
aI128463
aI100297
aI128511
aI2225682
aI914967
aI2487835
aI1177119
aI390720
aI128581
aI128586
aI390747
aI652895
aI1177191
aI915064
aI1662801
aI128645
aI652945
aI128660
aI764206
aI1701672
aI128816
aI390977
aI390989
aI1177441
aI653211
aI1701789
aI2488235
aI2948765
aI128977
aI2488281
aI1439720
aI653292
aI1177599
aI915465
aI915495
aI633183
aI1701975
aI391315
aI2244209
aI129195
aI391345
aI1177790
aI1900235
aI2488550
aI1177897
aI129322
aI143972
aI1177999
aI2226597
aI152648
aI653778
aI1702401
aI129570
aI1274604
aI2226755
aI653929
aI887728
aI1584275
aI391850
aI916144
aI1964734
aI654031
aI152696
aI1702612
aI370940
aI109069
aI654071
aI129808
aI129847
aI392044
aI1702789
aI1288693
aI1702863
aI916443
aI1201322
aI1178669
aI916535
aI1178686
aI916553
aI392271
aI851811
aI654424
aI2227298
aI654495
aI130211
aI916657
aI392426
aI130304
aI1441046
aI894702
aI130387
aI938350
aI130434
aI392626
aI654789
aI130515
aI3014123
aI392684
aI2489839
aI130580
aI1441326
aI808203
aI917064
aI130638
aI130641
aI917077
aI1965662
aI654953
aI130689
aI2227851
aI1179310
aI130753
aI655062
aI1179377
aI1441523
aI2752250
aI130854
aI1121675
aI655172
aI655203
aI655224
aI1703848
aI131021
aI655316
aI917467
aI467003
aI917494
aI131068
aI393243
aI393280
aI720912
aI1441894
aI131227
aI1179828
aI393406
aI393411
aI2490579
aI1704166
aI1288914
aI131320
aI1374833
aI1442086
aI131368
aI655667
aI1704261
aI1704266
aI131433
aI917875
aI240363
aI1180054
aI196679
aI393664
aI131527
aI393758
aI2228771
aI393783
aI1180218
aI2228800
aI1704529
aI131688
aI852081
aI918194
aI393908
aI393941
aI918264
aI393984
aI1180424
aI1572095
aI1704724
aI394010
aI1966875
aI394012
aI394013
aI131870
aI394042
aI1180508
aI131944
aI918377
aI918414
aI1837457
aI2753450
aI589985
aI1332731
aI132089
aI2491420
aI1180711
aI132137
aI1180720
aI1180722
aI1967171
aI132164
aI132178
aI394326
aI656489
aI1180785
aI656539
aI415258
aI1180848
aI394435
aI656606
aI132325
aI1443080
aI132364
aI1705245
aI1967396
aI656677
aI918850
aI132424
aI1967484
aI656769
aI1443223
aI132509
aI918959
aI132528
aI918978
aI2119245
aI919007
aI1181163
aI656878
aI2754056
aI1443358
aI394796
aI1705524
aI371637
aI677472
aI65813
aI132748
aI1443501
aI1532004
aI657132
aI1705725
aI1705736
aI657174
aI132910
aI395059
aI132931
aI196919
aI109538
aI1907358
aI2754447
aI133021
aI1968030
aI1968099
aI919547
aI657427
aI1443866
aI133198
aI2492503
aI657496
aI395353
aI48082
aI1332934
aI657584
aI1181897
aI1697875
aI657669
aI2754848
aI1444140
aI919897
aI395628
aI395659
aI395681
aI657830
aI133578
aI1706450
aI395760
aI1182195
aI2492931
aI395800
aI1706531
aI395842
aI133717
aI133732
aI920173
aI395890
aI133753
aI2032064
aI395910
aI3017357
aI133802
aI395952
aI133811
aI920258
aI395974
aI133840
aI133852
aI1444609
aI2231046
aI396043
aI1182479
aI920355
aI920371
aI133943
aI1968972
aI133972
aI396183
aI658362
aI920539
aI1444831
aI920564
aI920568
aI658428
aI396300
aI396305
aI396318
aI779519
aI1707086
aI396404
aI2231440
aI1707160
aI396458
aI396476
aI134360
aI1707253
aI1182982
aI1445127
aI1183010
aI1445160
aI1183042
aI396618
aI920917
aI396631
aI134502
aI1245756
aI1183110
aI459329
aI396747
aI396754
aI921110
aI634120
aI1183294
aI659025
aI134743
aI1507941
aI134754
aI921204
aI1445507
aI947225
aI1802671
aI328304
aI921254
aI134824
aI459379
aI2232045
aI109870
aI1183519
aI546779
aI2232151
aI135007
aI3018595
aI135020
aI1970038
aI2119660
aI1158469
aI2494384
aI135105
aI135116
aI2232273
aI1707987
aI921563
aI135133
aI135138
aI634196
aI135188
aI397336
aI135233
aI2494535
aI921690
aI921698
aI590525
aI135294
aI135301
aI659590
aI2494599
aI397540
aI659695
aI659696
aI1595433
aI1708284
aI135441
aI135448
aI1184032
aI135494
aI659804
aI397667
aI659854
aI397719
aI135589
aI3037257
aI109264
aI659910
aI135665
aI922119
aI397850
aI397861
aI1446448
aI135731
aI922168
aI1970746
aI397898
aI135769
aI135778
aI135786
aI135797
aI135844
aI983836
aI135850
aI660151
aI660175
aI1708762
aI1945043
aI634324
aI922367
aI135946
aI135952
aI922401
aI135978
aI398136
aI1708868
aI136008
aI660311
aI660312
aI922458
aI922470
aI415893
aI922522
aI398242
aI1411510
aI136129
aI136141
aI1971165
aI398309
aI922599
aI922613
aI3019772
aI1709089
aI660524
aI1709104
aI136258
aI1595574
aI372239
aI922737
aI1184902
aI136363
aI398519
aI660694
aI1185000
aI328577
aI398606
aI197507
aI634419
aI136505
aI136508
aI136540
aI136550
aI398701
aI1185169
aI983969
aI136666
aI2758150
aI136717
aI1709587
aI3020312
aI2496033
aI1185321
aI661035
aI1447509
aI398939
aI1447525
aI136819
aI136825
aI136834
aI923270
aI1202461
aI923315
aI399037
aI379907
aI2758340
aI661196
aI136924
aI399077
aI399109
aI2758467
aI1447749
aI137067
aI137080
aI661378
aI399274
aI1447867
aI661447
aI399317
aI661469
aI137188
aI563229
aI923695
aI399414
aI2496567
aI661589
aI2758769
aI1972338
aI661643
aI1185960
aI2496702
aI1185997
aI399584
aI137467
aI661768
aI2234646
aI399649
aI22920
aI399696
aI661841
aI399698
aI66617
aI399704
aI1448283
aI2234726
aI399722
aI661872
aI110313
aI137626
aI924079
aI399815
aI924109
aI1186291
aI662063
aI1448535
aI399992
aI2497158
aI924299
aI924313
aI2497180
aI662177
aI137893
aI924339
aI1710784
aI65696
aI662250
aI137972
aI400127
aI138023
aI2497335
aI138071
aI400223
aI1973115
aI23020
aI1448860
aI400286
aI924578
aI1711021
aI3021758
aI2759625
aI662487
aI285178
aI896849
aI138228
aI1186817
aI1973256
aI138256
aI138261
aI1711131
aI662615
aI662625
aI2235505
aI662645
aI1244588
aI1449101
aI138383
aI924820
aI1973411
aI924862
aI1449157
aI1449181
aI924896
aI1449185
aI138475
aI400623
aI634752
aI3022085
aI662791
aI400654
aI1187091
aI1187103
aI1973552
aI662844
aI138579
aI400728
aI138604
aI2235785
aI23109
aI1187240
aI1711598
aI663031
aI138772
aI138780
aI2760223
aI1187364
aI925222
aI1202784
aI1187404
aI138837
aI1765925
aI925307
aI401025
aI1187459
aI1449624
aI1187483
aI2236074
aI138929
aI401096
aI138955
aI663246
aI1449710
aI401137
aI1689333
aI139010
aI2498327
aI139054
aI401203
aI2236219
aI925549
aI1974132
aI241642
aI401299
aI663447
aI1187737
aI1043390
aI1187785
aI139239
aI401393
aI2236403
aI925719
aI139300
aI372743
aI663604
aI1450040
aI663627
aI925782
aI1450077
aI139361
aI139363
aI401510
aI401539
aI139396
aI925885
aI109392
aI925897
aI362536
aI401656
aI401672
aI139547
aI1188132
aI1450278
aI401704
aI1246606
aI663904
aI139633
aI2498934
aI23276
aI139667
aI663970
aI2236847
aI926143
aI1450455
aI1188322
aI664047
aI139760
aI1450483
aI664071
aI664108
aI664125
aI664157
aI402022
aI402037
aI139917
aI926352
aI139927
aI664228
aI65763
aI1974961
aI402107
aI2499274
aI139985
aI664285
aI2499295
aI1450748
aI1712905
aI926474
aI1450763
aI1450765
aI140070
aI1069607
aI664364
aI402222
aI402240
aI198116
aI1188701
aI926594
aI1188760
aI402331
aI1450977
aI1450993
aI1975296
aI664577
aI3023877
aI329226
aI1188942
aI664672
aI1188964
aI140392
aI926845
aI664735
aI402610
aI416630
aI2237684
aI664822
aI1189124
aI402706
aI927002
aI664898
aI154513
aI927092
aI402814
aI1451396
aI1451422
aI140711
aI140740
aI665066
aI140786
aI1713660
aI140816
aI853593
aI140827
aI2762310
aI665163
aI140877
aI140901
aI1713771
aI1451635
aI853609
aI140937
aI140939
aI665261
aI927408
aI403133
aI1451714
aI403147
aI141022
aI2762486
aI1189625
aI591487
aI665363
aI2762516
aI927511
aI2601263
aI403230
aI809950
aI203452
aI665401
aI1159478
aI141172
aI141177
aI927626
aI665485
aI665497
aI665507
aI927652
aI502259
aI141284
aI141304
aI141349
aI141363
aI1452108
aI403543
aI927844
aI285714
aI1814888
aI1034736
aI23574
aI403610
aI2876565
aI1452194
aI665791
aI2500806
aI665800
aI403664
aI403682
aI141552
aI403697
aI141555
aI665849
aI928001
aI665864
aI807786
aI110979
aI1976597
aI1190184
aI403759
aI1714488
aI2500940
aI1190235
aI3025259
aI403853
aI1714600
aI1190319
aI1452503
aI666079
aI1190388
aI403959
aI2033408
aI666133
aI928280
aI1714715
aI1190430
aI404033
aI141906
aI2239098
aI1714814
aI1200607
aI1714907
aI853800
aI2501384
aI666439
aI142162
aI779572
aI404335
aI666487
aI928668
aI142237
aI722760
aI2763709
aI666564
aI928786
aI142368
aI404536
aI548020
aI1977413
aI404581
aI666727
aI142454
aI404623
aI853872
aI548048
aI1191184
aI3026193
aI1977619
aI23771
aI142632
aI404799
aI2501970
aI1191261
aI142696
aI666989
aI1191288
aI1715579
aI142716
aI404861
aI1191329
aI1191373
aI929233
aI2239956
aI1977815
aI2764255
aI142822
aI929265
aI1453578
aI405013
aI405015
aI405017
aI1684058
aI1977893
aI1715759
aI2606013
aI142928
aI142929
aI405117
aI142979
aI142985
aI405143
aI1453749
aI405238
aI405244
aI373378
aI405280
aI2502457
aI679227
aI329709
aI23875
aI143253
aI405398
aI1191841
aI929701
aI143295
aI2502626
aI405481
aI405529
aI667682
aI929845
aI1454135
aI67598
aI667740
aI143455
aI1716339
aI667767
aI667776
aI405673
aI405681
aI929973
aI143543
aI1716463
aI1716542
aI667984
aI668008
aI405865
aI143739
aI405906
aI143803
aI930306
aI897794
aI1192479
aI143938
aI930393
aI111375
aI1192557
aI1979005
aI930450
aI406181
aI1454806
aI1422124
aI144149
aI1717016
aI406323
aI144211
aI668501
aI144287
aI1717179
aI2503644
aI2503659
aI144368
aI1028949
aI406543
aI2241552
aI930847
aI144424
aI144486
aI592061
aI406659
aI144529
aI144542
aI930987
aI1193146
aI24098
aI668921
aI1455354
aI931087
aI144665
aI1979703
aI669001
aI669020
aI1979764
aI1193335
aI406905
aI1902830
aI1455510
aI144813
aI669111
aI406970
aI144833
aI1193449
aI2077613
aI548443
aI1455661
aI144491
aI1717822
aI592139
aI1455713
aI144997
aI2242189
aI330013
aI407245
aI931545
aI145117
aI373712
aI145122
aI1375293
aI467473
aI1193749
aI407318
aI24197
aI145185
aI145190
aI145214
aI1029089
aI1193808
aI407382
aI2242409
aI1193841
aI67903
aI669574
aI145287
aI407456
aI407466
aI145334
aI145346
aI1980359
aI145357
aI145366
aI407526
aI669677
aI825371
aI1261825
aI407650
aI1456234
aI145525
aI145536
aI214343
aI3029131
aI145574
aI407731
aI1456334
aI1829219
aI1456376
aI461186
aI145682
aI669979
aI407845
aI670034
aI1456495
aI670078
aI205229
aI2242956
aI670111
aI1980846
aI932319
aI1194474
aI408106
aI932418
aI145989
aI408173
aI1981050
aI670377
aI670396
aI1194694
aI1456875
aI408318
aI504963
aI670535
aI408440
aI146309
aI1981328
aI1194908
aI2383685
aI408519
aI408564
aI624638
aI670740
aI146455
aI1981471
aI3030058
aI1195056
aI408643
aI1195080
aI146513
aI3030099
aI1195099
aI860326
aI215709
aI1981591
aI146587
aI2243741
aI1195176
aI146610
aI146612
aI408773
aI1195208
aI146656
aI1335165
aI1073023
aI1195273
aI933132
aI1981709
aI2208992
aI671047
aI933198
aI408913
aI1195346
aI2034234
aI671116
aI408992
aI3030434
aI146857
aI242934
aI1719752
aI146892
aI146897
aI933343
aI409059
aI671213
aI1457692
aI146975
aI409149
aI1457769
aI671366
aI671375
aI933535
aI933552
aI147141
aI147150
aI1195752
aI933633
aI147235
aI1073117
aI1720112
aI598478
aI24545
aI1720146
aI1458016
aI1195891
aI1948156
aI409473
aI671660
aI671686
aI2244559
aI147437
aI933879
aI1196036
aI147463
aI1982525
aI2244675
aI933963
aI1982576
aI671858
aI170766
aI409744
aI147601
aI671934
aI671943
aI409820
aI671973
aI1029502
aI409869
aI409875
aI147759
aI1720624
aI199397
aI2340240
aI1982831
aI672118
aI1720704
aI1982850
aI147845
aI147915
aI738165
aI1458648
aI934388
aI410102
aI1720847
aI148004
aI148009
aI330504
aI240613
aI374198
aI2507338
aI148059
aI934502
aI1720987
aI148146
aI410299
aI672455
aI410326
aI112079
aI410341
aI148271
aI934710
aI934719
aI410439
aI1721198
aI148346
aI148365
aI2440343
aI1721248
aI1684977
aI410536
aI148423
aI2507726
aI672726
aI148473
aI410636
aI336648
aI148540
aI505355
aI672841
aI410699
aI410740
aI148601
aI410747
aI672892
aI148616
aI672906
aI1721527
aI1197246
aI935122
aI410856
aI1459449
aI673027
aI148745
aI243245
aI148766
aI148824
aI2770274
aI148845
aI410996
aI148870
aI112194
aI411022
aI411023
aI935361
aI1983983
aI935408
aI673282
aI148998
aI1984039
aI935474
aI149050
aI149059
aI1721941
aI411247
aI330697
aI2246329
aI1197775
aI149206
aI1197796
aI1197896
aI149325
aI149330
aI149341
aI149358
aI1728830
aI149367
aI673664
aI411524
aI149390
aI149391
aI149395
aI752288
aI149436
aI411582
aI673730
aI411591
aI411632
aI680275
aI411645
aI935952
aI2246674
aI2508830
aI411685
aI1198166
aI673882
aI519995
aI411767
aI673924
aI330777
aI418160
aI149692
aI24950
aI1460422
aI1722584
aI1722625
aI936217
aI149808
aI411954
aI149818
aI2509123
aI149872
aI149899
aI2509223
aI412074
aI1198509
aI1460657
aI1160952
aI1985032
aI243458
aI674326
aI150059
aI150062
aI674374
aI2509384
aI2247277
aI1198729
aI156098
aI2745919
aI2509472
aI1460905
aI412335
aI150195
aI936643
aI68727
aI1554215
aI3033858
aI1198860
aI1461008
aI150327
aI412486
aI1461068
aI412507
aI150370
aI1985406
aI936840
aI674700
aI1461186
aI2509779
aI1035039
aI1723426
aI2247747
aI150339
aI1199264
aI2772132
aI1461421
aI112500
aI675006
aI150740
aI150771
aI675065
aI412923
aI937222
aI150803
aI937239
aI150882
aI413027
aI2248054
aI413049
aI150926
aI937367
aI413094
aI1698461
aI675311
aI1723893
aI413180
aI1423274
aI151048
aI1117445
aI1168944
aI151097
aI151111
aI243639
aI25191
aI2515563
aI1461893
aI675462
aI413337
aI413354
aI151212
aI1986221
aI675502
aI1199797
aI1199813
aI675552
aI151269
aI937718
aI2510591
aI151312
aI675631
aI413494
aI1462074
aI413512
aI151382
aI675682
aI1335954
aI937841
aI151430
aI505836
aI151445
aI1200028
aI937892
aI1986499
aI151495
aI287395
aI413670
aI2248694
aI938024
aI151599
aI223274
aI1200182
aI675937
aI938089
aI151686
aI1724627
aI413910
aI151799
aI938236
aI1724701
aI151847
aI938297
aI2773318
aI414027
aI1200469
aI2511190
aI1724762
aI1986983
aI1724847
aI112713
aI152015
aI152016
aI1305689
aI1200603
aI1200610
aI414184
aI2511337
aI152083
aI938516
aI2511413
aI986552
aI1987218
aI1200803
aI414385
aI414458
aI152347
aI152349
aI2249502
aI855515
aI2511671
aI676675
aI938822
aI1008575
aI152422
aI1463180
aI1725325
aI676755
aI506009
aI1463272
aI3036173
aI939023
aI2472111
aI1463336
aI1201193
aI1423539
aI939064
aI152640
aI939080
aI331277
aI855567
aI152668
aI414813
aI1201272
aI152703
aI1201317
aI939176
aI152809
aI677099
aI414972
aI1987838
aI1117740
aI152873
aI152876
aI1725764
aI144756
aI415057
aI152948
aI1463681
aI152963
aI1987993
aI677356
aI1201647
aI153083
aI153101
aI153110
aI1726005
aI415324
aI677526
aI2512545
aI939701
aI153285
aI415448
aI200322
aI153390
aI1201967
aI2506819
aI153407
aI1202001
aI899205
aI724626
aI3037049
aI939909
aI1726343
aI1860591
aI153503
aI1726377
aI415664
aI415668
aI1726402
aI153545
aI415715
aI153574
aI153580
aI940020
aI940030
aI1202200
aI528858
aI855728
aI940072
aI1726511
aI855738
aI415865
aI153723
aI940158
aI153731
aI940208
aI940217
aI415932
aI855758
aI156708
aI940252
aI1726699
aI153872
aI1464605
aI678180
aI940340
aI416100
aI1148631
aI1464696
aI153980
aI940441
aI154047
aI244128
aI678338
aI156749
aI416224
aI154112
aI940569
aI154152
aI1989162
aI1727038
aI154219
aI940656
aI1202830
aI154262
aI1727159
aI154306
aI1727181
aI25720
aI940754
aI416467
aI154329
aI416518
aI2516097
aI940858
aI799486
aI416627
aI2775931
aI69442
aI678801
aI113141
aI1203147
aI1989582
aI1727472
aI941072
aI416791
aI154703
aI1727569
aI679006
aI941158
aI416900
aI416947
aI113183
aI1989820
aI941272
aI1203440
aI154877
aI1203457
aI92448
aI154905
aI417057
aI941357
aI679240
aI941398
aI1203580
aI155005
aI1990021
aI155020
aI155033
aI417194
aI1203633
aI155077
aI941516
aI1203662
aI1511332
aI941536
aI2776550
aI462760
aI417292
aI155166
aI417311
aI155173
aI1203773
aI1203775
aI155201
aI1728111
aI679612
aI941764
aI155336
aI1466095
aI155387
aI417562
aI679749
aI101197
aI1990505
aI1466229
aI1289347
aI1728398
aI417685
aI1204130
aI1204143
aI1990577
aI155584
aI679886
aI568420
aI679894
aI417806
aI1990684
aI2252829
aI1204258
aI417872
aI200719
aI1466490
aI942230
aI545726
aI25968
aI942261
aI155861
aI942296
aI257670
aI1204508
aI942368
aI1466663
aI1728808
aI1466682
aI418146
aI637679
aI680372
aI680398
aI680420
aI680446
aI418349
aI942657
aI156239
aI942698
aI418413
aI1074622
aI680578
aI1992129
aI942733
aI768795
aI1511546
aI156388
aI418556
aI942852
aI942855
aI942878
aI594053
aI418613
aI2560137
aI156481
aI1729347
aI680786
aI1030974
aI1467267
aI1467304
aI1205175
aI2515902
aI680909
aI156629
aI680920
aI1991643
aI680925
aI511501
aI681009
aI1205299
aI1336843
aI156755
aI681044
aI156758
aI1205339
aI1205344
aI156811
aI681102
aI681132
aI156869
aI681166
aI1729773
aI419075
aI2615209
aI419097
aI1729859
aI681290
aI681309
aI223456
aI1162136
aI1992083
aI1205681
aI244647
aI943604
aI900132
aI419352
aI157237
aI157247
aI1467988
aI1293244
aI419436
aI2254448
aI943730
aI419449
aI113601
aI157332
aI1205955
aI157397
aI681686
aI681692
aI1468130
aI1402923
aI1948627
aI1206016
aI1468180
aI157503
aI681800
aI681803
aI157541
aI681838
aI943983
aI1424361
aI3041160
aI1730461
aI157601
aI681895
aI3041194
aI681911
aI157629
aI1468366
aI419805
aI944108
aI1206267
aI157701
aI1468435
aI944181
aI1468484
aI157768
aI157770
aI1730638
aI1206369
aI682095
aI419956
aI419970
aI1206403
aI2517131
aI157837
aI420001
aI944301
aI157873
aI157882
aI419542
aI682263
aI1468708
aI1206579
aI158014
aI1206613
aI1730908
aI1206703
aI944593
aI682480
aI158226
aI420376
aI944681
aI856498
aI3041843
aI158285
aI158297
aI420447
aI1469087
aI2517689
aI179855
aI944867
aI158448
aI420613
aI1207049
aI944919
aI1469208
aI1993501
aI113797
aI158502
aI944948
aI420688
aI944978
aI420707
aI945011
aI2780033
aI945029
aI420747
aI1207195
aI1394202
aI158651
aI158668
aI681807
aI1270995
aI1207294
aI945157
aI158766
aI1207346
aI683077
aI420964
aI2518118
aI1731706
aI1207449
aI1207456
aI113865
aI1207489
aI421089
aI2256122
aI987695
aI421162
aI421163
aI2518317
aI86454
aI421195
aI1994081
aI421223
aI2518398
aI463430
aI159145
aI945600
aI2256325
aI421333
aI1469919
aI2518525
aI1469954
aI1994250
aI683548
aI159270
aI945722
aI2518608
aI159319
aI113936
aI159341
aI288703
aI421512
aI159369
aI1207963
aI159388
aI1207991
aI683735
aI159462
aI2256633
aI258453
aI1208078
aI159522
aI159559
aI159570
aI421752
aI683921
aI1208233
aI159721
aI946170
aI159765
aI159769
aI2256955
aI946270
aI422010
aI946312
aI153718
aI684229
aI684271
aI422133
aI2257149
aI1995006
aI422184
aI684368
aI2030468
aI422252
aI422263
aI2519416
aI422289
aI1995170
aI1470887
aI160173
aI1293725
aI1470907
aI70393
aI946652
aI1208799
aI1733091
aI1470950
aI83897
aI1470999
aI684613
aI1471051
aI684620
aI946789
aI1471089
aI160393
aI1471152
aI1209018
aI1209020
aI160476
aI1905446
aI946922
aI70439
aI2257675
aI422670
aI160527
aI422693
aI684869
aI2782028
aI201528
aI684890
aI1209197
aI160634
aI684932
aI684934
aI1733546
aI422845
aI2782160
aI422884
aI160759
aI160774
aI160811
aI160820
aI160821
aI1471542
aI551093
aI1209430
aI1209443
aI423105
aI160971
aI1471699
aI160990
aI947437
aI685314
aI161036
aI947478
aI947514
aI947539
aI423259
aI685404
aI1209702
aI423283
aI376386
aI1734033
aI423316
aI2520471
aI1209757
aI161182
aI947618
aI2255089
aI161201
aI1468663
aI161238
aI1996272
aI161278
aI1472001
aI157957
aI423491
aI1734279
aI161423
aI685750
aI2342516
aI1210059
aI1210060
aI947917
aI70605
aI1210071
aI947970
aI1250265
aI423734
aI900747
aI161633
aI1472389
aI376474
aI686008
aI423871
aI376483
aI686036
aI1210329
aI948209
aI1472513
aI2103202
aI944474
aI161832
aI424004
aI948301
aI161885
aI424052
aI463907
aI2728855
aI424187
aI162070
aI1997103
aI424243
aI162137
aI2259303
aI424300
aI162163
aI2259322
aI201792
aI1210760
aI948640
aI2783703
aI424422
aI424446
aI424498
aI162355
aI424509
aI1735262
aI162407
aI162461
aI686758
aI616443
aI1473214
aI424651
aI1211175
aI1211187
aI110164
aI424809
aI162668
aI162698
aI687010
aI1211329
aI949209
aI1211395
aI1211428
aI464050
aI1735751
aI949328
aI949346
aI3046513
aI1211524
aI687239
aI1211528
aI949388
aI949406
aI2260150
aI2260152
aI949437
aI163024
aI687315
aI1211614
aI163041
aI949476
aI1735920
aI425219
aI425245
aI857308
aI425275
aI163142
aI2736012
aI163186
aI1211782
aI425367
aI163228
aI425380
aI1473963
aI687538
aI2260426
aI687571
aI1211906
aI1211934
aI949829
aI2522695
aI1119500
aI1736297
aI333074
aI687739
aI1736344
aI1212060
aI687784
aI2522817
aI1774881
aI687820
aI245709
aI425680
aI163549
aI425714
aI1212166
aI1736462
aI1474334
aI425787
aI425801
aI425809
aI163699
aI950147
aI638956
aI950178
aI1212341
aI163769
aI2260930
aI2260936
aI163849
aI163882
aI688201
aI214602
aI163961
aI950430
aI1474739
aI1212596
aI426171
aI426188
aI2261259
aI688405
aI2261273
aI688411
aI688422
aI164142
aI1212727
aI1212756
aI688477
aI1163323
aI164214
aI164230
aI426379
aI164237
aI426422
aI164352
aI1999393
aI426533
aI1213006
aI164477
aI426662
aI114801
aI164552
aI164553
aI2430414
aI688869
aI2168273
aI2786080
aI1475423
aI1600316
aI1475461
aI426894
aI951219
aI1213401
aI164835
aI426996
aI3048442
aI689161
aI289625
aI2524202
aI164966
aI2786431
aI164998
aI164999
aI427146
aI595479
aI2524304
aI1213588
aI165031
aI1737909
aI427193
aI2000060
aI165055
aI427205
aI165065
aI427225
aI427276
aI333361
aI427317
aI951607
aI427328
aI427332
aI165201
aI2262354
aI508134
aI165228
aI951667
aI2524549
aI639214
aI689579
aI2000303
aI165297
aI427485
aI1476099
aI427545
aI508169
aI427582
aI427622
aI27580
aI951928
aI1214090
aI1738400
aI2000557
aI1738415
aI2786995
aI427733
aI165603
aI952046
aI427769
aI158683
aI202375
aI1738558
aI551904
aI165716
aI1476449
aI165737
aI1906322
aI427899
aI1738625
aI2525067
aI1476504
aI952248
aI1476544
aI690113
aI165839
aI427992
aI2000867
aI952296
aI952310
aI1906345
aI1032532
aI690178
aI1214472
aI690204
aI1076233
aI690253
aI165988
aI166013
aI166029
aI690329
aI1476763
aI3049628
aI428190
aI1476796
aI1214663
aI428241
aI428287
aI952601
aI1476926
aI333536
aI952648
aI1214800
aI428404
aI1214846
aI114584
aI1477051
aI166339
aI1477076
aI1214934
aI2263531
aI428531
aI690708
aI2263584
aI428579
aI1739312
aI1076318
aI377270
aI166476
aI1477200
aI166488
aI166491
aI1215076
aI2001511
aI1163708
aI127751
aI428659
aI690815
aI166530
aI1600620
aI1215133
aI428705
aI690854
aI988957
aI2263776
aI690920
aI953068
aI166658
aI166661
aI953097
aI1477388
aI428813
aI690958
aI428815
aI1163736
aI166686
aI1477407
aI2788131
aI1477415
aI2001735
aI1477466
aI421009
aI428916
aI166792
aI428949
aI1477526
aI1215393
aI428972
aI166838
aI166850
aI857933
aI691156
aI953310
aI166893
aI2518184
aI166902
aI166921
aI166938
aI770567
aI552116
aI166973
aI167017
aI1120103
aI683201
aI2788532
aI1477816
aI691416
aI691418
aI691429
aI2526499
aI691505
aI770615
aI1215828
aI691553
aI1478004
aI429430
aI953759
aI1740236
aI429521
aI691688
aI691711
aI2299820
aI429643
aI503133
aI1478238
aI508518
aI258722
aI429733
aI167611
aI167655
aI1216272
aI167735
aI1478467
aI692065
aI167778
aI27963
aI2002804
aI429949
aI167814
aI692104
aI1216394
aI429982
aI1216486
aI1216500
aI954358
aI1740808
aI954389
aI430112
aI167996
aI1731941
aI1216612
aI168056
aI692349
aI954514
aI2126755
aI2527433
aI692435
aI1741027
aI2265318
aI692456
aI1795053
aI168177
aI2527496
aI246487
aI168225
aI692528
aI1478987
aI692560
aI171456
aI1216896
aI1479055
aI250019
aI168382
aI1644621
aI1216976
aI168405
aI168417
aI168425
aI954878
aI1217042
aI168493
aI1741370
aI954940
aI430730
aI2003600
aI430742
aI1217187
aI430775
aI1479360
aI168659
aI1741542
aI692975
aI168703
aI2528006
aI168735
aI168762
aI168775
aI115511
aI430956
aI1741683
aI1217408
aI431012
aI1479606
aI28150
aI955369
aI168946
aI2266103
aI168960
aI246616
aI1741861
aI1741868
aI169034
aI693349
aI1479798
aI465089
aI2004123
aI431287
aI169150
aI3052751
aI290340
aI1479913
aI169195
aI1217774
aI1217785
aI431359
aI431369
aI955697
aI2266428
aI169277
aI2004315
aI2266525
aI431537
aI1742280
aI169442
aI1742344
aI1218080
aI693799
aI2790983
aI2081719
aI2266713
aI693854
aI431715
aI1480324
aI431780
aI693934
aI2004683
aI431850
aI169714
aI2529026
aI431880
aI169754
aI694050
aI956197
aI956208
aI1742649
aI2618921
aI694086
aI115681
aI1218408
aI956265
aI1218430
aI169882
aI169922
aI1113204
aI956397
aI169992
aI1218598
aI1742889
aI694325
aI432193
aI2865777
aI432216
aI2791540
aI432248
aI1557526
aI694408
aI170132
aI956582
aI694469
aI170196
aI389745
aI170224
aI956658
aI1218816
aI203137
aI956680
aI956691
aI552669
aI1218903
aI1743214
aI694652
aI2529661
aI432543
aI170407
aI432575
aI694736
aI1743328
aI694766
aI432666
aI694824
aI432681
aI1219121
aI694844
aI290570
aI694863
aI1219182
aI2005622
aI1219200
aI334274
aI1557617
aI957167
aI170746
aI957186
aI1481489
aI3054380
aI170815
aI382906
aI170851
aI170876
aI170892
aI1219487
aI2956107
aI433077
aI3054604
aI1515819
aI695343
aI957500
aI1645066
aI1419801
aI1645068
aI171087
aI1743957
aI433252
aI2081982
aI171134
aI171168
aI695461
aI1219754
aI1219762
aI433333
aI171209
aI640205
aI2344142
aI957662
aI433392
aI2792719
aI957731
aI171318
aI1164513
aI3054961
aI2006437
aI171461
aI1950969
aI171490
aI695833
aI171558
aI1280153
aI695874
aI433790
aI2530970
aI433831
aI119195
aI1744579
aI1482443
aI1220302
aI433879
aI596602
aI696034
aI433905
aI696056
aI1295666
aI696130
aI171847
aI1426743
aI696169
aI2824854
aI171926
aI171933
aI2793390
aI334494
aI171964
aI171968
aI434171
aI696326
aI958490
aI1482780
aI696354
aI172074
aI696395
aI434268
aI434293
aI434319
aI696465
aI1482899
aI172188
aI172196
aI1220780
aI1252040
aI172211
aI1220835
aI334545
aI172279
aI172322
aI172350
aI172363
aI172378
aI1220955
aI1077309
aI1745309
aI958898
aI640415
aI2007490
aI119224
aI172588
aI2269749
aI2007610
aI172637
aI434799
aI959140
aI1745573
aI434893
aI771533
aI697079
aI1483518
aI434949
aI697154
aI959306
aI435093
aI173077
aI435223
aI697370
aI697388
aI2008111
aI173109
aI2794570
aI173149
aI435306
aI1934884
aI435413
aI1221847
aI697560
aI959722
aI1746163
aI959745
aI435460
aI435462
aI1221906
aI721553
aI173347
aI173388
aI1746258
aI435559
aI2532739
aI1603191
aI2008506
aI2388219
aI173542
aI697856
aI697890
aI1222185
aI2795068
aI173655
aI1558122
aI960195
aI173768
aI960201
aI173773
aI596952
aI1222420
aI372409
aI698168
aI1746747
aI436028
aI698179
aI72673
aI2533215
aI173925
aI173934
aI960368
aI2008945
aI1746803
aI684353
aI1746830
aI1746840
aI173983
aI1558171
aI1746876
aI174027
aI29005
aI2009041
aI960510
aI960567
aI960588
aI1484900
aI1383442
aI698511
aI436376
aI728091
aI1484969
aI174261
aI436450
aI436451
aI1747187
aI174375
aI960812
aI1747251
aI960820
aI436548
aI436560
aI1223007
aI174449
aI1223045
aI436641
aI1485219
aI1485232
aI174527
aI961018
aI436732
aI961021
aI1747471
aI174621
aI2533926
aI436776
aI174676
aI961113
aI174693
aI1223293
aI29125
aI699042
aI771873
aI1558311
aI436976
aI699129
aI437019
aI437025
aI961328
aI961333
aI437049
aI2796349
aI1223511
aI2534236
aI699233
aI437131
aI699304
aI961455
aI175057
aI852546
aI3058647
aI992211
aI175071
aI437217
aI1820286
aI961510
aI175082
aI961526
aI72873
aI573218
aI175100
aI437246
aI175113
aI1223693
aI1223744
aI437328
aI1485952
aI961695
aI437414
aI2082673
aI175296
aI1223875
aI175308
aI247672
aI422437
aI699632
aI961847
aI175416
aI175421
aI699714
aI1224003
aI699743
aI1339964
aI961954
aI437679
aI250259
aI2797034
aI437768
aI1224211
aI962088
aI437818
aI175679
aI378806
aI437869
aI2272910
aI437907
aI1486486
aI962223
aI175849
aI175858
aI438024
aI700174
aI1748769
aI700209
aI175962
aI175975
aI700284
aI700293
aI438154
aI2273202
aI176075
aI1224692
aI176140
aI2535457
aI176180
aI176192
aI2535504
aI2535516
aI422597
aI176291
aI247843
aI438497
aI1514875
aI176361
aI438563
aI438581
aI1296437
aI335243
aI176469
aI438615
aI438624
aI176484
aI176492
aI438742
aI176603
aI1225190
aI700926
aI597419
aI438807
aI1225246
aI438819
aI204210
aI438838
aI176741
aI1225328
aI701062
aI1777090
aI701092
aI176818
aI438969
aI438971
aI2273992
aI438992
aI439008
aI176873
aI176877
aI1165441
aI176923
aI1225541
aI1225556
aI1487730
aI1864510
aI439171
aI1749895
aI1487756
aI439198
aI2274212
aI701363
aI701368
aI963514
aI177132
aI439279
aI701439
aI439317
aI177222
aI1078115
aI439392
aI466450
aI224129
aI439427
aI2798726
aI1750153
aI963791
aI701653
aI1750246
aI177414
aI1225993
aI1750282
aI1226013
aI1750305
aI1226028
aI2012487
aI1488207
aI1750362
aI701813
aI177526
aI2012546
aI439716
aI701875
aI2274773
aI2012636
aI177633
aI163643
aI1488417
aI701988
aI177701
aI2274855
aI1035945
aI1750604
aI177766
aI177789
aI177800
aI2012811
aI964243
aI439965
aI1750719
aI145587
aI2275042
aI2275049
aI177920
aI2012947
aI177943
aI177954
aI1226540
aI1226546
aI702275
aI177988
aI440172
aI1226605
aI2537327
aI3061617
aI702353
aI178082
aI774086
aI440252
aI2799561
aI1226698
aI178150
aI2013164
aI178157
aI702469
aI964616
aI1488915
aI2013235
aI178236
aI481281
aI440412
aI2275421
aI178301
aI1226894
aI1226908
aI702638
aI440502
aI702664
aI440536
aI440546
aI440564
aI440611
aI702764
aI335583
aI178521
aI178537
aI440694
aI440704
aI178597
aI965034
aI965051
aI440764
aI1489354
aI702931
aI2275797
aI1489378
aI440805
aI2537996
aI965146
aI1227292
aI1190
aI703016
aI703019
aI2013755
aI189262
aI29805
aI703146
aI2276042
aI1751766
aI1751792
aI441073
aI1489655
aI2013981
aI178980
aI179015
aI179068
aI179104
aI441250
aI179125
aI179138
aI466764
aI117242
aI179189
aI179216
aI179233
aI179235
aI441387
aI441393
aI965689
aI292022
aI965783
aI1227940
aI441515
aI965841
aI1227991
aI1228002
aI703717
aI1228015
aI965907
aI390054
aI379439
aI965921
aI1490220
aI2083379
aI2538837
aI179542
aI821720
aI179545
aI441692
aI1490287
aI179583
aI966023
aI1926369
aI1490335
aI179630
aI1752518
aI179669
aI117331
aI441860
aI704008
aI423170
aI704015
aI179736
aI441894
aI441899
aI1752620
aI441902
aI966247
aI873836
aI966285
aI2014880
aI179910
aI966357
aI2801382
aI73681
aI2539260
aI179972
aI121747
aI704286
aI966437
aI1490728
aI2539335
aI704328
aI180100
aI2277256
aI442250
aI180136
aI1753018
aI180239
aI180243
aI2539605
aI204819
aI442492
aI180368
aI704703
aI725182
aI2539720
aI966865
aI442580
aI204836
aI1229023
aI1515561
aI442624
aI991275
aI1491212
aI704808
aI704817
aI442695
aI2802040
aI704894
aI180608
aI1229195
aI704916
aI704944
aI967100
aI1229260
aI2802163
aI967156
aI180784
aI2015806
aI2277966
aI180824
aI1559329
aI2520534
aI1533609
aI181002
aI967445
aI1229594
aI967451
aI678164
aI705339
aI1690429
aI181108
aI181136
aI443310
aI1491895
aI705471
aI2802626
aI443341
aI181228
aI1754098
aI398844
aI181310
aI2540607
aI2214752
aI181372
aI443523
aI705673
aI30231
aI1229971
aI1297269
aI705752
aI181481
aI181483
aI705773
aI181497
aI443651
aI967943
aI443678
aI443685
aI443688
aI181569
aI1230164
aI2016624
aI181637
aI117658
aI705952
aI1230248
aI1230261
aI181707
aI2016735
aI181765
aI181776
aI443954
aI968287
aI1492596
aI1754754
aI444036
aI181894
aI706246
aI1754827
aI1754832
aI444118
aI2541318
aI706363
aI1122614
aI968521
aI2279260
aI292500
aI1230724
aI706466
aI444335
aI1230768
aI444382
aI1230836
aI706561
aI1755150
aI182289
aI182328
aI816824
aI968801
aI1755242
aI1755252
aI1755274
aI968866
aI706724
aI248862
aI182467
aI706762
aI1231072
aI1755374
aI968969
aI444692
aI2803994
aI968988
aI968996
aI182590
aI773173
aI182603
aI182629
aI182668
aI182669
aI182676
aI904260
aI182689
aI182690
aI182693
aI117831
aI969134
aI1755598
aI598435
aI182768
aI182786
aI2302383
aI2083599
aI182821
aI707117
aI444991
aI1231428
aI1231469
aI182894
aI2804358
aI2542215
aI445073
aI75924
aI707247
aI445105
aI182971
aI445123
aI445126
aI445131
aI183028
aI445210
aI707381
aI183110
aI707414
aI707415
aI183133
aI2018142
aI1493858
aI445303
aI969597
aI183172
aI445322
aI969612
aI183181
aI183189
aI183200
aI1231781
aI117919
aI183254
aI1559720
aI183331
aI445517
aI183380
aI445543
aI1756264
aI1231989
aI183431
aI74263
aI183471
aI2280630
aI773322
aI969920
aI707795
aI30587
aI183528
aI486209
aI183579
aI1232175
aI707894
aI183624
aI1756503
aI1494393
aI879020
aI123429
aI2543022
aI1494454
aI970175
aI445908
aI970200
aI708122
aI183835
aI467546
aI1079221
aI970316
aI2171490
aI183893
aI1232491
aI970349
aI183918
aI183929
aI2281093
aI336508
aI74366
aI708345
aI446203
aI446210
aI1756941
aI2805519
aI1232668
aI970560
aI2281294
aI708434
aI708436
aI2019157
aI2805597
aI642373
aI184234
aI1494993
aI1232850
aI2281465
aI446458
aI3067900
aI446515
aI446536
aI708689
aI184404
aI1495125
aI446551
aI708700
aI970847
aI446591
aI184499
aI2019515
aI970952
aI1166711
aI446680
aI446681
aI3068157
aI446733
aI184595
aI184600
aI446747
aI2281770
aI446792
aI971083
aI184686
aI184730
aI1233320
aI1757620
aI184769
aI446921
aI468793
aI2390103
aI184845
aI555097
aI2564868
aI447023
aI971312
aI184882
aI184883
aI1233508
aI709223
aI971392
aI447114
aI1029506
aI1495728
aI447156
aI2544318
aI971459
aI185034
aI709329
aI1233630
aI709376
aI1495822
aI2084315
aI1123123
aI1495902
aI612262
aI1233868
aI2282471
aI1233907
aI709635
aI2020356
aI2544671
aI2282538
aI2282555
aI709702
aI1496176
aI424129
aI2282634
aI185511
aI185547
aI1496272
aI2806996
aI1758442
aI185596
aI948445
aI185655
aI185657
aI185672
aI1234256
aI336783
aI972124
aI1234279
aI2545003
aI1496453
aI185749
aI972197
aI2565026
aI972241
aI1496536
aI185824
aI447979
aI1758701
aI185881
aI185882
aI185906
aI1234502
aI185943
aI972393
aI2545286
aI972427
aI448144
aI2021019
aI1298034
aI1166965
aI1234625
aI293153
aI186059
aI710360
aI972515
aI2283238
aI1496807
aI448232
aI186093
aI2021114
aI186116
aI1759009
aI186148
aI2074981
aI448296
aI710446
aI1909727
aI1953420
aI710495
aI74727
aI1234799
aI186241
aI972736
aI467958
aI341671
aI448501
aI2545680
aI2021411
aI448568
aI1497173
aI972891
aI448614
aI448625
aI1235095
aI972958
aI186535
aI186558
aI2808025
aI710877
aI186623
aI186636
aI186652
aI186710
aI2773323
aI448865
aI973155
aI711017
aI973167
aI1497479
aI2546068
aI711085
aI1235394
aI186822
aI186836
aI711129
aI973292
aI973308
aI1235458
aI76056
aI973348
aI2021935
aI973380
aI31158
aI186958
aI249618
aI1497729
aI187018
aI711308
aI74861
aI973470
aI449187
aI187061
aI187100
aI1235698
aI187126
aI711416
aI2284284
aI973578
aI2022183
aI3070785
aI973651
aI3070830
aI449429
aI187291
aI449444
aI449455
aI1123488
aI187350
aI2022366
aI711654
aI711674
aI449554
aI1236019
aI449605
aI1236048
aI2284641
aI449652
aI973964
aI187538
aI449691
aI2022562
aI187570
aI449744
aI187606
aI711902
aI1498339
aI1691517
aI711926
aI1236215
aI2740099
aI974116
aI187697
aI449853
aI449856
aI187750
aI449897
aI486349
aI449902
aI449906
aI1760670
aI1760684
aI1236417
aI118697
aI2285087
aI974369
aI187954
aI187955
aI450106
aI450107
aI450117
aI712271
aI712294
aI974442
aI1210983
aI450159
aI188031
aI1236627
aI450222
aI188096
aI450274
aI1498906
aI450339
aI188246
aI450399
aI1498976
aI1236837
aI188268
aI712558
aI1236879
aI2547612
aI2023325
aI188331
aI380926
aI188453
aI1237040
aI974902
aI712765
aI974959
aI712818
aI643091
aI1237117
aI1499273
aI1237135
aI118811
aI643500
aI1385845
aI188654
aI975090
aI450808
aI512042
aI188691
aI1237278
aI2810147
aI712999
aI188729
aI713026
aI188740
aI188788
aI450941
aI713106
aI188822
aI975271
aI713141
aI75170
aI1761775
aI188954
aI713246
aI188997
aI713326
aI451192
aI1499781
aI451221
aI975520
aI189093
aI713396
aI1237698
aI451272
aI1010138
aI189154
aI189205
aI1237812
aI451391
aI975720
aI451480
aI451485
aI1762211
aI1762224
aI189361
aI1500082
aI1910265
aI713712
aI451571
aI189431
aI1238019
aI1238040
aI2286638
aI451634
aI1500241
aI451672
aI1500313
aI118993
aI189673
aI1238258
aI189722
aI976155
aI189745
aI1238344
aI1500501
aI451969
aI714167
aI452047
aI1167608
aI1762775
aI1762793
aI189937
aI714240
aI714282
aI452139
aI976438
aI976498
aI1762944
aI452233
aI190106
aI190108
aI468592
aI976596
aI555983
aI190188
aI452348
aI190259
aI1010175
aI1238847
aI1238887
aI2287470
aI2549636
aI976775
aI1501096
aI1473523
aI1238965
aI1298762
aI190420
aI190438
aI1501164
aI976897
aI976906
aI1763363
aI190596
aI1239189
aI2287788
aI452792
aI2025666
aI190670
aI714969
aI452830
aI190695
aI715006
aI1763586
aI1501457
aI190750
aI452902
aI556085
aI452944
aI452949
aI1997884
aI977292
aI453005
aI715171
aI190902
aI1239485
aI190938
aI977408
aI3074592
aI2026065
aI2550354
aI1763929
aI1501794
aI453250
aI453261
aI191164
aI453331
aI191226
aI453392
aI1239834
aI191259
aI1298907
aI2812723
aI191306
aI715597
aI191345
aI191347
aI1502081
aI381422
aI2812842
aI687262
aI191426
aI453590
aI453596
aI191459
aI453614
aI453619
aI977939
aI1240099
aI191526
aI978005
aI2550897
aI715919
aI453783
aI2550964
aI294089
aI978157
aI716039
aI1691091
aI191797
aI1998047
aI453953
aI716118
aI191837
aI453985
aI978280
aI978306
aI1502606
aI454088
aI731043
aI716248
aI1240557
aI716292
aI978443
aI731057
aI2289198
aI75699
aI192077
aI2551378
aI978515
aI978525
aI454252
aI1764983
aI978558
aI2391317
aI1386434
aI1502868
aI454332
aI192220
aI1240798
aI1240803
aI978664
aI192264
aI949553
aI978756
aI978769
aI454531
aI454533
aI1517551
aI2027476
aI978917
aI192545
aI2027567
aI716851
aI250549
aI979010
aI979013
aI425313
aI454744
aI1333228
aI454780
aI454827
aI2347721
aI192702
aI192705
aI1503441
aI192729
aI192741
aI1503476
aI192810
aI192812
aI454967
aI250597
aI905959
aI1503610
aI1823469
aI717214
aI717215
aI455118
aI717267
aI1241558
aI455137
aI119549
aI455171
aI32173
aI979474
aI1241619
aI979483
aI717341
aI455206
aI1503784
aI1037066
aI717383
aI1503849
aI979580
aI2028184
aI455359
aI717521
aI193267
aI455417
aI1766140
aI2290526
aI193376
aI338068
aI2552698
aI455556
aI455581
aI1242028
aI193476
aI979921
aI193494
aI979928
aI1242114
aI2290703
aI1648817
aI193619
aI193634
aI215945
aI2815103
aI455814
aI717965
aI1242317
aI565110
aI455902
aI1242389
aI495280
aI1242403
aI193850
aI1504589
aI718163
aI193886
aI425533
aI980344
aI556609
aI862444
aI193939
aI980377
aI512922
aI1766814
aI718240
aI193982
aI456135
aI1211980
aI1211981
aI980434
aI194020
aI456167
aI194044
aI194065
aI2553366
aI980520
aI456237
aI1242713
aI1767005
aI1504894
aI338208
aI1504966
aI1255713
aI194252
aI469286
aI779919
aI76302
aI1505057
aI194345
aI993588
aI980799
aI512993
aI1505112
aI1242985
aI194416
aI980869
aI194453
aI194458
aI1243041
aI718763
aI980926
aI1767378
aI456669
aI194528
aI194574
aI1243156
aI1243160
aI1505309
aI981047
aI1517919
aI194623
aI718922
aI456813
aI456814
aI194676
aI2029693
aI194717
aI981208
aI194784
aI194794
aI981238
aI381995
aI981282
aI993676
aI538962
aI194940
aI1505683
aI457124
aI981427
aI457148
aI1505728
aI457162
aI719312
aI111243
aI1243641
aI1243679
aI195124
aI457278
aI1823841
aI2292329
aI1768043
aI376646
aI2816638
aI687901
aI1243866
aI2292448
aI160168
aI195347
aI2030372
aI1244013
aI1768303
aI2741395
aI1768312
aI195456
aI981898
aI119959
aI195486
aI981933
aI1333325
aI981981
aI2030565
aI982026
aI1768469
aI982091
aI719967
aI195727
aI1212272
aI982227
aI195802
aI1768690
aI195835
aI163715
aI458044
aI1768772
aI982341
aI458060
aI458093
aI1768817
aI381874
aI458137
aI196038
aI1768910
aI458193
aI2031077
aI1506793
aI338518
aI720391
aI1769011
aI720450
aI140970
aI982619
aI458333
aI2293350
aI251153
aI1244783
aI720508
aI1506980
aI2293446
aI196307
aI251173
aI259681
aI720677
aI1037617
aI458548
aI910868
aI196480
aI196489
aI982924
aI196499
aI196507
aI2293679
aI458742
aI1769465
aI458751
aI2555911
aI2031628
aI1420642
aI458770
aI2031680
aI1245254
aI2293836
aI196688
aI382307
aI720988
aI458850
aI1769578
aI1507442
aI2031790
aI2818230
aI196838
aI196844
aI1245450
aI3080491
aI196917
aI1245497
aI983357
aI2031947
aI721236
aI1649381
aI721269
aI197007
aI1245596
aI459176
aI983476
aI426062
aI721376
aI459233
aI2610599
aI197101
aI1245729
aI120243
aI1507905
aI983624
aI459338
aI983648
aI197265
aI1507998
aI2818719
aI721578
aI983733
aI197302
aI1245913
aI76583
aI197368
aI459516
aI459517
aI197388
aI76590
aI1770274
aI721704
aI197420
aI1246038
aI1246040
aI1562088
aI459688
aI983992
aI1246140
aI1770432
aI459736
aI1770457
aI197606
aI2294775
aI1431042
aI197663
aI2032712
aI459860
aI459897
aI459923
aI1508519
aI984239
aI338803
aI1246391
aI459987
aI111337
aI2557196
aI1508629
aI722238
aI1431096
aI197986
aI722331
aI198062
aI198187
aI460368
aI2295393
aI2033285
aI469954
aI2819741
aI2033314
aI460472
aI984762
aI722630
aI1509082
aI722657
aI732113
aI984823
aI984830
aI984832
aI984861
aI2523444
aI722762
aI722783
aI819519
aI198536
aI1509264
aI950600
aI460750
aI1256441
aI460785
aI198643
aI985084
aI460802
aI2033703
aI198707
aI2820152
aI723007
aI2436109
aI1247330
aI338961
aI2558060
aI2033800
aI460942
aI985241
aI950658
aI1771795
aI1150059
aI198960
aI985414
aI1509705
aI950669
aI339004
aI199042
aI199047
aI461212
aI985544
aI2034126
aI1247714
aI199163
aI199176
aI1772045
aI199210
aI1603968
aI382736
aI1510023
aI723618
aI1510085
aI985802
aI723685
aI907047
aI461561
aI461564
aI1772334
aI461629
aI461637
aI985949
aI1248114
aI3083149
aI723871
aI199584
aI1606128
aI1248175
aI199646
aI199647
aI723947
aI461813
aI1115237
aI1248256
aI199682
aI199684
aI2034696
aI199700
aI382809
aI986141
aI461872
aI461874
aI724027
aI199748
aI724063
aI2034787
aI1446944
aI199797
aI461968
aI208067
aI986276
aI462006
aI724180
aI2034924
aI601299
aI462121
aI1510710
aI382011
aI986514
aI200083
aI462255
aI2427990
aI1510837
aI111412
aI462266
aI2821583
aI986618
aI2297366
aI200253
aI2559560
aI776121
aI1248861
aI200291
aI724591
aI1773177
aI200323
aI200338
aI3004355
aI200349
aI724689
aI986862
aI200445
aI1249041
aI724764
aI462627
aI2035506
aI462697
aI462732
aI1169389
aI2559888
aI724914
aI1249219
aI76514
aI987098
aI486780
aI987167
aI2297917
aI987244
aI462963
aI462970
aI200828
aI1249477
aI2298058
aI200910
aI463065
aI1249564
aI463139
aI1249581
aI1773904
aI987492
aI1249641
aI201078
aI201116
aI463304
aI1256868
aI725472
aI295677
aI201242
aI201251
aI201272
aI987732
aI725589
aI1249894
aI1774184
aI201359
aI1249958
aI201387
aI463535
aI2560696
aI2036429
aI1774323
aI1250044
aI463621
aI201482
aI1250087
aI252043
aI463687
aI463693
aI725851
aI1512291
aI725862
aI1250158
aI1512306
aI463734
aI383124
aI463785
aI725937
aI988089
aI463833
aI1774587
aI201724
aI1250301
aI3085310
aI201747
aI463910
aI1774657
aI988302
aI201877
aI2036917
aI726223
aI726239
aI201952
aI201986
aI1125931
aI2299167
aI464188
aI202085
aI202105
aI3085690
aI464257
aI33708
aI988683
aI1250873
aI726621
aI1250940
aI202392
aI988828
aI464552
aI726711
aI726766
aI464627
aI2299638
aI988942
aI726802
aI202522
aI202553
aI202555
aI464709
aI2043535
aI464744
aI1513327
aI202609
aI259889
aI464772
aI726938
aI726969
aI989121
aI989133
aI2218321
aI989169
aI383316
aI2037787
aI1513517
aI1251376
aI989256
aI1513568
aI2300015
aI202875
aI1775749
aI268627
aI465056
aI202913
aI727208
aI202923
aI1251505
aI727226
aI202940
aI2824408
aI989452
aI465183
aI727371
aI989516
aI465233
aI203114
aI203130
aI1251715
aI339698
aI2038227
aI465378
aI383402
aI1251861
aI203371
aI465523
aI465546
aI465590
aI1252065
aI1514216
aI1776367
aI2824961
aI2038544
aI748746
aI2262149
aI427143
aI1252169
aI203600
aI339768
aI1776527
aI1514386
aI1776540
aI2038699
aI203713
aI203721
aI990177
aI465895
aI2038768
aI1514572
aI1776741
aI728184
aI203907
aI1252554
aI203982
aI728291
aI204021
aI990462
aI1514776
aI1514782
aI951517
aI466227
aI204100
aI204159
aI990596
aI466314
aI1252759
aI204195
aI2039219
aI204218
aI204263
aI728563
aI728610
aI1252916
aI204346
aI466514
aI923356
aI990877
aI2825895
aI204463
aI1777344
aI1515208
aI728795
aI728797
aI728841
aI728863
aI1563275
aI466761
aI1253218
aI1253219
aI2039657
aI466826
aI907927
aI204693
aI204701
aI2039713
aI204723
aI1253312
aI2039750
aI2564046
aI204769
aI204774
aI204804
aI1515540
aI729120
aI1777699
aI2826276
aI991296
aI1515589
aI991306
aI467019
aI2564189
aI2039909
aI1257504
aI2564301
aI991445
aI467164
aI205024
aI467198
aI1253652
aI729375
aI729379
aI467240
aI467371
aI467373
aI1253807
aI729539
aI205270
aI205292
aI991733
aI2476907
aI991763
aI205343
aI467510
aI2040375
aI205376
aI1778834
aI729673
aI991834
aI205405
aI1778285
aI205426
aI2800134
aI205494
aI1254131
aI1516297
aI992025
aI467742
aI1778465
aI467760
aI467853
aI730001
aI467859
aI992151
aI205721
aI992165
aI1778606
aI340128
aI205784
aI730098
aI1301331
aI467968
aI2218838
aI730137
aI2827296
aI205859
aI1257652
aI468039
aI1516616
aI1257656
aI730208
aI205930
aI205934
aI252780
aI468107
aI992401
aI205997
aI992435
aI992437
aI2913631
aI1254684
aI2827555
aI1254714
aI1901066
aI468302
aI1779066
aI2041237
aI206247
aI2481052
aI730566
aI1517006
aI468457
aI992765
aI1254917
aI1126660
aI468508
aI206403
aI206410
aI777147
aI2565773
aI206479
aI468632
aI730845
aI2044199
aI468718
aI558721
aI468746
aI1779477
aI206614
aI468763
aI1255223
aI206687
aI206720
aI206733
aI468923
aI3090380
aI206815
aI468965
aI468973
aI1517578
aI206861
aI1779735
aI1839987
aI1255453
aI2828318
aI206881
aI206914
aI2041950
aI2041954
aI1517709
aI1517735
aI207022
aI1517743
aI731314
aI731323
aI2175349
aI469201
aI993508
aI207082
aI165589
aI2304275
aI469300
aI731453
aI731479
aI2042216
aI1517929
aI2042240
aI207313
aI731614
aI469478
aI731636
aI207349
aI207364
aI1518087
aI731671
aI207421
aI602554
aI993915
aI469643
aI207547
aI384117
aI2566863
aI1569108
aI994054
aI1694854
aI731947
aI207661
aI207681
aI1518429
aI207717
aI340457
aI617950
aI207747
aI207752
aI207756
aI994197
aI2829210
aI384155
aI1518534
aI1256403
aI2042841
aI994342
aI1256490
aI471559
aI1256496
aI1780786
aI207968
aI2567290
aI732284
aI470146
aI470159
aI994466
aI1518765
aI732470
aI470331
aI1518921
aI732497
aI470383
aI208271
aI1256849
aI994737
aI277537
aI1256925
aI2567646
aI732673
aI470535
aI559026
aI208446
aI208451
aI732771
aI208486
aI1257094
aI3092116
aI995052
aI208623
aI470772
aI208683
aI1257265
aI470838
aI777525
aI3092298
aI1519436
aI470877
aI733074
aI733087
aI208809
aI1781710
aI471007
aI471026
aI995320
aI209585
aI995395
aI2306134
aI733287
aI209003
aI253288
aI196921
aI995475
aI733347
aI209067
aI209103
aI2306258
aI1519836
aI1257694
aI471272
aI209136
aI559144
aI209139
aI995579
aI1257728
aI471321
aI471341
aI471397
aI209254
aI2044316
aI995800
aI1257954
aI209407
aI209427
aI1258004
aI995876
aI340745
aI733755
aI995926
aI995958
aI1520278
aI996010
aI209591
aI1520320
aI733889
aI996035
aI209605
aI471782
aI471795
aI471800
aI471803
aI209668
aI2568974
aI209729
aI209744
aI734069
aI1782659
aI1520518
aI391064
aI1258398
aI209824
aI996302
aI472015
aI472034
aI734181
aI472043
aI472084
aI1258518
aI1258525
aI1520671
aI472134
aI1520714
aI734289
aI1214649
aI734310
aI472179
aI210039
aI734335
aI472193
aI734365
aI1782954
aI996551
aI3093731
aI2045162
aI210158
aI734462
aI2045185
aI1826354
aI472375
aI472388
aI210245
aI1520981
aI996703
aI1258878
aI210304
aI78743
aI472495
aI1258949
aI996809
aI1848833
aI210392
aI210417
aI1039955
aI1783295
aI210462
aI1521186
aI2045512
aI734860
aI210578
aI472728
aI210588
aI2307753
aI2045611
aI210613
aI210693
aI1083692
aI1783593
aI210774
aI1259391
aI210832
aI735152
aI210865
aI473016
aI210886
aI210908
aI1259510
aI735226
aI340992
aI735243
aI473132
aI2046036
aI211041
aI1521771
aI211067
aI2046090
aI735374
aI211097
aI473253
aI211116
aI211127
aI997562
aI2046143
aI473290
aI211187
aI1784052
aI3094783
aI211205
aI997640
aI603187
aI735556
aI473433
aI2046306
aI1522049
aI211378
aI166303
aI1522128
aI211422
aI1522169
aI473625
aI473648
aI997941
aI473655
aI735832
aI1784412
aI211563
aI1608128
aI1630647
aI735912
aI211627
aI735926
aI998073
aI473798
aI998096
aI2481955
aI473819
aI1171241
aI993431
aI210049
aI736011
aI998158
aI1522462
aI646960
aI1260322
aI736054
aI473914
aI210058
aI211776
aI1260371
aI736087
aI1260383
aI736162
aI736172
aI998318
aI103075
aI909135
aI897419
aI993439
aI1784822
aI1260600
aI1522816
aI212107
aI1141839
aI474283
aI2047151
aI2047172
aI35364
aI1438628
aI736482
aI2833644
aI1522942
aI998696
aI2001463
aI212307
aI212313
aI1523042
aI212384
aI474535
aI736714
aI1202952
aI1261007
aI212443
aI428632
aI736809
aI1523245
aI2571840
aI212555
aI999017
aI736893
aI999042
aI474780
aI212676
aI736967
aI212700
aI999162
aI737033
aI1215106
aI1302488
aI384985
aI166538
aI865601
aI212878
aI1785755
aI1523637
aI212940
aI2047962
aI475125
aI737318
aI475178
aI2048063
aI2572353
aI999516
aI213113
aI999553
aI2310289
aI1786002
aI213154
aI3096782
aI690897
aI2310411
aI1261865
aI2572606
aI475456
aI213323
aI79247
aI821989
aI737644
aI1524085
aI1261942
aI1477353
aI999820
aI2048417
aI1786283
aI865693
aI2310594
aI213448
aI1127843
aI213464
aI213469
aI213474
aI1262066
aI999924
aI737810
aI213550
aI475726
aI1000045
aI475763
aI385132
aI475820
aI2310830
aI2132768
aI1000175
aI213755
aI213758
aI213765
aI2835211
aI166712
aI967315
aI475993
aI1262441
aI1564818
aI1000309
aI213901
aI476074
aI476111
aI1262551
aI1524696
aI123048
aI214010
aI2835455
aI897019
aI1262619
aI984780
aI1000485
aI2835541
aI476260
aI214146
aI1000589
aI1787037
aI1262753
aI2351302
aI1262824
aI1262849
aI1787152
aI1262885
aI1000753
aI2573622
aI385257
aI476543
aI618172
aI1000849
aI738711
aI214446
aI738746
aI1000959
aI1787400
aI476686
aI476702
aI476712
aI476716
aI214577
aI79456
aI516365
aI1979910
aI476786
aI1783413
aI214773
aI2574080
aI476945
aI476951
aI1263398
aI214889
aI214890
aI214892
aI477037
aI1001328
aI1263479
aI214919
aI477102
aI1263543
aI1302858
aI477127
aI2050002
aI1787888
aI739315
aI477176
aI215042
aI1263652
aI215086
aI477245
aI2836550
aI123234
aI1525840
aI1001563
aI1263709
aI215148
aI560148
aI477349
aI1263783
aI215234
aI603854
aI516474
aI477420
aI1001717
aI2599694
aI215332
aI2312497
aI1788218
aI215380
aI215384
aI2050393
aI477535
aI1001831
aI2312574
aI215429
aI1001866
aI215436
aI2050459
aI477628
aI1171873
aI1788390
aI215552
aI1001985
aI215576
aI1526306
aI215600
aI739897
aI477771
aI477878
aI740027
aI215752
aI583301
aI1002222
aI1264369
aI477981
aI1788704
aI778719
aI1002323
aI1002329
aI2050907
aI1264476
aI1171943
aI478060
aI478076
aI740233
aI215966
aI215969
aI2837412
aI215974
aI1264558
aI478144
aI647670
aI478176
aI1264609
aI1002469
aI3099644
aI216063
aI216074
aI1351469
aI129404
aI1002644
aI1264804
aI1526963
aI338904
aI478399
aI1264846
aI740575
aI740600
aI216313
aI478460
aI740639
aI2837813
aI216374
aI478603
aI1527189
aI216488
aI1789356
aI1002936
aI216513
aI1265107
aI740833
aI740860
aI1003016
aI749181
aI1265207
aI1265216
aI2051650
aI1789518
aI1003087
aI216728
aI1265315
aI478884
aI1527489
aI1041014
aI1789650
aI15410
aI2314073
aI216941
aI216942
aI2051952
aI1527705
aI479134
aI479137
aI1783793
aI1265604
aI217076
aI217089
aI1718121
aI1494102
aI59604
aI217131
aI1265753
aI941240
aI217219
aI375192
aI1265817
aI2052275
aI741558
aI217288
aI1265891
aI217324
aI741616
aI1565396
aI479491
aI741636
aI1265929
aI217357
aI217406
aI2576707
aI2314588
aI2314594
aI2838919
aI1003917
aI479659
aI735307
aI1003994
aI385786
aI2314737
aI217588
aI1266179
aI1004046
aI583363
aI298415
aI217646
aI741936
aI1266237
aI1266242
aI560567
aI741981
aI242933
aI479863
aI479869
aI123671
aI1004178
aI217757
aI1528486
aI742082
aI123681
aI479947
aI1084877
aI560593
aI2314991
aI1790728
aI742156
aI1004312
aI1528604
aI480033
aI742184
aI217901
aI742249
aI217965
aI742258
aI1528699
aI218010
aI1266600
aI480191
aI218098
aI779092
aI1215999
aI1790982
aI218136
aI2264587
aI742475
aI218196
aI742496
aI218224
aI1259713
aI218248
aI1791116
aI1004685
aI218263
aI1528988
aI742585
aI385913
aI480527
aI2315558
aI218454
aI779158
aI218506
aI480659
aI80111
aI218548
aI1004997
aI1529296
aI218589
aI218592
aI1267178
aI742908
aI2053641
aI742932
aI211204
aI1267263
aI2578037
aI1791606
aI1267322
aI1267329
aI743043
aI480949
aI298624
aI218882
aI218902
aI1529630
aI1267500
aI743234
aI2316112
aI743290
aI1529781
aI481206
aI2054072
aI743358
aI1267663
aI910328
aI1267688
aI219118
aI1529853
aI219136
aI1267724
aI219159
aI219166
aI219167
aI743464
aI219183
aI219217
aI2578524
aI219229
aI219238
aI481401
aI743561
aI1005772
aI570120
aI1530115
aI481544
aI219406
aI1268003
aI1268044
aI1041471
aI2316696
aI219583
aI779341
aI386128
aI1006086
aI691969
aI219684
aI219703
aI219743
aI219750
aI1268358
aI481927
aI1006242
aI845310
aI482053
aI482063
aI2579220
aI1792792
aI219929
aI482077
aI1491261
aI744255
aI2054977
aI219977
aI1792858
aI220005
aI744298
aI1530742
aI220040
aI482192
aI1530814
aI1216334
aI1006570
aI1268716
aI482286
aI1530938
aI744519
aI1268844
aI181916
aI220299
aI2317490
aI220339
aI482489
aI609641
aI787076
aI1006863
aI1303771
aI1269037
aI1006927
aI1915448
aI1006944
aI1303785
aI1041642
aI2055550
aI482717
aI220599
aI1793477
aI1531343
aI997973
aI2317832
aI386307
aI2842136
aI744987
aI1531473
aI1172750
aI220761
aI745059
aI2055808
aI220819
aI745127
aI1793718
aI1269449
aI745190
aI220935
aI1793808
aI483113
aI2842425
aI220988
aI483162
aI1007453
aI1901562
aI1959230
aI221061
aI483212
aI1007512
aI483266
aI2842568
aI1269732
aI1007634
aI745491
aI483349
aI221213
aI745505
aI1269876
aI1269900
aI483475
aI255345
aI1269946
aI483536
aI2580713
aI2580794
aI745808
aI1532256
aI483688
aI483731
aI221619
aI51025
aI1794538
aI2739571
aI221745
aI746045
aI1041853
aI1008247
aI221847
aI168047
aI221859
aI1784610
aI484072
aI484082
aI2774496
aI221955
aI484105
aI746301
aI2057033
aI1532795
aI746431
aI168097
aI222155
aI222170
aI484328
aI2581506
aI1270812
aI222249
aI124426
aI222277
aI238884
aI1270866
aI484441
aI342886
aI1008762
aI222356
aI2057380
aI386591
aI1008828
aI222403
aI484566
aI2319589
aI222438
aI484601
aI1008891
aI746754
aI222467
aI3106062
aI1533203
aI1008917
aI222504
aI1008938
aI746802
aI2057543
aI484698
aI1008999
aI299239
aI484762
aI484772
aI1009061
aI484780
aI37110
aI746961
aI1009116
aI1009119
aI1271279
aI222714
aI1533437
aI484866
aI124515
aI484971
aI1271432
aI1009302
aI2844319
aI222901
aI485048
aI222908
aI2057919
aI1177115
aI1533666
aI485115
aI1009413
aI222987
aI1795917
aI747355
aI747392
aI223130
aI1533884
aI1009603
aI1533909
aI430416
aI356594
aI223225
aI1796105
aI485406
aI223268
aI1009705
aI485418
aI1533997
aI1009717
aI747579
aI1271894
aI1796190
aI747625
aI168296
aI747674
aI299375
aI223391
aI223394
aI561521
aI2058408
aI1271985
aI1009859
aI485608
aI223478
aI653391
aI747802
aI605232
aI485676
aI1129523
aI223594
aI485743
aI1010048
aI747961
aI747965
aI485844
aI1796566
aI1534463
aI223752
aI485911
aI1796666
aI2833516
aI1534649
aI223931
aI748221
aI1272540
aI2396624
aI486119
aI223992
aI753930
aI224004
aI486233
aI224125
aI880367
aI486298
aI1916061
aI2583484
aI1010632
aI486348
aI1534925
aI486351
aI486387
aI224263
aI37382
aI2059328
aI224334
aI243154
aI224346
aI224370
aI486527
aI486547
aI486558
aI2321592
aI486595
aI486620
aI1010911
aI1010916
aI748779
aI2059508
aI1273080
aI1797371
aI748797
aI224514
aI748808
aI1535282
aI1273161
aI224671
aI1273249
aI758179
aI1011145
aI1535443
aI2883807
aI224751
aI486900
aI1535478
aI1260801
aI486920
aI255920
aI343302
aI749104
aI2584113
aI486979
aI749129
aI1535679
aI2059983
aI2059996
aI749288
aI1011434
aI225004
aI1273611
aI1011513
aI1011527
aI2846544
aI1535827
aI1011544
aI1797991
aI1011582
aI1535880
aI1535892
aI225239
aI1273830
aI1391953
aI1011697
aI225313
aI749622
aI1798215
aI1273930
aI1916258
aI487524
aI749674
aI225396
aI1536154
aI1798341
aI2060495
aI2060505
aI487662
aI487669
aI225600
aI124983
aI225647
aI1274248
aI225680
aI487829
aI487846
aI225727
aI256077
aI225749
aI225757
aI923284
aI3109417
aI750140
aI488004
aI2746472
aI121459
aI2060915
aI750216
aI1666041
aI1012381
aI750250
aI226001
aI226146
aI750510
aI226255
aI226266
aI226277
aI1799147
aI750593
aI1012747
aI1537036
aI605698
aI1741657
aI1173679
aI430944
aI605707
aI2323536
aI226431
aI488579
aI750725
aI1537158
aI226469
aI226476
aI226507
aI2440740
aI2585850
aI226578
aI1130032
aI2061604
aI226648
aI1013082
aI2323821
aI1788272
aI750979
aI1537415
aI1013153
aI522563
aI1013182
aI168868
aI2061789
aI488927
aI2323945
aI751090
aI226820
aI751151
aI751158
aI784439
aI226897
aI226975
aI1013426
aI120226
aI1799907
aI824275
aI1042731
aI489261
aI489280
aI1042743
aI227149
aI489299
aI1013598
aI227176
aI751465
aI1275757
aI2848629
aI227192
aI751484
aI227203
aI644786
aI1275832
aI489403
aI227267
aI1800136
aI751564
aI227299
aI179585
aI751619
aI227349
aI489512
aI1275959
aI489560
aI1276002
aI227436
aI693275
aI959041
aI227532
aI1276124
aI1276130
aI1276136
aI1538306
aI1046334
aI227615
aI227618
aI1276197
aI489779
aI227665
aI489813
aI300089
aI227699
aI431166
aI489885
aI1276321
aI854301
aI2324964
aI2062828
aI1538553
aI1276410
aI737023
aI2587132
aI227863
aI2587160
aI227884
aI1800789
aI1276505
aI1014378
aI1538708
aI1538715
aI125382
aI1567176
aI228024
aI1014462
aI228109
aI1276697
aI228191
aI1348753
aI490374
aI752527
aI228259
aI752571
aI490484
aI2587646
aI228353
aI490498
aI1276943
aI228370
aI1014805
aI490524
aI1014822
aI38065
aI1539115
aI2587695
aI387592
aI228407
aI490562
aI228429
aI228534
aI1539266
aI1014979
aI752843
aI752872
aI752916
aI490774
aI1801503
aI1567281
aI228656
aI228659
aI1277252
aI490829
aI999312
aI1174076
aI343955
aI1015164
aI53897
aI1392539
aI490961
aI2325987
aI753137
aI491006
aI228885
aI1174106
aI911963
aI491044
aI1539655
aI228936
aI2063969
aI2326147
aI229001
aI1015448
aI229044
aI1015483
aI1277669
aI229106
aI2588457
aI1015595
aI753462
aI1479988
aI491341
aI2064206
aI491400
aI229270
aI513919
aI33822
aI1802166
aI753604
aI1802203
aI491494
aI753642
aI1015808
aI1277974
aI229410
aI2064489
aI649922
aI491682
aI229602
aI1540328
aI491754
aI491770
aI491785
aI229652
aI1016113
aI1016130
aI491845
aI491907
aI2064808
aI491950
aI754119
aI2327005
aI1043198
aI1278480
aI1802769
aI229917
aI1016383
aI1278541
aI1540688
aI1540689
aI3113558
aI229987
aI1430492
aI229998
aI230055
aI492203
aI1278667
aI754393
aI1540859
aI1016588
aI230167
aI492325
aI492335
aI754484
aI1540917
aI230202
aI492364
aI492393
aI492405
aI1278839
aI1016716
aI1010604
aI230354
aI492513
aI230377
aI230390
aI230428
aI2851870
aI230431
aI1016865
aI230473
aI492624
aI1279067
aI1279090
aI230520
aI230550
aI230571
aI714730
aI2065597
aI230649
aI1541374
aI256899
aI1541403
aI781199
aI650133
aI1017224
aI1803682
aI1803692
aI1279406
aI755122
aI755127
aI1541563
aI269559
aI230892
aI493075
aI2354099
aI755255
aI493122
aI230983
aI1279574
aI493161
aI1017455
aI231034
aI213269
aI82203
aI1436615
aI755393
aI1017550
aI231125
aI1017561
aI231150
aI1279732
aI231211
aI231224
aI1279823
aI388073
aI112451
aI2066336
aI1279929
aI755645
aI231435
aI231456
aI755786
aI3115085
aI493662
aI2397883
aI231539
aI493702
aI493707
aI1542290
aI231589
aI493749
aI755900
aI1018054
aI231624
aI1280221
aI493804
aI231661
aI3800
aI257067
aI562906
aI231716
aI1280293
aI756007
aI231788
aI1804678
aI1280410
aI231842
aI838044
aI231917
aI1018376
aI756262
aI231995
aI1280587
aI494182
aI2572740
aI756383
aI2329264
aI2067129
aI232122
aI1917390
aI2067159
aI232175
aI494340
aI494373
aI232282
aI999912
aI2329464
aI232319
aI1018753
aI1018787
aI1018792
aI1543083
aI1018804
aI650405
aI1280997
aI494613
aI494616
aI232481
aI494643
aI232519
aI1805388
aI82449
aI232565
aI1543300
aI1543303
aI232593
aI2854102
aI1543403
aI2834984
aI156142
aI519383
aI1281306
aI2067740
aI757039
aI1174750
aI2067786
aI757095
aI1281385
aI38807
aI1961198
aI38813
aI519413
aI495041
aI82511
aI757214
aI232943
aI1805836
aI757270
aI232990
aI1281576
aI1543741
aI2572897
aI757338
aI877942
aI1543844
aI2660297
aI1019588
aI1543885
aI1806037
aI1019624
aI757483
aI757508
aI495416
aI2068301
aI2436940
aI2068327
aI1019753
aI1019778
aI169965
aI2330518
aI1218548
aI233406
aI2330575
aI495571
aI657974
aI1282023
aI1282031
aI213672
aI1806348
aI757830
aI757844
aI2068581
aI757873
aI233633
aI757930
aI1282240
aI2592994
aI495876
aI2330905
aI2068766
aI1544483
aI1806628
aI2600309
aI1806651
aI495935
aI233810
aI38971
aI233839
aI1544576
aI1544590
aI2747804
aI233902
aI233905
aI2331073
aI257442
aI1544669
aI758244
aI234022
aI1306033
aI234053
aI496223
aI1282674
aI1544883
aI234179
aI234201
aI496351
aI758503
aI234240
aI234242
aI607033
aI1545088
aI2069378
aI2331533
aI2069424
aI234417
aI758708
aI147471
aI496599
aI130015
aI1020936
aI1283118
aI758848
aI216295
aI496735
aI1917798
aI1021046
aI1807481
aI39106
aI1283215
aI2069648
aI234644
aI234645
aI1545369
aI234661
aI234670
aI496825
aI1807551
aI2076598
aI1807595
aI1807643
aI759088
aI825568
aI759117
aI1545556
aI759126
aI1283421
aI2069860
aI1087721
aI497040
aI2442139
aI1437256
aI234932
aI234954
aI2332112
aI497106
aI759316
aI235058
aI497255
aI235146
aI235179
aI2332336
aI1283772
aI1021642
aI497369
aI2332383
aI1808131
aI1283847
aI1545993
aI497418
aI217332
aI235308
aI497479
aI235354
aI1546120
aI1021890
aI1021965
aI1022007
aI1546328
aI497756
aI1961666
aI1808539
aI497828
aI1808551
aI497849
aI235708
aI1022141
aI235710
aI453031
aI2049063
aI235771
aI760096
aI1546574
aI235855
aI760147
aI760156
aI1022305
aI1284458
aI2529682
aI1022333
aI825757
aI1808839
aI236008
aI760314
aI760331
aI236047
aI236067
aI1284652
aI760389
aI1546831
aI1546844
aI236135
aI236139
aI1080475
aI2595463
aI1284770
aI236195
aI760489
aI2595513
aI236260
aI1022697
aI1809161
aI2333459
aI498466
aI236345
aI760641
aI2071395
aI498609
aI498624
aI2071491
aI1022925
aI1022931
aI498663
aI498688
aI498694
aI498699
aI760858
aI760866
aI236587
aI2071612
aI1023055
aI236639
aI236660
aI1285273
aI1393862
aI498856
aI1874460
aI1547438
aI1023179
aI761059
aI1285399
aI761124
aI761168
aI761212
aI1350209
aI236974
aI499131
aI1809855
aI236993
aI651174
aI2334192
aI1568684
aI499214
aI499216
aI237091
aI237107
aI651188
aI237150
aI1810024
aI1023609
aI1547901
aI1023618
aI2072198
aI237209
aI237211
aI1023679
aI1023687
aI2072267
aI761548
aI1285871
aI237312
aI2596621
aI237349
aI499497
aI499501
aI1023794
aI1810243
aI2879463
aI1286013
aI499609
aI499631
aI499636
aI2858934
aI761793
aI1024000
aI1548301
aI1548323
aI499756
aI499773
aI2334807
aI2072693
aI130121
aI2068038
aI237743
aI762062
aI762073
aI1024223
aI1024224
aI2334946
aI237808
aI127019
aI237838
aI2335006
aI2597152
aI1024298
aI391999
aI2072908
aI237950
aI127040
aI237955
aI301807
aI1548719
aI1286578
aI1286601
aI238030
aI762336
aI238052
aI500202
aI238061
aI345517
aI762395
aI1548839
aI1548853
aI1568866
aI762449
aI500308
aI432910
aI1811043
aI238180
aI2117492
aI1024832
aI738785
aI238419
aI2073460
aI1005421
aI1549218
aI476660
aI2513177
aI238546
aI762844
aI3106753
aI238578
aI500725
aI500729
aI762886
aI762889
aI1287183
aI2073619
aI500776
aI1811501
aI238672
aI138883
aI238682
aI1025130
aI238722
aI238748
aI763044
aI500916
aI763074
aI238798
aI500959
aI3122407
aI763116
aI238847
aI238851
aI651480
aI238906
aI1025342
aI763228
aI238948
aI501102
aI238978
aI1025411
aI501131
aI1287571
aI501153
aI1287599
aI1025458
aI1025459
aI239038
aI1549760
aI501187
aI501194
aI2860523
aI1553379
aI1025533
aI501250
aI239117
aI1811992
aI2074138
aI239140
aI1546551
aI239168
aI763468
aI1287772
aI239211
aI763505
aI763509
aI1287812
aI239241
aI763530
aI1025702
aI1525362
aI1387157
aI1550040
aI913700
aI1025815
aI501557
aI239427
aI239438
aI365865
aI2598783
aI3123086
aI501677
aI239545
aI239567
aI1026017
aI2074594
aI239599
aI2074608
aI258388
aI501759
aI1288198
aI69083
aI1812512
aI239649
aI239663
aI2598962
aI1288245
aI763962
aI1550441
aI1812601
aI501895
aI1026199
aI1812633
aI2382283
aI239801
aI1550572
aI287316
aI651647
aI40005
aI239915
aI239916
aI2599214
aI1026361
aI1550696
aI502126
aI1550723
aI502149
aI1026459
aI1612869
aI2861476
aI1438108
aI1288633
aI240058
aI764357
aI1026502
aI240078
aI502223
aI1550807
aI502236
aI1288692
aI1026568
aI1026572
aI240141
aI1288758
aI502334
aI240215
aI502381
aI240239
aI240250
aI2861702
aI1026753
aI2337480
aI240338
aI240358
aI240364
aI240385
aI240411
aI240439
aI240443
aI651744
aI1551204
aI651751
aI1551233
aI764805
aI764846
aI240566
aI240569
aI1027017
aI764882
aI502744
aI502816
aI240680
aI240697
aI502848
aI240706
aI83809
aI1027148
aI2486805
aI1289344
aI1289384
aI1289385
aI1289388
aI2075839
aI765138
aI1289486
aI2600208
aI802365
aI1289525
aI564449
aI503125
aI503127
aI1813853
aI503148
aI1551730
aI503180
aI1657815
aI1027520
aI520779
aI1289674
aI2076111
aI765410
aI2076150
aI1918890
aI1551880
aI2862621
aI2600487
aI165154
aI1289775
aI241244
aI503412
aI503417
aI765581
aI1814189
aI765628
aI2076351
aI503550
aI241462
aI1814343
aI241528
aI241552
aI765854
aI503724
aI765890
aI241605
aI1028055
aI1552344
aI1552386
aI2600965
aI1552414
aI1028130
aI2076741
aI241753
aI241755
aI1028230
aI1028241
aI1290438
aI1028304
aI241876
aI1028312
aI2312233
aI241942
aI1290545
aI652005
aI2077046
aI1290643
aI242076
aI242107
aI504270
aI504277
aI1290720
aI504299
aI520957
aI242203
aI504356
aI504368
aI242241
aI2077250
aI766548
aI766570
aI1815172
aI3115607
aI242325
aI127769
aI695749
aI766648
aI1492009
aI766740
aI242493
aI504661
aI504674
aI242532
aI242538
aI1291121
aI504733
aI346272
aI766921
aI504793
aI766945
aI3126323
aI1029204
aI2077827
aI2864275
aI242848
aI1291428
aI242853
aI783219
aI242897
aI1291492
aI242940
aI1553668
aI505103
aI2077995
aI2356203
aI1613365
aI505157
aI767309
aI2078030
aI505172
aI1029486
aI1029527
aI1029582
aI1553888
aI1029612
aI1291787
aI243213
aI1029654
aI1291812
aI608524
aI1816139
aI2864740
aI1291927
aI1291935
aI1029816
aI1554114
aI505539
aI2078412
aI1291995
aI2602732
aI400914
aI1292052
aI1554201
aI243493
aI1029936
aI1029952
aI907201
aI1029988
aI1816426
aI243568
aI505722
aI2967876
aI243613
aI1816503
aI1030087
aI1554387
aI2865170
aI1030169
aI1954692
aI1292344
aI1030202
aI243782
aI768110
aI1816704
aI243848
aI1292492
aI243943
aI1292556
aI244010
aI171742
aI768323
aI302822
aI1292652
aI506236
aI768392
aI2341258
aI506303
aI2793208
aI390223
aI506361
aI506367
aI1554982
aI1292848
aI244296
aI1292882
aI2341467
aI2079345
aI244353
aI244355
aI1030802
aI2865847
aI506570
aI768722
aI244461
aI40749
aI506651
aI768804
aI244537
aI521361
aI506738
aI1555320
aI506825
aI1031117
aI433998
aI128165
aI84478
aI244727
aI2341938
aI244789
aI769083
aI383500
aI1817690
aI390330
aI1031312
aI244888
aI1817755
aI1011995
aI244929
aI244932
aI1031372
aI1509551
aI769237
aI2190418
aI444610
aI245030
aI1555756
aI769366
aI1002041
aI1293659
aI1293677
aI245103
aI507256
aI507279
aI1031569
aI2342306
aI1818031
aI1555903
aI1031658
aI1045760
aI245264
aI2342446
aI2604607
aI215650
aI1293912
aI769678
aI1818256
aI245428
aI1556169
aI303056
aI507629
aI1031945
aI507674
aI769831
aI84619
aI245581
aI1818488
aI507770
aI507784
aI507793
aI1294237
aI128327
aI172029
aI245747
aI128346
aI770127
aI245860
aI508029
aI508043
aI508057
aI40986
aI1032370
aI1556680
aI245966
aI2037323
aI863637
aI827431
aI1818885
aI696364
aI1818911
aI2081056
aI1032493
aI497445
aI1032531
aI246142
aI2605480
aI521631
aI1032650
aI1556954
aI246246
aI2605548
aI1556978
aI246263
aI246277
aI565339
aI652722
aI1032750
aI246342
aI2605644
aI1032796
aI508537
aI246394
aI2605718
aI84762
aI652742
aI1557162
aI508601
aI508666
aI2081541
aI508702
aI1295171
aI1045988
aI246622
aI770980
aI770984
aI1557418
aI1033166
aI434340
aI1046010
aI1033200
aI1033239
aI1295389
aI246847
aI783890
aI1295497
aI246927
aI509134
aI1745111
aI771387
aI265261
aI509309
aI1089771
aI771462
aI2837399
aI771487
aI509344
aI1308232
aI247221
aI1820097
aI2606540
aI247245
aI1033686
aI771589
aI247316
aI509464
aI1295905
aI247372
aI509529
aI2344584
aI771724
aI509597
aI509619
aI509663
aI1558255
aI2606833
aI247542
aI2344737
aI1558322
aI509754
aI347112
aI2606962
aI1034105
aI1558395
aI1034110
aI247702
aI1558430
aI772002
aI1296294
aI772035
aI479618
aI772055
aI509916
aI1296430
aI776409
aI247893
aI1296553
aI610561
aI510144
aI510145
aI1034448
aI1369989
aI248055
aI248058
aI2607359
aI2607370
aI1296660
aI772376
aI248129
aI1821000
aI248164
aI1439464
aI772582
aI1821215
aI1559072
aI2881286
aI1034821
aI248413
aI248432
aI1133674
aI609387
aI1559213
aI2083549
aI772928
aI1035099
aI248679
aI510824
aI85140
aI2345880
aI985935
aI1035173
aI510936
aI2345960
aI85159
aI2345972
aI1035257
aI248827
aI511012
aI1821749
aI248903
aI248914
aI773208
aI773209
aI1920188
aI773228
aI259946
aI773256
aI773259
aI773263
aI248994
aI249001
aI740553
aI773329
aI959019
aI1745452
aI773423
aI511300
aI249161
aI1928686
aI511328
aI1035619
aI1570711
aI2346427
aI511438
aI1035750
aI511529
aI773690
aI1035893
aI1298089
aI128968
aI249538
aI249543
aI249580
aI249592
aI1036025
aI511757
aI249624
aI511795
aI511804
aI1560385
aI863760
aI1822567
aI249710
aI1298289
aI1298290
aI1036148
aI1298297
aI1298318
aI1212924
aI2084774
aI774078
aI434848
aI511940
aI235273
aI249833
aI512008
aI512030
aI1298488
aI774209
aI249933
aI512089
aI1036390
aI249997
aI250000
aI1560774
aI565968
aI250162
aI250190
aI2836540
aI645551
aI391227
aI774511
aI512411
aI2347444
aI250294
aI250301
aI774596
aI512453
aI1036745
aI774612
aI2347483
aI250335
aI1789355
aI1036832
aI250422
aI250435
aI2208058
aI512605
aI250470
aI1036917
aI1299073
aI1823389
aI1038369
aI1561269
aI250553
aI1396172
aI1561297
aI1823462
aI250611
aI774907
aI774923
aI512783
aI250648
aI1029644
aI2609966
aI609760
aI2872137
aI2619534
aI775014
aI1823593
aI2347884
aI223386
aI34537
aI2610061
aI1037210
aI1823675
aI566092
aI250832
aI1823737
aI1789439
aI513021
aI775184
aI513057
aI1299518
aI1299528
aI2610249
aI513101
aI3056485
aI1090406
aI871953
aI251008
aI251012
aI251034
aI513191
aI1299642
aI251086
aI251154
aI1037609
aI2872622
aI2610486
aI513342
aI775489
aI775516
aI1037703
aI113116
aI1964272
aI251305
aI251311
aI1037767
aI513508
aI251388
aI200410
aI2086449
aI1300034
aI1824363
aI1037948
aI1562258
aI251541
aI251543
aI1300126
aI251555
aI1038004
aI1038015
aI251614
aI1300194
aI1300208
aI1300223
aI251671
aI513828
aI1300264
aI251695
aI2348870
aI251788
aI1658527
aI251859
aI514049
aI514065
aI776225
aI2086972
aI2663434
aI1824831
aI251986
aI216763
aI1265340
aI2087066
aI3135670
aI252087
aI514232
aI915844
aI435253
aI252228
aI1300806
aI1038672
aI1300817
aI1178000
aI252260
aI776575
aI1300910
aI252373
aI933682
aI1038812
aI776687
aI1038866
aI514582
aI514624
aI1301058
aI2611795
aI1563274
aI1301132
aI653763
aI2087590
aI252591
aI514749
aI776916
aI2611927
aI776934
aI1563422
aI697477
aI252704
aI514873
aI514878
aI104435
aI85815
aI1825619
aI1301359
aI1563507
aI2612112
aI1563558
aI515005
aI252865
aI42147
aI515042
aI515069
aI366313
aI173234
aI252975
aI777265
aI777292
aI697529
aI1825888
aI1563764
aI1039481
aI253081
aI916000
aI253151
aI253169
aI1563892
aI1039608
aI253257
aI253266
aI777561
aI653882
aI2088297
aI515437
aI1564068
aI253377
aI515536
aI104458
aI2088447
aI777733
aI515634
aI253499
aI777850
aI1302148
aI1877270
aI1040006
aI1302151
aI2875033
aI2612892
aI1302192
aI777919
aI130652
aI777929
aI435492
aI1302251
aI522877
aI1302259
aI253793
aI129682
aI778118
aI515976
aI313969
aI1302427
aI375073
aI1302468
aI516071
aI1265660
aI1040371
aI778234
aI778245
aI778278
aI253995
aI2089006
aI2089036
aI217101
aI1040479
aI516211
aI516245
aI254103
aI516256
aI778421
aI778430
aI2089197
aI516392
aI516433
aI254326
aI516492
aI254364
aI1302958
aI516531
aI778687
aI1392437
aI254441
aI95764
aI516629
aI1303116
aI2351696
aI516690
aI1040980
aI2613864
aI1222076
aI778975
aI2089713
aI785193
aI2614013
aI1303303
aI1827600
aI1565512
aI254805
aI1041241
aI254830
aI516989
aI1303422
aI1303429
aI1565597
aI1041321
aI1041341
aI517066
aI1396902
aI254973
aI2876436
aI209259
aI517154
aI779324
aI779345
aI1303663
aI1303697
aI392046
aI517294
aI517298
aI2352322
aI1041631
aI2614506
aI779513
aI1041663
aI255239
aI1041692
aI779549
aI2352432
aI1303930
aI2401855
aI1303936
aI255363
aI255376
aI1041822
aI517544
aI517616
aI1041926
aI1566221
aI1566232
aI1003780
aI1041948
aI925058
aI1042031
aI2352773
aI173677
aI872729
aI1828508
aI255654
aI779989
aI121993
aI255755
aI255756
aI1042193
aI517914
aI255777
aI1828684
aI1566575
aI780156
aI1566605
aI255905
aI255961
aI261114
aI518144
aI256007
aI1828879
aI518161
aI2353188
aI1091251
aI1828986
aI926978
aI741747
aI256196
aI1566928
aI2353383
aI42707
aI2353403
aI256270
aI2877719
aI2033671
aI780592
aI518469
aI2091334
aI2091346
aI1042848
aI518587
aI256460
aI2091504
aI304894
aI654423
aI780824
aI219933
aI654434
aI1043041
aI916365
aI86463
aI1353494
aI252959
aI1305227
aI780941
aI256667
aI1043150
aI256721
aI2353923
aI370073
aI256793
aI69654
aI518955
aI1829692
aI256854
aI1567581
aI256895
aI610799
aI2042422
aI1567661
aI781251
aI2616297
aI1043456
aI519170
aI698202
aI781350
aI519241
aI1305696
aI519305
aI257182
aI1305761
aI1830104
aI1305849
aI781573
aI781587
aI2092317
aI781662
aI519531
aI257404
aI2354564
aI781707
aI1572077
aI519575
aI1568152
aI3141031
aI519617
aI1266251
aI781764
aI257489
aI257493
aI1568236
aI1044026
aI1568317
aI519755
aI257629
aI1397351
aI15682
aI781965
aI257705
aI519856
aI1044146
aI782034
aI1568473
aI130341
aI1178921
aI257786
aI1044234
aI1306401
aI257878
aI1310013
aI52233
aI2355083
aI2355087
aI1568721
aI43004
aI698366
aI782371
aI1306669
aI258127
aI1044591
aI2093172
aI1044644
aI2617509
aI1306809
aI305189
aI782609
aI2617644
aI520499
aI2093375
aI258397
aI2879838
aI258400
aI1044856
aI1307020
aI258445
aI782746
aI782754
aI916892
aI782822
aI520684
aI1044982
aI520732
aI782884
aI261560
aI261564
aI258674
aI2093695
aI520857
aI1169578
aI783037
aI1045204
aI2356007
aI1045296
aI2356035
aI783175
aI521034
aI521042
aI258941
aI2356100
aI174230
aI1307530
aI1569675
aI1569689
aI122101
aI783283
aI783288
aI1045444
aI259014
aI1307592
aI259038
aI259039
aI2356199
aI1091751
aI521201
aI259106
aI521257
aI521278
aI2190889
aI1832058
aI783488
aI2094270
aI43217
aI1570024
aI1307915
aI521505
aI783681
aI521554
aI783743
aI259457
aI1045904
aI413736
aI2883143
aI783815
aI1570248
aI2618831
aI783825
aI1308134
aI259562
aI259579
aI349100
aI1046057
aI1048157
aI328193
aI521799
aI259656
aI2881107
aI521832
aI1308338
aI259764
aI521912
aI1832636
aI259778
aI1570501
aI1832656
aI1570534
aI521966
aI2619166
aI95944
aI2357041
aI259900
aI522047
aI522050
aI960828
aI2357112
aI1046402
aI784277
aI356128
aI522150
aI260007
aI1046444
aI2839538
aI2357192
aI191969
aI260080
aI1046539
aI522254
aI1841760
aI522297
aI1046610
aI1570901
aI522330
aI1737014
aI1308788
aI1571000
aI305530
aI522479
aI1571073
aI1046804
aI174469
aI260389
aI779323
aI1309013
aI1833314
aI1046898
aI2095507
aI1046934
aI2619810
aI522663
aI260528
aI1572595
aI784855
aI784858
aI1571308
aI1571327
aI2619912
aI1309193
aI784909
aI1047055
aI260640
aI2619939
aI2619950
aI1047100
aI1833612
aI785061
aI785065
aI522975
aI1047288
aI122164
aI488784
aI1571610
aI1073631
aI785207
aI2095937
aI1833798
aI235644
aI785241
aI523100
aI1309557
aI260985
aI1571709
aI260990
aI654640
aI1309600
aI87206
aI261122
aI2358292
aI261159
aI261188
aI785496
aI1047662
aI785539
aI785541
aI130929
aI1047722
aI393075
aI1922258
aI1047808
aI1047823
aI1309986
aI261439
aI1310032
aI785745
aI523612
aI1310070
aI1047940
aI1572233
aI2358707
aI1047988
aI785864
aI523794
aI261677
aI785966
aI261682
aI2096695
aI261689
aI785998
aI1572445
aI1834941
aI611605
aI523910
aI261782
aI261791
aI261798
aI1572524
aI523949
aI1834700
aI2621389
aI261869
aI2359055
aI1048369
aI261970
aI1310566
aI1310604
aI2621325
aI2970947
aI1048479
aI262056
aI1310668
aI1310671
aI1834967
aI262111
aI524263
aI262125
aI262133
aI1048566
a.