(lp0
I13
aI22
aI29
aI786489
aI67
aI524368
aI85
aI86
aI92
aI122
aI151
aI1573036
aI830153
aI184
aI524475
aI188
aI436938
aI1835198
aI198
aI1835231
aI235
aI524332
aI267
aI268
aI524566
aI786718
aI287
aI292
aI304
aI338
aI342
aI361
aI364
aI369
aI1835378
aI396
aI410
aI1573279
aI422
aI431
aI459
aI462
aI476
aI2621917
aI786935
aI518
aI786962
aI2359830
aI262683
aI543
aI786998
aI572
aI573
aI602323
aI787016
aI588
aI1311325
aI1049184
aI524900
aI524906
aI1311351
aI1835650
aI524946
aI1311394
aI688
aI699
aI700
aI262852
aI723
aI728
aI737
aI739
aI740
aI525036
aI758
aI1311500
aI781
aI797
aI799
aI525096
aI525097
aI813
aI826
aI218592
aI834
aI853
aI263004
aI861
aI869
aI872
aI1835884
aI890
aI525179
aI893
aI903
aI263052
aI263057
aI917
aI931
aI939
aI943
aI950
aI1049527
aI959
aI969
aI1573835
aI972
aI974
aI988
aI998
aI1000
aI263149
aI1009
aI1012
aI1311745
aI1030
aI1035
aI1053
aI2098224
aI2098232
aI525369
aI1088
aI1049678
aI1109
aI1113
aI263266
aI263285
aI263296
aI1836168
aI1174
aI787615
aI1196
aI1200
aI87582
aI787643
aI1237
aI1247
aI787704
aI1311994
aI1312004
aI1288
aI1574153
aI1310
aI1049915
aI1348
aI1349
aI1353
aI1312080
aI787793
aI525655
aI263525
aI2446911
aI1406
aI1409
aI1412
aI1423
aI1312147
aI1428
aI1431
aI1432
aI525725
aI1050015
aI1450
aI1454
aI525744
aI787893
aI1471
aI2622924
aI1492
aI787926
aI1050079
aI1527
aI263681
aI2098699
aI1836557
aI1551
aI1557
aI2098730
aI1583
aI1585
aI786699
aI1638
aI1312360
aI61158
aI263801
aI1659
aI1666
aI788109
aI525978
aI1694
aI1695
aI1702
aI1709
aI1712
aI2623158
aI1730
aI1741
aI1050319
aI2098900
aI1750
aI263895
aI1312478
aI2098916
aI1574637
aI788207
aI1793
aI1796
aI2361098
aI526093
aI1813
aI1820
aI1836
aI1574701
aI1050422
aI1853
aI1862
aI1867
aI1870
aI1898
aI526189
aI1915
aI526217
aI2623382
aI1958
aI1965
aI1968
aI1969
aI1992
aI1996
aI2010
aI2885596
aI743077
aI2031
aI264181
aI2361336
aI2099208
aI1312793
aI2077
aI526386
aI2109
aI788546
aI2119
aI1837134
aI2131
aI2140
aI2147
aI2177
aI1050755
aI1050766
aI264338
aI2197
aI2090976
aI2214
aI649451
aI1312949
aI1575096
aI2238
aI526535
aI2257
aI2260
aI2097529
aI264419
aI2281
aI2361598
aI2309
aI264482
aI526635
aI2362
aI2391
aI264540
aI2405
aI788842
aI1313143
aI2424
aI2443
aI788883
aI264596
aI2455
aI526781
aI2509
aI2535
aI1313268
aI2554
aI1837565
aI2567
aI1051147
aI2598
aI2603
aI2611
aI354414
aI218890
aI2628
aI264775
aI2644
aI2648
aI264797
aI2670
aI2684
aI264837
aI2697
aI1575570
aI526995
aI789188
aI2766
aI789214
aI2783
aI2788
aI2789
aI2811
aI1837823
aI2819
aI2823
aI2828
aI2844
aI2847
aI1837873
aI96
aI2890
aI2100044
aI527185
aI2362206
aI2915
aI2955
aI2959
aI2961
aI2964
aI2965
aI2979
aI2985
aI2988
aI265143
aI527288
aI1051580
aI789440
aI3009
aI265167
aI527312
aI3029
aI3032
aI3043
aI527333
aI3050
aI3055
aI2362356
aI527352
aI3069
aI3071
aI3087
aI3093
aI3095
aI3098
aI1051677
aI3105
aI789545
aI1838139
aI1313855
aI3146
aI3150
aI3154
aI3171
aI527470
aI3201
aI1051783
aI3219
aI789657
aI527531
aI527533
aI3253
aI3267
aI527577
aI527580
aI3295
aI527590
aI3305
aI3306
aI2886891
aI527601
aI265463
aI3320
aI3333
aI3340
aI1051927
aI3355
aI87942
aI514316
aI265519
aI265521
aI3415
aI3072736
aI1051998
aI265570
aI527718
aI3432
aI3434
aI3446
aI3449
aI265597
aI3458
aI3474
aI527768
aI1838509
aI265650
aI527808
aI3525
aI3527
aI1052107
aI3535
aI265683
aI3560
aI3565
aI3570
aI3587
aI790053
aI1052204
aI3631
aI87987
aI790070
aI1314366
aI1052227
aI265804
aI3666
aI3673
aI527968
aI265846
aI3707
aI1052284
aI44309
aI3713
aI1838726
aI44313
aI3767
aI3785
aI3788
aI265954
aI3812
aI3827
aI3839
aI3889
aI3898
aI3149639
aI790347
aI3916
aI3937
aI790387
aI266103
aI3966
aI3973
aI3978
aI3980
aI3993
aI266143
aI4023
aI528313
aI2625478
aI266192
aI4052
aI266198
aI4064
aI743419
aI4068
aI2887657
aI2101242
aI4092
aI2491050
aI4100
aI2101267
aI266261
aI4120
aI266268
aI266272
aI528428
aI266304
aI4167
aI4186
aI4194
aI4203
aI4206
aI4213
aI2363517
aI4223
aI4249
aI4257
aI4276
aI4279
aI4287
aI4311
aI4323
aI1839336
aI528617
aI2625772
aI1052931
aI4362
aI790797
aI384223
aI790810
aI266531
aI4389
aI266535
aI790839
aI4411
aI4418
aI4419
aI4427
aI4433
aI4435
aI528724
aI4465
aI4482
aI1577363
aI4507
aI528825
aI4552
aI4574
aI4600
aI1053182
aI1315397
aI266827
aI4690
aI874596
aI2101859
aI4725
aI4728
aI4737
aI1315476
aI1315511
aI4792
aI4794
aI4799
aI266956
aI529118
aI4834
aI4850
aI785775
aI4857
aI4893
aI4900
aI4903
aI1315627
aI4913
aI4918
aI2364216
aI4926
aI4931
aI529237
aI791406
aI267121
aI1577850
aI394051
aI5049
aI267196
aI1187318
aI5074
aI5077
aI350374
aI2364393
aI1315831
aI529405
aI5118
aI267269
aI791570
aI5171
aI5190
aI5237
aI5266
aI5271
aI5274
aI1316000
aI5287
aI5303
aI5304
aI437791
aI44579
aI267482
aI529630
aI5346
aI1053938
aI5380
aI5382
aI2364687
aI529691
aI5409
aI5416
aI1054011
aI1054021
aI1054036
aI5478
aI2102634
aI5507
aI5541
aI5542
aI1054140
aI791998
aI5569
aI1316346
aI1054211
aI5645
aI787375
aI1054245
aI792103
aI5696
aI267878
aI1578604
aI1316462
aI5746
aI1005846
aI1840775
aI792232
aI5812
aI5814
aI792272
aI5849
aI530160
aI5874
aI5917
aI5922
aI1054558
aI5987
aI2365297
aI6013
aI6044
aI1578925
aI530351
aI6069
aI6094
aI530387
aI6101
aI268273
aI268278
aI6144
aI6180
aI2889769
aI6186
aI2365494
aI6200
aI1004046
aI6210
aI1579085
aI530513
aI268371
aI268378
aI6243
aI44732
aI268396
aI530549
aI6264
aI6277
aI6282
aI656408
aI530591
aI6309
aI1054897
aI6330
aI792779
aI6365
aI6367
aI6372
aI1579244
aI6391
aI1317117
aI268544
aI6414
aI1055001
aI2627868
aI530734
aI1841457
aI2103602
aI489041
aI268619
aI6479
aI6482
aI6491
aI6508
aI6509
aI1055089
aI6527
aI6533
aI1579411
aI6554
aI2103708
aI1317286
aI6568
aI2365873
aI6583
aI6591
aI6610
aI1055219
aI530933
aI268803
aI1055241
aI6703
aI1055284
aI6716
aI1055295
aI531021
aI6760
aI6770
aI1317495
aI6782
aI1055359
aI1579667
aI6819
aI384306
aI1055485
aI6918
aI6932
aI1055516
aI1579823
aI1317692
aI1623834
aI269154
aI7012
aI531310
aI531321
aI7034
aI122441
aI7059
aI269221
aI793522
aI7094
aI269242
aI531398
aI2366418
aI1055715
aI7144
aI1047723
aI793607
aI7178
aI793619
aI7193
aI2104390
aI2628687
aI7267
aI1055844
aI269454
aI1580176
aI269483
aI7345
aI7363
aI1055952
aI7382
aI2890983
aI7400
aI438140
aI1842410
aI1055980
aI1842414
aI7412
aI1580288
aI7426
aI7432
aI227203
aI2628911
aI531762
aI438154
aI793934
aI7507
aI793943
aI7512
aI2628956
aI7546
aI1056138
aI44952
aI7581
aI7586
aI7595
aI7613
aI7616
aI7625
aI1318346
aI7647
aI7648
aI794088
aI7659
aI531954
aI7671
aI7679
aI1056263
aI7689
aI7708
aI7740
aI1443084
aI794197
aI1580636
aI532070
aI1056359
aI532120
aI7852
aI7855
aI7867
aI1318601
aI2105039
aI7890
aI7898
aI532205
aI7918
aI1180968
aI7927
aI794365
aI7938
aI270091
aI794380
aI2105110
aI1056563
aI1580864
aI8002
aI270157
aI8015
aI8020
aI794457
aI8026
aI620029
aI750965
aI8041
aI532331
aI8047
aI1343
aI1318795
aI2891664
aI2105241
aI8123
aI8131
aI270277
aI8136
aI532434
aI270298
aI8187
aI1581069
aI1318946
aI45064
aI45066
aI263521
aI1581160
aI8313
aI1581185
aI350923
aI8388
aI1581266
aI1082681
aI8418
aI8434
aI794902
aI8528
aI794967
aI2629991
aI794988
aI8563
aI1319284
aI8590
aI1057174
aI8621
aI1399539
aI270780
aI1057218
aI1057230
aI2367955
aI8670
aI8681
aI2892277
aI8709
aI1581576
aI1057291
aI795149
aI8745
aI8747
aI8753
aI270910
aI8792
aI8805
aI1057389
aI45163
aI8840
aI1057429
aI1057474
aI8899
aI8912
aI8922
aI1581806
aI8946
aI8954
aI132565
aI8969
aI1057547
aI8976
aI8992
aI9034
aI1581900
aI9069
aI271236
aI2928793
aI795554
aI45211
aI1844148
aI9167
aI9193
aI9204
aI88916
aI271357
aI787968
aI1057797
aI9254
aI1844263
aI3154987
aI533552
aI271415
aI9292
aI176312
aI533591
aI525845
aI9345
aI9360
aI1844392
aI9396
aI533690
aI9422
aI2106575
aI2106576
aI9425
aI9453
aI9457
aI2368764
aI569558
aI9484
aI9504
aI533800
aI9530
aI9540
aI795995
aI9567
aI9611
aI1058196
aI9628
aI1605
aI9636
aI9641
aI533930
aI2106815
aI533967
aI9683
aI9686
aI9702
aI2106862
aI1058319
aI796181
aI9796
aI1320534
aI9815
aI534120
aI534124
aI9861
aI534150
aI9910
aI9922
aI9925
aI272075
aI534223
aI796401
aI1582846
aI9990
aI10018
aI10026
aI272176
aI1320774
aI272208
aI962872
aI2893651
aI569659
aI1320809
aI10098
aI10116
aI534406
aI796559
aI10165
aI10166
aI10174
aI1356107
aI1845188
aI534471
aI1320911
aI1845200
aI788134
aI272388
aI10263
aI10273
aI655021
aI272451
aI1583175
aI796761
aI10333
aI10397
aI10431
aI10433
aI534734
aI10468
aI10508
aI10522
aI10523
aI831878
aI272692
aI534858
aI2107731
aI534877
aI10592
aI10601
aI272774
aI10631
aI10638
aI10659
aI10661
aI1845671
aI1137735
aI1321399
aI1321403
aI1321404
aI1059273
aI1583566
aI1321426
aI10715
aI272861
aI2894309
aI10759
aI10771
aI2894369
aI1059372
aI1279334
aI272969
aI2370136
aI253503
aI2107994
aI700858
aI1059446
aI535184
aI10906
aI535203
aI1321642
aI10947
aI797390
aI797393
aI2370265
aI10973
aI2108128
aI10980
aI535275
aI1321716
aI11002
aI273200
aI11069
aI2370367
aI220299
aI11092
aI1059670
aI11114
aI11142
aI1321873
aI11182
aI1059784
aI11236
aI1321957
aI11249
aI2632690
aI797704
aI797707
aI11289
aI11296
aI11301
aI535590
aI1584167
aI89266
aI569864
aI2894903
aI535610
aI45581
aI788324
aI395109
aI1322085
aI2632816
aI1584255
aI273542
aI11413
aI1322142
aI797857
aI11427
aI11429
aI11432
aI535724
aI526196
aI535741
aI11457
aI1846466
aI1060037
aI11466
aI1322198
aI273657
aI1584388
aI273673
aI11544
aI1846558
aI220381
aI535871
aI798027
aI11602
aI11614
aI1060205
aI11649
aI11654
aI11662
aI1322390
aI11678
aI273826
aI11705
aI11708
aI11721
aI11732
aI351483
aI798182
aI1060350
aI273924
aI11797
aI536086
aI11809
aI798244
aI11813
aI11834
aI11858
aI11897
aI798342
aI536205
aI2109070
aI1322642
aI11926
aI11961
aI220447
aI11988
aI176761
aI798441
aI12030
aI12034
aI12039
aI12040
aI12048
aI274205
aI798498
aI12092
aI1990624
aI274261
aI351548
aI12148
aI12166
aI12171
aI536466
aI274340
aI274344
aI1060779
aI274350
aI1585082
aI87698
aI12248
aI1322969
aI1847261
aI12275
aI1060868
aI536607
aI274466
aI89435
aI274473
aI2109492
aI12349
aI798792
aI2109526
aI798818
aI1847400
aI657427
aI471782
aI12457
aI12460
aI274677
aI12541
aI12547
aI1143922
aI1847560
aI1847571
aI12579
aI12582
aI1847592
aI12604
aI274757
aI570081
aI59441
aI12631
aI12634
aI2634078
aI12662
aI12677
aI799115
aI12704
aI1061281
aI12707
aI12711
aI12716
aI12719
aI799153
aI12725
aI537028
aI537031
aI12744
aI12748
aI1323488
aI799224
aI799227
aI1847857
aI12870
aI12880
aI12890
aI2372189
aI12895
aI264294
aI1585767
aI12916
aI1061499
aI12943
aI12950
aI275097
aI12960
aI799397
aI1585868
aI13005
aI1531343
aI13046
aI13051
aI1061636
aI13070
aI13075
aI1848090
aI2896680
aI275243
aI799562
aI2110286
aI13140
aI2372438
aI537445
aI13189
aI275347
aI13249
aI13251
aI13253
aI13267
aI2667343
aI13285
aI799737
aI13313
aI13317
aI537623
aI275496
aI13365
aI13379
aI1061977
aI1423280
aI13422
aI275567
aI13430
aI13433
aI1062015
aI13447
aI13491
aI1324233
aI13531
aI1586404
aI537846
aI800014
aI275737
aI1324320
aI2110762
aI13627
aI1848640
aI13633
aI1848662
aI13663
aI1324390
aI13687
aI13713
aI1062290
aI13724
aI275886
aI13744
aI13753
aI13757
aI800194
aI538058
aI13792
aI800237
aI2110961
aI800242
aI13824
aI275973
aI2373128
aI13834
aI2373138
aI13855
aI1324595
aI538169
aI2111035
aI1062461
aI13895
aI13905
aI276052
aI1324631
aI13924
aI13925
aI276070
aI13930
aI276076
aI2111085
aI538222
aI13935
aI13940
aI276093
aI13956
aI276101
aI1094597
aI1324709
aI276138
aI14007
aI14009
aI1586880
aI14057
aI1586924
aI14065
aI276232
aI14089
aI220804
aI276263
aI14122
aI919858
aI2111279
aI14139
aI14148
aI308193
aI14160
aI2897748
aI538453
aI14167
aI1587046
aI14204
aI538514
aI2635682
aI276403
aI14302
aI14316
aI2897919
aI14343
aI14357
aI1062992
aI14419
aI220857
aI570383
aI1063041
aI14467
aI1587345
aI1325216
aI1063094
aI538837
aI14558
aI2636001
aI14569
aI14570
aI538877
aI14606
aI1063191
aI14619
aI538921
aI276780
aI14637
aI276783
aI276789
aI2111798
aI876256
aI14663
aI2111876
aI14731
aI14744
aI14768
aI14783
aI276948
aI276950
aI276983
aI801278
aI276994
aI1587716
aI14860
aI1849873
aI2112028
aI801325
aI1007369
aI14930
aI1063509
aI277084
aI14952
aI14955
aI801396
aI801434
aI15018
aI539314
aI801466
aI15055
aI15075
aI1325796
aI483113
aI15100
aI15108
aI1587973
aI15124
aI1325855
aI1063716
aI15148
aI264669
aI277297
aI15155
aI277304
aI277307
aI1850172
aI15168
aI352054
aI15187
aI1325942
aI15241
aI1063824
aI15254
aI15255
aI2898867
aI526836
aI15304
aI801751
aI277516
aI801815
aI15393
aI15394
aI483163
aI15401
aI15416
aI15441
aI2636887
aI15452
aI15459
aI15461
aI15464
aI15472
aI277617
aI801919
aI15498
aI1064076
aI15514
aI15527
aI277683
aI2112692
aI539830
aI1488073
aI483191
aI2637006
aI539861
aI802012
aI1064161
aI277740
aI1850609
aI802050
aI15619
aI15627
aI15649
aI15657
aI15661
aI277811
aI15689
aI1326425
aI15721
aI15727
aI1064325
aI15768
aI15790
aI2637237
aI1064374
aI15809
aI821057
aI2113002
aI15852
aI15880
aI278042
aI278064
aI15955
aI278100
aI278124
aI802421
aI540284
aI540286
aI2711488
aI1851024
aI16023
aI540312
aI16035
aI1064612
aI802469
aI768690
aI16076
aI1064659
aI16135
aI16138
aI1064728
aI802585
aI1326913
aI16201
aI16209
aI1064809
aI16239
aI278385
aI540552
aI90101
aI16351
aI16363
aI802831
aI16404
aI16406
aI16414
aI16424
aI177505
aI16476
aI16515
aI16524
aI16534
aI16542
aI2375843
aI1065129
aI46450
aI278712
aI1065180
aI133840
aI1065190
aI1065197
aI1327374
aI1589522
aI1327386
aI540962
aI16685
aI278836
aI540981
aI278842
aI541005
aI16724
aI278897
aI278899
aI16759
aI1138751
aI2638205
aI16779
aI16784
aI16787
aI803225
aI16800
aI541091
aI541106
aI16826
aI16828
aI1589700
aI2113996
aI803285
aI16873
aI16883
aI2815
aI236247
aI1065489
aI2114082
aI803367
aI1065525
aI16959
aI1065547
aI16977
aI1851986
aI17008
aI1589880
aI17028
aI17041
aI1327788
aI279218
aI803517
aI279236
aI17123
aI2114313
aI17172
aI17175
aI279320
aI1327899
aI17205
aI803649
aI920375
aI2900817
aI279395
aI279400
aI279402
aI265022
aI17300
aI279452
aI17312
aI2376614
aI480674
aI17335
aI17343
aI279511
aI17375
aI1328106
aI541686
aI2580649
aI279554
aI17428
aI1328150
aI279598
aI541765
aI279623
aI410847
aI17542
aI90305
aI1328300
aI1357341
aI1051509
aI17613
aI17614
aI1590502
aI90322
aI1066240
aI701996
aI17675
aI2405937
aI46642
aI17712
aI2362251
aI804181
aI1590632
aI2639229
aI1590666
aI1852811
aI17826
aI17832
aI17833
aI17834
aI279990
aI17867
aI2115021
aI17871
aI17876
aI1328612
aI17941
aI17967
aI2362295
aI1066573
aI1066581
aI804447
aI18027
aI804477
aI18049
aI18061
aI280222
aI804521
aI280244
aI352542
aI18103
aI18122
aI542413
aI1590990
aI18149
aI18154
aI18157
aI18160
aI1328888
aI280314
aI542461
aI18180
aI18187
aI18189
aI18192
aI18196
aI804637
aI177800
aI18233
aI1066828
aI18255
aI3044
aI280410
aI18284
aI964243
aI18296
aI1066894
aI280474
aI2377629
aI804773
aI1329062
aI18356
aI542659
aI542692
aI1329126
aI542701
aI280574
aI18437
aI1853458
aI280598
aI280602
aI18494
aI18511
aI221541
aI804967
aI804976
aI1554387
aI2640007
aI527383
aI18573
aI805007
aI1329296
aI805031
aI18627
aI805065
aI280783
aI18645
aI18716
aI18744
aI18771
aI1853785
aI18796
aI18804
aI805252
aI280965
aI543128
aI964335
aI543168
aI281028
aI18907
aI2378225
aI543220
aI2378231
aI18936
aI2640379
aI1329671
aI1067538
aI281108
aI18995
aI19013
aI543315
aI1067606
aI281188
aI281191
aI543349
aI19068
aI543362
aI1329813
aI543384
aI543405
aI19130
aI19136
aI805569
aI19144
aI637858
aI1854222
aI805681
aI543539
aI2640693
aI19276
aI543572
aI1592160
aI281460
aI281461
aI19347
aI1067946
aI281544
aI281545
aI19403
aI543711
aI19450
aI281609
aI1068043
aI281614
aI1068054
aI19479
aI19501
aI1592398
aI19540
aI543829
aI19563
aI1068167
aI1226605
aI19601
aI19624
aI1592489
aI1449676
aI1068314
aI2903325
aI19746
aI3165492
aI19784
aI19820
aI1068443
aI19868
aI3165602
aI19875
aI1051889
aI1068470
aI19907
aI544198
aI544219
aI221781
aI1068546
aI527617
aI544277
aI20003
aI20022
aI20029
aI282176
aI1068649
aI282229
aI637889
aI1855119
aI282266
aI20128
aI1330850
aI20161
aI282345
aI1593077
aI20225
aI20247
aI544537
aI806684
aI282398
aI20261
aI20277
aI20297
aI1068879
aI20322
aI20336
aI1331089
aI20394
aI20400
aI20402
aI1593272
aI1069002
aI20428
aI611714
aI20471
aI3018068
aI20481
aI1069068
aI3166238
aI282658
aI544819
aI282677
aI1331255
aI282693
aI282706
aI2642058
aI544915
aI282773
aI20630
aI20634
aI282783
aI20646
aI20654
aI20670
aI544963
aI544983
aI1882149
aI20713
aI20734
aI20763
aI2642204
aI20770
aI545061
aI20774
aI1593654
aI807231
aI282947
aI2642257
aI807255
aI282968
aI545127
aI20840
aI309308
aI20856
aI20860
aI20862
aI545199
aI20938
aI283084
aI2380253
aI1855968
aI20962
aI283114
aI20979
aI833622
aI1856006
aI21005
aI3501
aI21047
aI807480
aI283200
aI21062
aI1593962
aI21126
aI21133
aI21134
aI283311
aI283315
aI1331947
aI21234
aI21239
aI1314262
aI1956013
aI807699
aI283426
aI21294
aI21311
aI454049
aI21339
aI21348
aI283505
aI21368
aI545680
aI807828
aI21399
aI545701
aI21441
aI283615
aI1594337
aI21499
aI283647
aI283676
aI2380830
aI47281
aI545834
aI808019
aI21590
aI545890
aI808036
aI1332352
aI21640
aI21644
aI808091
aI545951
aI1332414
aI2381006
aI546016
aI1856738
aI21734
aI21755
aI546060
aI2044473
aI808237
aI1070399
aI309472
aI21838
aI546128
aI21849
aI21886
aI284035
aI21896
aI546188
aI2119053
aI546205
aI21925
aI21926
aI1594817
aI91042
aI1332690
aI21974
aI284126
aI1070591
aI1594890
aI808486
aI808498
aI22068
aI1594933
aI546358
aI22088
aI284236
aI546403
aI1594980
aI284263
aI1594992
aI2381453
aI22176
aI134772
aI808653
aI22227
aI22231
aI2643686
aI284393
aI808698
aI440621
aI1595165
aI1333025
aI1030770
aI2450403
aI149138
aI22364
aI1070957
aI1333103
aI694976
aI284538
aI808844
aI1333133
aI2119570
aI96766
aI22436
aI1333157
aI353267
aI22459
aI2663106
aI808940
aI22514
aI284685
aI1333292
aI284731
aI22595
aI546888
aI1139725
aI2644074
aI22656
aI134848
aI809107
aI809117
aI284830
aI284843
aI22704
aI546999
aI1595578
aI1071302
aI1314508
aI547020
aI547023
aI22769
aI22801
aI1071383
aI547122
aI22850
aI2906464
aI809314
aI22904
aI1071508
aI2382246
aI22979
aI22982
aI22992
aI285154
aI23030
aI23051
aI23056
aI23070
aI23072
aI309683
aI809528
aI809536
aI23118
aI285288
aI47550
aI1071757
aI23199
aI2906821
aI23249
aI1333975
aI1624376
aI23271
aI23275
aI23283
aI285465
aI23325
aI1071914
aI23354
aI1858369
aI23368
aI285550
aI23414
aI23424
aI23428
aI285587
aI23478
aI23486
aI23501
aI1596371
aI1072088
aI23528
aI1072135
aI23562
aI23589
aI23637
aI810077
aI47633
aI2382964
aI1596545
aI23691
aI23704
aI285850
aI285873
aI285878
aI810176
aI23760
aI23771
aI548073
aI285951
aI746710
aI23822
aI23883
aI23897
aI23903
aI1072484
aI548218
aI23934
aI810368
aI548225
aI2907532
aI2645442
aI286149
aI24028
aI24039
aI24046
aI24054
aI286204
aI1072647
aI24097
aI1334859
aI1072724
aI24184
aI548473
aI286335
aI4038
aI2383529
aI24243
aI286390
aI1072848
aI810706
aI810720
aI286449
aI286453
aI286459
aI24337
aI810773
aI548634
aI24364
aI810802
aI2451480
aI24390
aI24391
aI24396
aI24424
aI24443
aI1073023
aI810901
aI1073063
aI1335209
aI24545
aI1073129
aI811001
aI24582
aI286731
aI1859605
aI811047
aI548915
aI2908213
aI1859686
aI528405
aI549007
aI2121885
aI286881
aI2384046
aI1358536
aI24762
aI1859787
aI1073386
aI24815
aI24819
aI811293
aI811310
aI24879
aI1073494
aI1335709
aI287138
aI1335717
aI2646481
aI1073631
aI1335794
aI1597999
aI25141
aI287300
aI12388
aI1073748
aI1073758
aI549472
aI25194
aI2384497
aI25210
aI1598097
aI25234
aI811729
aI1860309
aI25308
aI2581969
aI25324
aI25330
aI2122484
aI25338
aI25343
aI549641
aI549643
aI2908941
aI1598228
aI287530
aI1598255
aI25398
aI1073995
aI811865
aI287586
aI123054
aI1074041
aI1074060
aI811918
aI25498
aI287643
aI25502
aI1074097
aI1598390
aI1860591
aI812018
aI287743
aI287783
aI1598523
aI25688
aI25704
aI812139
aI25713
aI25714
aI812149
aI25741
aI25812
aI287976
aI287984
aI25844
aI219087
aI812303
aI2060915
aI2385178
aI25891
aI25909
aI25949
aI353852
aI25981
aI550271
aI25990
aI25991
aI4332
aI550282
aI2123154
aI26004
aI26010
aI310170
aI550309
aI26039
aI288190
aI26056
aI26061
aI288222
aI26095
aI288247
aI26115
aI1371329
aI2863995
aI441266
aI1336881
aI550471
aI26188
aI288341
aI550514
aI288439
aI1337026
aI26334
aI1074929
aI288515
aI550664
aI266541
aI26387
aI812837
aI1337127
aI288568
aI26428
aI288573
aI812868
aI550738
aI26457
aI1152402
aI812912
aI26483
aI1075066
aI26496
aI26510
aI812948
aI288671
aI179189
aI813002
aI878246
aI550889
aI26609
aI1599479
aI1337338
aI26620
aI2648077
aI550966
aI26682
aI2385987
aI1337412
aI1861701
aI288875
aI26742
aI1599619
aI1075341
aI288915
aI813207
aI26778
aI26787
aI813240
aI26816
aI2124004
aI26859
aI1075445
aI2910492
aI26919
aI1009374
aI1126943
aI289086
aI26943
aI135566
aI1599860
aI27011
aI27020
aI289171
aI813471
aI1337771
aI27067
aI1599937
aI551406
aI551416
aI2910751
aI813618
aI27190
aI27198
aI27204
aI289354
aI354063
aI1337962
aI27247
aI289396
aI1075830
aI27308
aI289466
aI27349
aI27358
aI1075956
aI27385
aI2386700
aI27423
aI27439
aI1009459
aI27449
aI27474
aI289625
aI2648931
aI1862502
aI27507
aI813951
aI813957
aI27528
aI27535
aI27536
aI289684
aI551841
aI27563
aI27565
aI813999
aI2649012
aI27579
aI1338305
aI1076171
aI289746
aI551899
aI1338333
aI27615
aI1600482
aI27637
aI814074
aI27657
aI1076249
aI551967
aI289827
aI27708
aI27739
aI2911357
aI814206
aI1795947
aI27789
aI1053208
aI1338535
aI1862828
aI814253
aI1600692
aI289995
aI814304
aI290028
aI1076463
aI1076480
aI27905
aI290050
aI27929
aI290085
aI1600844
aI28002
aI552301
aI290187
aI28053
aI552347
aI1076640
aI18393
aI2125241
aI290254
aI2649570
aI814580
aI572670
aI552438
aI814601
aI552469
aI28190
aI1338915
aI814628
aI1076786
aI552521
aI552525
aI552553
aI814702
aI28278
aI290425
aI1601150
aI1076906
aI1863377
aI2387673
aI28380
aI28401
aI552712
aI290570
aI28465
aI552759
aI1601336
aI28482
aI290629
aI552782
aI552792
aI1339229
aI2649963
aI1339257
aI28557
aI2125720
aI1077177
aI28604
aI1863627
aI290769
aI815086
aI290799
aI310613
aI552995
aI1339429
aI290863
aI1601606
aI1140748
aI1077325
aI1339473
aI28760
aI1601662
aI28804
aI2125973
aI28841
aI290988
aI2126023
aI28875
aI1339620
aI553209
aI291108
aI815409
aI553279
aI266978
aI553308
aI291180
aI1339772
aI29068
aI1665095
aI291244
aI1077680
aI29110
aI553404
aI1077695
aI625189
aI2912717
aI815566
aI1097125
aI29157
aI1864167
aI29173
aI29192
aI267010
aI553524
aI1339987
aI815724
aI815737
aI223339
aI815787
aI2126510
aI1602230
aI291538
aI815837
aI291550
aI4901
aI29429
aI1340160
aI2126615
aI1602343
aI2913064
aI1078068
aI815977
aI291737
aI291741
aI1864610
aI2126755
aI1340329
aI29620
aI29639
aI291827
aI616618
aI2126854
aI29704
aI554002
aI1602587
aI29734
aI291907
aI29771
aI29798
aI1078381
aI29809
aI1078390
aI1078487
aI2670116
aI1272885
aI816374
aI966185
aI2127103
aI48684
aI1864976
aI554279
aI29995
aI30018
aI485608
aI1865077
aI292219
aI1865109
aI554397
aI816542
aI554431
aI1140983
aI554460
aI616700
aI816620
aI1340910
aI292352
aI30225
aI30231
aI554546
aI2389557
aI30280
aI1341006
aI30297
aI2651741
aI1078883
aI30316
aI267197
aI292477
aI30354
aI2127508
aI292502
aI554670
aI30412
aI30453
aI292662
aI1079103
aI1228429
aI30547
aI1865583
aI292728
aI1341308
aI554887
aI1403208
aI179878
aI554988
aI1079291
aI1446916
aI555045
aI555053
aI555065
aI1079354
aI2390083
aI30807
aI30812
aI891391
aI293048
aI555220
aI555221
aI2652394
aI817399
aI293123
aI293147
aI529459
aI31044
aI1341806
aI1603952
aI817543
aI31118
aI31141
aI31158
aI31172
aI2128327
aI293330
aI179962
aI555553
aI555576
aI293436
aI293439
aI1079877
aI555605
aI1079901
aI179984
aI2390644
aI293511
aI31379
aI2390685
aI1342121
aI1866427
aI1342154
aI192247
aI31480
aI293627
aI31506
aI2915099
aI1080093
aI817964
aI293686
aI31563
aI1866584
aI1866587
aI1534437
aI1080166
aI2128755
aI31610
aI31615
aI555929
aI818091
aI31671
aI1866733
aI2653187
aI31751
aI2653222
aI293933
aI1866804
aI1342525
aI31818
aI31828
aI1080405
aI315306
aI294000
aI31884
aI31899
aI818352
aI1866939
aI1080523
aI1342730
aI32015
aI2391315
aI32043
aI1080633
aI32090
aI1080679
aI294248
aI818557
aI1301697
aI32142
aI485957
aI294317
aI32174
aI5363
aI32188
aI1080793
aI32232
aI818674
aI32247
aI402610
aI1342984
aI442284
aI556562
aI32290
aI2915897
aI556613
aI556617
aI556632
aI1343096
aI556672
aI818824
aI1080996
aI1343161
aI556730
aI32453
aI556751
aI2916086
aI1081110
aI1867549
aI556855
aI294738
aI556919
aI32632
aI2654083
aI294789
aI5445
aI1537399
aI556975
aI32704
aI819151
aI1081340
aI294918
aI32775
aI2129937
aI557091
aI32812
aI88383
aI557117
aI32834
aI1598508
aI295004
aI557179
aI2654334
aI32899
aI819355
aI819367
aI2392258
aI32965
aI295118
aI219324
aI33006
aI295199
aI557363
aI3178834
aI295264
aI33121
aI442433
aI33165
aI557470
aI295339
aI1343916
aI1868207
aI33203
aI557500
aI33213
aI33229
aI819662
aI33252
aI1868262
aI2392564
aI2015318
aI1344008
aI557597
aI819742
aI92937
aI33358
aI557664
aI295525
aI2801774
aI33433
aI1868455
aI33459
aI557771
aI1606378
aI557826
aI1868587
aI33611
aI33622
aI33624
aI33630
aI295783
aI295797
aI820127
aI573595
aI557995
aI33708
aI820142
aI1082300
aI33732
aI385202
aI1606632
aI558079
aI33833
aI295981
aI1082449
aI33888
aI1082476
aI296051
aI820345
aI558236
aI296108
aI1578531
aI34009
aI820443
aI1344765
aI34065
aI2917653
aI34088
aI34102
aI49376
aI311525
aI558433
aI34148
aI1082734
aI34161
aI296328
aI1607051
aI1869209
aI34211
aI2393509
aI34218
aI34240
aI355232
aI558546
aI296433
aI558592
aI296452
aI2277645
aI34397
aI2655846
aI2427819
aI558727
aI1083026
aI558751
aI1231943
aI34509
aI398968
aI34553
aI1345309
aI821110
aI296828
aI296878
aI1054370
aI34768
aI1272824
aI821202
aI559070
aI49489
aI34796
aI34806
aI559095
aI1345535
aI2656275
aI1869846
aI1083423
aI559144
aI821306
aI559185
aI34935
aI1083524
aI2656394
aI34956
aI1869968
aI2656425
aI1258147
aI1083581
aI35014
aI3020494
aI35060
aI821497
aI35070
aI1083652
aI559379
aI35092
aI559397
aI559415
aI559426
aI35142
aI486455
aI35148
aI1870173
aI821657
aI35227
aI2394533
aI1870262
aI1083843
aI821722
aI35306
aI35322
aI2365185
aI297484
aI1083921
aI821786
aI1870369
aI35364
aI2656811
aI1083951
aI1346104
aI1346113
aI1083981
aI35407
aI1346155
aI35440
aI486504
aI821894
aI1346207
aI617584
aI2132642
aI1084078
aI1870555
aI297696
aI559850
aI355461
aI297762
aI1084204
aI1870638
aI297776
aI35634
aI1346369
aI617617
aI297841
aI297847
aI180719
aI297907
aI1608643
aI1084364
aI1608660
aI1084437
aI180740
aI298014
aI298029
aI35894
aI822327
aI1870904
aI1730324
aI1084563
aI560302
aI1084608
aI36071
aI298225
aI36093
aI298278
aI560435
aI1609017
aI822588
aI874108
aI1084764
aI1871207
aI1871216
aI1084788
aI1871241
aI1084813
aI298389
aI1273073
aI298455
aI560600
aI36316
aI311890
aI298479
aI1609201
aI298522
aI2919965
aI2919971
aI1871404
aI36397
aI2657847
aI1609285
aI298573
aI298575
aI36457
aI1085048
aI36474
aI1085064
aI1347215
aI36498
aI879899
aI298661
aI36537
aI298689
aI1347281
aI2714915
aI36565
aI2920151
aI298727
aI2658050
aI36611
aI560902
aI560934
aI2395943
aI210719
aI1085285
aI36710
aI36723
aI298870
aI2658173
aI2920343
aI1871769
aI2658202
aI1040740
aI2015912
aI1085440
aI36896
aI1085483
aI823352
aI36924
aI1871933
aI823393
aI299122
aI561285
aI37020
aI37055
aI299204
aI1085699
aI1085703
aI2396432
aI2396454
aI836318
aI6198
aI37190
aI37193
aI1405614
aI37213
aI37231
aI2396539
aI1347968
aI1085861
aI823729
aI37298
aI1610172
aI2396624
aI1085958
aI561690
aI2658854
aI2396712
aI561731
aI1086020
aI93623
aI2134604
aI1348195
aI823915
aI1086076
aI823963
aI37548
aI823991
aI37575
aI1610459
aI617941
aI299787
aI1348379
aI880096
aI561990
aI1086295
aI705339
aI2659194
aI37776
aI299924
aI37785
aI749041
aI2397123
aI1348550
aI37843
aI37856
aI300037
aI507546
aI2135051
aI300053
aI1872962
aI824391
aI1086540
aI562258
aI1872981
aI1086552
aI909085
aI38031
aI1348753
aI2135191
aI300188
aI38055
aI300204
aI1348782
aI300236
aI562388
aI300248
aI300257
aI1610986
aI300311
aI562459
aI300327
aI1611055
aI562483
aI38206
aI38207
aI562497
aI300359
aI38226
aI38231
aI1611124
aI38264
aI2659716
aI824712
aI1086871
aI1611160
aI38333
aI1086930
aI562644
aI1873365
aI38368
aI300538
aI6400
aI2397701
aI562699
aI38426
aI562721
aI355931
aI562743
aI38466
aI562769
aI824914
aI2659972
aI312260
aI824987
aI2660000
aI1611444
aI300732
aI1349315
aI1349334
aI825050
aI1611539
aI562970
aI6449
aI1611568
aI1087294
aI300886
aI487062
aI181228
aI2922388
aI2660283
aI6475
aI1873880
aI301023
aI1087469
aI38896
aI1087479
aI1611791
aI563221
aI825369
aI1623046
aI38971
aI825411
aI2660424
aI301153
aI2660452
aI705553
aI1611881
aI563306
aI563323
aI39036
aI2660489
aI2059970
aI39057
aI39062
aI2398375
aI1611957
aI39106
aI50214
aI1087718
aI2398457
aI1011414
aI2660679
aI39242
aI563535
aI563545
aI39261
aI39268
aI1087848
aI120163
aI39371
aI2660820
aI301525
aI563673
aI301549
aI563694
aI39430
aI563735
aI2136603
aI301607
aI93960
aI1612355
aI301650
aI2398860
aI93979
aI2398886
aI1088172
aI563890
aI2136767
aI563904
aI39622
aI1874643
aI2136795
aI2136806
aI2136812
aI301816
aI2661118
aI301832
aI39693
aI301883
aI39808
aI39809
aI2661290
aI564145
aI564157
aI6645
aI181412
aI39946
aI39975
aI302139
aI39998
aI40013
aI1350740
aI1350762
aI40064
aI40066
aI826514
aI826532
aI2137269
aI1350869
aI564444
aI564449
aI1350899
aI302328
aI306855
aI40214
aI826657
aI1875236
aI302387
aI2661700
aI1350983
aI1088846
aI826714
aI1613162
aI40310
aI40342
aI40347
aI1613216
aI302517
aI1875384
aI1875393
aI6742
aI2924047
aI826898
aI836868
aI1089062
aI40516
aI1747158
aI2399852
aI40581
aI564875
aI40615
aI1351347
aI827060
aI874257
aI827110
aI1089258
aI302831
aI1055362
aI2016562
aI302916
aI1273830
aI40822
aI1875850
aI2662285
aI302994
aI1351600
aI1351621
aI836941
aI137893
aI40933
aI218497
aI40945
aI40970
aI40976
aI1613867
aI41012
aI565302
aI41039
aI827480
aI2662489
aI565342
aI41071
aI303270
aI312691
aI1876206
aI827644
aI303363
aI1089811
aI41241
aI41283
aI41292
aI225341
aI1352057
aI1614217
aI41360
aI123584
aI1614244
aI1352127
aI2138562
aI1089987
aI303559
aI1089998
aI41423
aI2400740
aI1614316
aI303598
aI41455
aI827927
aI1090079
aI303698
aI41576
aI1090159
aI1090166
aI303756
aI41619
aI828060
aI1876644
aI303783
aI828077
aI41655
aI41661
aI303810
aI41679
aI1614599
aI1614606
aI41747
aI41754
aI828193
aI41782
aI303939
aI566092
aI1352530
aI1090406
aI1876839
aI41861
aI566158
aI41871
aI2401173
aI304024
aI2663340
aI2409970
aI1424229
aI41939
aI94379
aI304151
aI304179
aI181772
aI42059
aI42098
aI42126
aI304285
aI828584
aI304311
aI304319
aI304330
aI828625
aI42198
aI1011919
aI304364
aI1615086
aI566530
aI1877296
aI1353011
aI828728
aI312884
aI42303
aI42304
aI42344
aI42404
aI356594
aI828867
aI1091025
aI304617
aI828918
aI1353223
aI50776
aI1353243
aI304673
aI42540
aI2663985
aI304690
aI2139708
aI42585
aI2926198
aI304778
aI42645
aI1353394
aI829133
aI706171
aI7122
aI829188
aI2664200
aI42769
aI575111
aI829258
aI1319512
aI42902
aI2664350
aI2664391
aI567249
aI42962
aI305116
aI829407
aI42994
aI305142
aI1353722
aI1878060
aI94557
aI567390
aI829553
aI567420
aI829571
aI1448983
aI305320
aI43217
aI305364
aI2191746
aI567576
aI829755
aI2140489
aI43356
aI567650
aI43365
aI305552
aI43452
aI1878494
aI829928
aI829941
aI1878522
aI1354251
aI2927151
aI43575
aI567864
aI1616443
aI43582
aI43585
aI830041
aI43662
aI43665
aI43671
aI43677
aI43681
aI2403009
aI7295
aI43786
aI43796
aI43814
aI313137
aI305973
aI2738957
aI43850
aI43864
aI1354590
aI1092450
aI306030
aI306042
aI43901
aI1878918
aI306060
aI1092498
aI1878943
aI568254
aI568260
aI182094
aI356857
aI830439
aI568355
aI2141229
aI44089
aI568393
aI306253
aI619021
aI568406
aI44124
aI306276
aI1092737
aI568508
aI2279285
aI2665667
aI830663
aI2665674
aI306380
aI1099643
aI306405
aI44289
aI481572
aI44330
aI306488
aI568635
aI44355
aI1092945
aI568664
aI1879395
aI44389
aI1617265
aI44434
aI830880
aI2665890
aI306602
aI376829
aI1617325
aI306643
aI1355221
aI44522
aI44523
aI830964
aI44562
aI306739
aI306753
aI44615
aI44620
aI575421
aI1623999
aI2403994
aI44700
aI831145
aI44729
aI44737
aI44743
aI306893
aI44757
aI569050
aI569076
aI569106
aI44852
aI44853
aI831314
aI2404181
aI856942
aI1093528
aI44963
aI569302
aI1355777
aI831507
aI45077
aI45108
aI307255
aI45112
aI831564
aI1093710
aI307295
aI45176
aI45204
aI569505
aI45226
aI831684
aI1618135
aI45318
aI1618189
aI1356047
aI1356062
aI45390
aI1356124
aI1880431
aI106261
aI307585
aI45507
aI45525
aI569814
aI307703
aI2235818
aI832000
aI1094149
aI569885
aI114996
aI307767
aI1094209
aI307795
aI1356382
aI45664
aI45668
aI45679
aI1356423
aI832174
aI45745
aI45756
aI45773
aI1012518
aI1880810
aI1094403
aI570120
aI307990
aI1094430
aI59499
aI45914
aI45935
aI570224
aI1618817
aI45963
aI1356709
aI570291
aI1618885
aI706724
aI308189
aI706727
aI308219
aI575659
aI832527
aI968878
aI357213
aI1619004
aI1356883
aI1356973
aI570584
aI1357017
aI46329
aI308474
aI832776
aI46375
aI46395
aI570692
aI46430
aI95122
aI2405757
aI832894
aI570767
aI1095089
aI308661
aI46527
aI1619462
aI833031
aI570930
aI1100043
aI2668136
aI2143857
aI571007
aI308930
aI3192519
aI1095394
aI571113
aI2668274
aI1095451
aI1095452
aI1095468
aI571189
aI833336
aI571217
aI571271
aI961759
aI46991
aI1357733
aI226295
aI1948143
aI1449636
aI1357811
aI47110
aI1882121
aI309259
aI571407
aI833573
aI571433
aI47161
aI2742489
aI571452
aI47190
aI2930795
aI833647
aI1095795
aI2144390
aI309412
aI571563
aI1075247
aI1267286
aI51577
aI571616
aI309483
aI47351
aI571648
aI47361
aI47402
aI833844
aI1363310
aI1882464
aI47461
aI47493
aI571787
aI47508
aI1882525
aI47527
aI47529
aI1096117
aI47552
aI794368
aI571907
aI51633
aI1358430
aI47724
aI2192494
aI750703
aI47773
aI1406067
aI309946
aI1620671
aI834261
aI572129
aI834316
aI47886
aI310068
aI834362
aI310092
aI47961
aI1275025
aI47984
aI834424
aI1358722
aI1267768
aI1358761
aI48048
aI48062
aI1620937
aI48082
aI717383
aI1231359
aI2145295
aI310297
aI572463
aI48181
aI1358925
aI834644
aI488635
aI48234
aI1096831
aI1014176
aI48310
aI310455
aI48340
aI572635
aI572644
aI1621233
aI48387
aI48402
aI48405
aI310574
aI310626
aI310630
aI48495
aI48503
aI835000
aI310731
aI1359320
aI48611
aI2145769
aI835058
aI2407931
aI3194369
aI572939
aI2148953
aI1359391
aI310816
aI310832
aI310852
aI48725
aI2670177
aI573032
aI573057
aI48773
aI2408112
aI310971
aI1563269
aI48839
aI51831
aI835281
aI270287
aI573149
aI573153
aI48869
aI835348
aI573215
aI48933
aI1886855
aI1621821
aI576139
aI573261
aI1097599
aI1097600
aI573314
aI1097634
aI263505
aI619852
aI49107
aI1145140
aI835573
aI49153
aI311304
aI1359923
aI49209
aI1097800
aI270349
aI49246
aI1622128
aI311440
aI311455
aI573619
aI311483
aI2670792
aI1360074
aI835805
aI835806
aI1622239
aI3195113
aI311534
aI835883
aI2670892
aI750987
aI311624
aI183013
aI49505
aI1098090
aI311660
aI2670966
aI1884549
aI49548
aI49553
aI49573
aI2716383
aI49604
aI314104
aI1622493
aI311777
aI49642
aI49643
aI49713
aI969483
aI49746
aI836214
aI836215
aI1098361
aI49786
aI2146945
aI2409095
aI1098379
aI49804
aI2629741
aI311966
aI1622717
aI1098437
aI312025
aI312026
aI95699
aI49922
aI1360646
aI49942
aI2933541
aI574263
aI1360732
aI312161
aI1098603
aI312172
aI1622894
aI836487
aI50079
aI1360803
aI2409393
aI50109
aI50131
aI1360888
aI1098758
aI574479
aI836664
aI8373
aI50240
aI2671684
aI50262
aI312407
aI50272
aI1361000
aI620053
aI836738
aI3110424
aI925891
aI2147481
aI312480
aI574630
aI52087
aI1885392
aI50388
aI50394
aI836850
aI312594
aI1099045
aI50476
aI312627
aI574801
aI1099093
aI638902
aI574815
aI50543
aI50552
aI50570
aI1885587
aI1099168
aI312743
aI50603
aI1013322
aI882251
aI574927
aI574932
aI226895
aI3013206
aI2147846
aI837154
aI50742
aI50750
aI16050
aI1099339
aI312958
aI2147970
aI95851
aI50820
aI52162
aI1887174
aI50866
aI837324
aI313042
aI50902
aI313063
aI1099503
aI2672373
aI50979
aI1886012
aI313205
aI1361787
aI575376
aI313244
aI2148281
aI2148284
aI139595
aI51162
aI51167
aI575458
aI1624035
aI51197
aI51230
aI575520
aI313400
aI51260
aI837703
aI51280
aI837722
aI51292
aI313447
aI2934902
aI1362043
aI575615
aI1362049
aI1624202
aI51382
aI1494048
aI51402
aI2410709
aI837847
aI1625124
aI575751
aI1886501
aI1100081
aI882403
aI2018361
aI1100135
aI51560
aI313781
aI2411594
aI1624551
aI1100279
aI1100282
aI838151
aI313870
aI508007
aI838180
aI51760
aI2148913
aI51782
aI51789
aI313969
aI576119
aI1362571
aI2673306
aI314015
aI2935464
aI1624763
aI830988
aI576238
aI576242
aI2149111
aI1100552
aI51986
aI2673433
aI838434
aI1887013
aI620338
aI1362735
aI52055
aI52070
aI314215
aI576369
aI52095
aI1362816
aI227140
aI576418
aI314290
aI314291
aI2935754
aI52175
aI52201
aI52233
aI576549
aI52273
aI2149440
aI1100874
aI314488
aI1100940
aI52374
aI2149548
aI838841
aI838862
aI52443
aI707795
aI576758
aI576766
aI838912
aI1372207
aI1101070
aI576794
aI1101083
aI52534
aI838975
aI838976
aI52551
aI52563
aI52573
aI52598
aI314763
aI52626
aI839086
aI1537949
aI576954
aI576975
aI1494265
aI839128
aI2411994
aI314862
aI52721
aI52738
aI314897
aI1101332
aI1537967
aI577062
aI621923
aI52888
aI2150044
aI577181
aI52954
aI1625820
aI315129
aI839428
aI1101579
aI53009
aI53013
aI402053
aI577334
aI53069
aI227299
aI53078
aI839527
aI53114
aI1101692
aI53120
aI839554
aI577423
aI53136
aI53139
aI350931
aI577450
aI1625415
aI839601
aI1538036
aI53183
aI577485
aI839646
aI315364
aI839689
aI53276
aI315421
aI53300
aI315462
aI53321
aI53328
aI53369
aI53420
aI1888440
aI53444
aI839889
aI1102056
aI53481
aI53495
aI315642
aI53501
aI577812
aI1102109
aI53538
aI53543
aI1364326
aI840055
aI53658
aI840112
aI1102262
aI1102300
aI53744
aI385868
aI53771
aI315935
aI578116
aI315988
aI53897
aI840333
aI2413207
aI53949
aI578244
aI53963
aI840441
aI1626878
aI54017
aI578318
aI54035
aI1102629
aI316238
aI2151298
aI1102741
aI1889184
aI2151351
aI54200
aI726315
aI2675669
aI2675678
aI52734
aI2151446
aI578602
aI578615
aI1889351
aI54356
aI840802
aI54376
aI54396
aI578700
aI113839
aI54426
aI578745
aI578746
aI54504
aI54506
aI840960
aI1103189
aI316785
aI841108
aI54684
aI9122
aI54734
aI1627599
aI54736
aI54742
aI841176
aI1889762
aI2151929
aI579078
aI54806
aI579115
aI664498
aI1627730
aI317052
aI54929
aI579240
aI1103530
aI1889970
aI489765
aI1103589
aI2106321
aI3200756
aI1627904
aI1188826
aI1103682
aI2936460
aI1103702
aI841573
aI55159
aI1628038
aI1365913
aI841632
aI1365967
aI2414556
aI841711
aI55284
aI579580
aI1103872
aI579590
aI55315
aI113845
aI55334
aI841828
aI2676852
aI2939000
aI2969719
aI579718
aI1366169
aI55452
aI317605
aI227698
aI841915
aI579777
aI1628375
aI841959
aI579828
aI1890567
aI317760
aI842056
aI55637
aI1366360
aI579974
aI2677158
aI1366439
aI1366455
aI1366471
aI55774
aI842210
aI55787
aI55794
aI55808
aI55847
aI580147
aI55870
aI580178
aI2415194
aI580197
aI318054
aI55913
aI55925
aI2677386
aI80425
aI1104582
aI318174
aI56039
aI56044
aI56076
aI1891112
aI227804
aI580412
aI1104727
aI580477
aI1891219
aI842658
aI56242
aI1366973
aI580552
aI580556
aI56280
aI56285
aI1104885
aI842744
aI1104902
aI2153495
aI318493
aI842788
aI318508
aI1354879
aI2415755
aI56470
aI56479
aI3118148
aI580796
aI1367229
aI1913542
aI1629397
aI56555
aI1891581
aI2150274
aI318749
aI318758
aI795870
aI1105221
aI843093
aI1629527
aI843114
aI9450
aI581041
aI1983382
aI318921
aI318938
aI581135
aI255036
aI56880
aI1629749
aI843318
aI319058
aI581205
aI2416228
aI319149
aI843440
aI2416313
aI57120
aI1105721
aI1892179
aI1105759
aI57191
aI57217
aI1630096
aI1105809
aI402755
aI581528
aI2416538
aI1892259
aI843684
aI319403
aI843784
aI843804
aI57423
aI57428
aI57448
aI1630327
aI319618
aI843943
aI1368271
aI581845
aI57588
aI319741
aI319773
aI319799
aI2154826
aI57686
aI57695
aI581994
aI57719
aI319876
aI319878
aI1106317
aI844177
aI2417043
aI57752
aI319905
aI319906
aI778808
aI2417065
aI796064
aI1892802
aI319952
aI57827
aI57847
aI1878670
aI1368582
aI320007
aI57907
aI320111
aI844416
aI1368721
aI402884
aI2941604
aI582320
aI320180
aI58061
aI58074
aI320220
aI58082
aI58099
aI2587435
aI320299
aI839829
aI2155396
aI1631124
aI2417557
aI582571
aI228171
aI844759
aI1631193
aI582675
aI271877
aI844882
aI2155605
aI271887
aI19405
aI1369222
aI1631379
aI1369246
aI58530
aI3204264
aI58549
aI1107129
aI320700
aI320726
aI320761
aI1631483
aI1369350
aI402989
aI845092
aI582963
aI845128
aI2155859
aI1107296
aI58733
aI1107317
aI1631616
aI1893766
aI1369495
aI2762311
aI58808
aI58811
aI1888503
aI1107413
aI845279
aI58880
aI271959
aI1107483
aI1369633
aI321061
aI58956
aI1107536
aI845414
aI583274
aI58991
aI58997
aI59009
aI1369752
aI1369754
aI446747
aI315677
aI583344
aI59058
aI971042
aI59087
aI2156269
aI271999
aI845607
aI1632043
aI1713801
aI1894204
aI140938
aI845631
aI321356
aI1369940
aI1107801
aI1632100
aI1369991
aI1369992
aI59279
aI1107856
aI1107860
aI59301
aI583592
aI59318
aI321468
aI59325
aI59352
aI321505
aI839965
aI621567
aI1370112
aI315734
aI1370130
aI845849
aI1107999
aI1108032
aI2418764
aI59470
aI1632341
aI59501
aI321697
aI59557
aI59561
aI59572
aI9931
aI321734
aI1632462
aI59604
aI321772
aI1370349
aI59634
aI1108213
aI2681109
aI1894684
aI583980
aI59704
aI321862
aI846180
aI846185
aI59768
aI2156923
aI272109
aI2456647
aI846264
aI59869
aI1894927
aI1320710
aI59947
aI846389
aI846402
aI584260
aI60020
aI846476
aI2157240
aI1632958
aI60096
aI584388
aI60114
aI60127
aI584420
aI60188
aI60201
aI1895219
aI60234
aI1633105
aI1633117
aI60261
aI1108890
aI1108902
aI846761
aI60381
aI584670
aI584676
aI1633277
aI1633305
aI60462
aI60518
aI846977
aI322691
aI584862
aI322722
aI322727
aI60593
aI2157772
aI847064
aI1109234
aI1888810
aI60682
aI2850007
aI141186
aI60698
aI60711
aI322866
aI1109309
aI578101
aI60761
aI322939
aI847269
aI1109425
aI585185
aI847333
aI847363
aI1109519
aI60956
aI323105
aI2158161
aI61027
aI847464
aI2158217
aI847501
aI752920
aI585388
aI847553
aI585411
aI1371853
aI1633998
aI847575
aI1896169
aI61164
aI847626
aI1109800
aI316041
aI323404
aI45685
aI323421
aI2420599
aI323454
aI585602
aI1712934
aI61332
aI585637
aI847818
aI61395
aI847853
aI97627
aI61479
aI1896495
aI323653
aI323655
aI61530
aI585819
aI1015144
aI97641
aI1634434
aI61572
aI61574
aI61624
aI585913
aI323807
aI61673
aI61679
aI61700
aI1110291
aI323871
aI586086
aI1146259
aI1634695
aI2683275
aI586134
aI61848
aI61855
aI10311
aI1896893
aI2159055
aI394868
aI61915
aI61938
aI1896954
aI1372671
aI586240
aI62002
aI324152
aI62032
aI1372772
aI62082
aI586399
aI1110688
aI62131
aI586424
aI1372866
aI62162
aI2981326
aI62195
aI62201
aI62237
aI62288
aI1897334
aI62344
aI1110928
aI62365
aI324531
aI586682
aI1373116
aI848833
aI1897423
aI324584
aI586731
aI586748
aI1897470
aI62479
aI324625
aI1111081
aI848978
aI586836
aI1111130
aI586848
aI62576
aI586873
aI586880
aI62608
aI62610
aI62638
aI849078
aI62667
aI1111253
aI491044
aI1373419
aI1373425
aI324851
aI1111284
aI324857
aI62720
aI587012
aI587021
aI324888
aI403682
aI849256
aI62848
aI1791546
aI1373572
aI2684301
aI2160028
aI1364896
aI62917
aI2684359
aI1897935
aI587220
aI62970
aI325117
aI62985
aI1373711
aI2160152
aI325152
aI63009
aI63013
aI587318
aI63034
aI1898054
aI63074
aI1364923
aI587365
aI1111674
aI587406
aI63155
aI2422457
aI325324
aI63189
aI849632
aI63225
aI167958
aI190713
aI1373996
aI587574
aI63293
aI325452
aI63309
aI1583422
aI587642
aI63369
aI63379
aI63383
aI63386
aI63436
aI1112042
aI63471
aI2588329
aI2422776
aI849939
aI587803
aI2684977
aI1374260
aI1374311
aI587884
aI325742
aI63678
aI1374416
aI797049
aI850138
aI2685161
aI185385
aI325886
aI63743
aI325923
aI588077
aI1898811
aI753377
aI1636680
aI1112402
aI1539819
aI850326
aI2423205
aI1112503
aI2685386
aI850379
aI1374673
aI1374678
aI326120
aI1374704
aI63991
aI2947592
aI64044
aI326206
aI272824
aI850526
aI64095
aI850593
aI1637033
aI64174
aI588476
aI64217
aI1625740
aI64238
aI588532
aI64273
aI1112856
aI64287
aI64301
aI1112882
aI64313
aI1375049
aI64331
aI2423658
aI64376
aI1112963
aI850833
aI2675866
aI64421
aI1637308
aI588734
aI588763
aI588773
aI1375217
aI64505
aI1583616
aI1375246
aI851029
aI1113196
aI622440
aI1899635
aI588916
aI326807
aI326820
aI1637543
aI326838
aI971078
aI272929
aI1899721
aI1637585
aI64767
aI2161924
aI2161954
aI1113392
aI64824
aI64833
aI851273
aI589132
aI64852
aI327011
aI327038
aI64904
aI1113486
aI1113510
aI1113542
aI64967
aI589259
aI589268
aI851432
aI589302
aI936173
aI851491
aI65070
aI851514
aI65092
aI589395
aI65133
aI1113715
aI327301
aI10861
aI851602
aI2948765
aI65192
aI1113772
aI19629
aI65210
aI65223
aI589517
aI65230
aI327402
aI327426
aI65295
aI65299
aI2424620
aI327491
aI65358
aI851811
aI65387
aI1900417
aI65412
aI327563
aI1802221
aI1376167
aI65458
aI2686899
aI316745
aI65464
aI851914
aI327679
aI1114171
aI2424896
aI589924
aI65649
aI65696
aI2424999
aI499744
aI590042
aI1114338
aI1114345
aI1114386
aI2425124
aI852274
aI65845
aI65863
aI65864
aI65868
aI1638739
aI1583851
aI316825
aI65967
aI1114575
aI590335
aI328193
aI2687547
aI852548
aI328275
aI328304
aI852604
aI1114749
aI1114766
aI66207
aI2425513
aI590574
aI1639158
aI328445
aI2425606
aI328475
aI1114913
aI66372
aI1377101
aI590689
aI66416
aI1639291
aI66451
aI66516
aI54777
aI852971
aI1115122
aI590840
aI2425857
aI66575
aI2688027
aI2414089
aI1377342
aI66654
aI66686
aI66692
aI328862
aI66722
aI1639625
aI591057
aI2163927
aI2326741
aI328982
aI329028
aI1901896
aI329034
aI591182
aI329082
aI1540330
aI591234
aI329091
aI2164109
aI1115554
aI1377715
aI1902010
aI2062285
aI67063
aI591413
aI1377866
aI67153
aI853599
aI591495
aI1671448
aI67225
aI1377979
aI329407
aI329408
aI1902288
aI885028
aI2164447
aI591593
aI229672
aI329496
aI1889928
aI1378106
aI67392
aI67407
aI329567
aI11238
aI67476
aI255389
aI329637
aI329660
aI67521
aI67566
aI67579
aI1224316
aI67598
aI67604
aI67606
aI1640490
aI329776
aI329781
aI1378388
aI592015
aI592025
aI1116354
aI67796
aI329954
aI1116391
aI1378549
aI329993
aI2326914
aI592144
aI330013
aI1902886
aI592182
aI330057
aI67927
aI592228
aI67945
aI854386
aI2165134
aI2427291
aI330184
aI2427349
aI68063
aI1378784
aI10996
aI68105
aI754097
aI330280
aI854577
aI68150
aI1116739
aI854600
aI2951754
aI68172
aI1378963
aI1116836
aI1802697
aI68283
aI2165447
aI68296
aI2427596
aI330445
aI330457
aI854754
aI28388
aI55093
aI592704
aI330565
aI592746
aI68473
aI1117063
aI592786
aI330644
aI1641381
aI1379242
aI68524
aI1903534
aI1117127
aI1117132
aI1379286
aI972624
aI592882
aI68612
aI1103704
aI218665
aI613319
aI68716
aI593010
aI68725
aI330913
aI1117347
aI68805
aI68822
aI1117415
aI1903849
aI1117429
aI855303
aI68877
aI1379599
aI2952464
aI593172
aI972676
aI331052
aI331062
aI1379657
aI68939
aI68969
aI855421
aI1904000
aI331137
aI1379732
aI1904024
aI69022
aI2166181
aI69051
aI855503
aI1379803
aI1117668
aI331246
aI1311659
aI855636
aI1642079
aI855654
aI69224
aI593533
aI855680
aI69258
aI1365960
aI2053632
aI1380032
aI69340
aI237993
aI2952930
aI69352
aI331515
aI331534
aI855844
aI593709
aI69442
aI1642332
aI69471
aI331618
aI855924
aI1904517
aI855951
aI2953117
aI69572
aI1617189
aI331747
aI856047
aI69636
aI2166798
aI1904696
aI69689
aI2953344
aI69783
aI69802
aI69803
aI69809
aI885453
aI2502012
aI1118447
aI69875
aI332026
aI594183
aI594200
aI1497139
aI2429241
aI1904979
aI1118559
aI1380723
aI1905015
aI2691453
aI70020
aI856459
aI1380752
aI332210
aI332248
aI594406
aI491036
aI70173
aI332324
aI1380918
aI361230
aI1380976
aI70288
aI1118919
aI1381093
aI2167531
aI332531
aI70393
aI1118996
aI1643319
aI70465
aI1381216
aI1119073
aI2167655
aI594793
aI332738
aI70604
aI710818
aI70616
aI70625
aI594935
aI2954288
aI2430030
aI332893
aI332897
aI70755
aI361319
aI595072
aI1643676
aI1119400
aI1643711
aI1643741
aI1381628
aI2954509
aI1977903
aI857401
aI71009
aI595305
aI71034
aI1381767
aI71050
aI1119627
aI71074
aI71109
aI71141
aI857580
aI71159
aI1063664
aI2458544
aI1119778
aI71208
aI333361
aI1644096
aI2692688
aI2954878
aI71343
aI1644211
aI71354
aI71399
aI710951
aI333553
aI71410
aI71420
aI1906491
aI1644401
aI857987
aI857994
aI1644440
aI1382300
aI1120221
aI333842
aI1382435
aI2168879
aI1644596
aI2431151
aI1382577
aI71883
aI596200
aI858366
aI1617269
aI2169150
aI1907026
aI2431349
aI334209
aI1382791
aI1907083
aI334274
aI334279
aI2589776
aI596465
aI596492
aI1120792
aI1120799
aI334485
aI334519
aI2431702
aI2603665
aI2955996
aI536358
aI596720
aI334582
aI1148035
aI72471
aI1645339
aI72478
aI596781
aI858926
aI72508
aI596808
aI1235426
aI596816
aI2169693
aI334807
aI72668
aI1121249
aI334831
aI334862
aI1121302
aI2432086
aI72810
aI973339
aI859314
aI1907906
aI580131
aI859355
aI1645832
aI72985
aI73019
aI73046
aI1121633
aI859518
aI1121668
aI597408
aI73148
aI1908164
aI859596
aI2956778
aI1121804
aI859678
aI597548
aI73274
aI335423
aI335439
aI73297
aI1121883
aI1060794
aI859762
aI597624
aI1384074
aI1646222
aI597657
aI73371
aI1646283
aI73446
aI335606
aI1122039
aI73479
aI597770
aI335638
aI335650
aI1646387
aI12254
aI1646390
aI1122135
aI2848117
aI230717
aI2170745
aI73652
aI73656
aI2433006
aI1384436
aI335868
aI73772
aI73774
aI860212
aI2721119
aI1646671
aI73831
aI860294
aI336007
aI1646741
aI336023
aI1122476
aI2695344
aI860350
aI1646783
aI860382
aI860401
aI598289
aI1646887
aI2333119
aI74060
aI1384784
aI1909094
aI598420
aI1235698
aI74185
aI1384908
aI1384913
aI860630
aI336355
aI598508
aI1909242
aI1122828
aI598547
aI1384984
aI74291
aI1385039
aI2109541
aI598637
aI74359
aI1385083
aI1122959
aI2958002
aI143475
aI361929
aI1123020
aI99795
aI2114908
aI2958086
aI336648
aI598798
aI1123101
aI74580
aI1647457
aI336802
aI1909669
aI1647528
aI1385388
aI336861
aI1909727
aI861171
aI1647607
aI336892
aI74757
aI1366871
aI1454261
aI2696260
aI599110
aI336982
aI74861
aI599152
aI74865
aI74894
aI599192
aI74911
aI74939
aI2958567
aI337128
aI1909996
aI861423
aI861454
aI599346
aI37416
aI75095
aI337251
aI1123692
aI75123
aI599436
aI861594
aI75170
aI1385906
aI1017417
aI75204
aI75239
aI599528
aI1385966
aI861679
aI229461
aI2172423
aI337455
aI231008
aI861790
aI337522
aI2434726
aI75458
aI599751
aI599765
aI599792
aI75525
aI337678
aI1910558
aI75554
aI337735
aI2172752
aI599893
aI75652
aI75694
aI1386439
aI1648600
aI75774
aI75793
aI600094
aI600135
aI600137
aI338004
aI75863
aI600217
aI338082
aI1386720
aI862441
aI600313
aI624341
aI1386768
aI338212
aI600379
aI12682
aI1124682
aI1608679
aI1649021
aI862594
aI600500
aI76217
aI1124794
aI56395
aI600517
aI338382
aI842832
aI100095
aI1911306
aI600591
aI338479
aI76337
aI862787
aI76393
aI600700
aI1649309
aI76446
aI1125027
aI338614
aI76535
aI1279787
aI2435872
aI76583
aI2173738
aI1125197
aI338784
aI56465
aI338803
aI76661
aI338825
aI2940056
aI2698142
aI1387438
aI76722
aI863180
aI863192
aI1387484
aI1856293
aI76777
aI76778
aI1387501
aI863257
aI2698266
aI76835
aI1911909
aI1125478
aI863357
aI76941
aI56524
aI601296
aI1912032
aI886653
aI339219
aI1912085
aI77097
aI339243
aI56541
aI863543
aI1912167
aI601452
aI339324
aI77184
aI1847873
aI601493
aI77212
aI77222
aI863703
aI339423
aI1050058
aI339428
aI1125891
aI1388068
aI1236237
aI1388116
aI339545
aI2174556
aI1388172
aI1192557
aI1388192
aI77489
aI339637
aI77507
aI601849
aI77567
aI77610
aI77643
aI77722
aI77779
aI77787
aI100347
aI1650661
aI602094
aI602119
aI1126412
aI602161
aI220819
aI1388603
aI77887
aI1367392
aI1760609
aI77912
aI1912922
aI864369
aI77939
aI340088
aI864393
aI340119
aI602266
aI56708
aI602397
aI602398
aI930524
aI1388882
aI864595
aI340318
aI864624
aI2699638
aI1651073
aI78212
aI2961817
aI340380
aI1651107
aI340390
aI2175403
aI1913280
aI1913287
aI1389023
aI449958
aI340457
aI1651233
aI602661
aI1913389
aI1389118
aI340556
aI1389153
aI1389219
aI1127098
aI56778
aI1913537
aI340681
aI1913565
aI2437861
aI2175721
aI78613
aI78633
aI78666
aI602956
aI1389394
aI78677
aI2962273
aI1127270
aI187883
aI78743
aI269377
aI1913784
aI100516
aI2438110
aI2438155
aI341020
aI78878
aI1127492
aI603220
aI603233
aI341106
aI865403
aI78973
aI1651840
aI603270
aI1914005
aI865448
aI1914030
aI603314
aI2438326
aI79061
aI341209
aI603354
aI1127677
aI341291
aI603442
aI2438460
aI1389885
aI79194
aI79207
aI2066664
aI341369
aI603516
aI79230
aI1061786
aI865695
aI1105480
aI1127892
aI1542395
aI1455016
aI1652211
aI1390081
aI341508
aI341518
aI1127980
aI89935
aI144311
aI1128014
aI79439
aI603732
aI79450
aI603744
aI865900
aI762073
aI341654
aI2963099
aI1128103
aI79566
aI1652451
aI341750
aI2438930
aI866104
aI79676
aI866172
aI866193
aI2176916
aI2372591
aI604109
aI341970
aI342003
aI604156
aI79920
aI342073
aI493939
aI2809546
aI362881
aI1915145
aI80144
aI1367774
aI342327
aI604478
aI100754
aI604526
aI80243
aI1653117
aI80274
aI2963863
aI625050
aI80303
aI80313
aI342473
aI1128953
aI80382
aI80389
aI342534
aI866835
aI57095
aI2177580
aI1915448
aI342605
aI1653333
aI2809617
aI866930
aI80530
aI887235
aI342687
aI1391278
aI80572
aI342745
aI1586299
aI1391333
aI124891
aI1915697
aI80701
aI342852
aI80711
aI80714
aI1129313
aI867184
aI1129332
aI342909
aI605059
aI867206
aI80779
aI80836
aI1391568
aI1391578
aI605153
aI57171
aI80901
aI80906
aI1653776
aI80932
aI450398
aI1129542
aI1935890
aI605305
aI605328
aI867475
aI1916061
aI2702504
aI2702510
aI81071
aI867521
aI1916110
aI81105
aI81117
aI343266
aI605422
aI81179
aI1129757
aI605471
aI81187
aI81202
aI1391924
aI1129781
aI867671
aI1916258
aI81252
aI1367953
aI744674
aI2964890
aI1129916
aI343486
aI1654209
aI2964945
aI81367
aI1392116
aI1654265
aI343554
aI1892267
aI343568
aI1130032
aI867895
aI81491
aI81502
aI1654382
aI81520
aI2178702
aI343699
aI2440877
aI1392312
aI1654483
aI1130231
aI343816
aI606025
aI1392463
aI1916781
aI1015292
aI343955
aI868300
aI101031
aI1654781
aI344096
aI868385
aI1130531
aI81975
aI344141
aI344155
aI144746
aI868492
aI606351
aI868533
aI344249
aI28921
aI82118
aI1392842
aI82156
aI82187
aI1917230
aI1917237
aI1393004
aI82294
aI82320
aI82344
aI1130930
aI606679
aI82449
aI1131027
aI450651
aI2586542
aI82474
aI868941
aI82511
aI82515
aI1655398
aI868975
aI344688
aI2441853
aI82559
aI82560
aI581739
aI344728
aI82586
aI406984
aI869053
aI1393360
aI1131294
aI1131301
aI869170
aI607050
aI607061
aI344927
aI869225
aI344945
aI82804
aI344949
aI1655674
aI1329572
aI869264
aI1655700
aI344993
aI28946
aI1131435
aI82865
aI82872
aI345027
aI345031
aI1131470
aI1393623
aI345057
aI2180189
aI1393766
aI83047
aI869488
aI1131633
aI83075
aI83109
aI2678983
aI83119
aI1393856
aI2180290
aI869576
aI2704654
aI2442528
aI345380
aI232328
aI1131829
aI83264
aI345415
aI869704
aI1918282
aI869736
aI345480
aI345490
aI607637
aI83354
aI83365
aI83406
aI450811
aI212275
aI83446
aI57601
aI101294
aI83490
aI2442804
aI83509
aI607848
aI345717
aI1368342
aI83605
aI83674
aI870122
aI1805267
aI83721
aI345866
aI83741
aI83754
aI2705230
aI870248
aI83819
aI83843
aI345994
aI1936366
aI346012
aI83871
aI608164
aI1193628
aI608170
aI800413
aI142458
aI1394628
aI346063
aI1149944
aI1132499
aI346112
aI1919006
aI1919013
aI346169
aI608317
aI1919049
aI84043
aI608361
aI1919083
aI84091
aI1018903
aI84118
aI1657001
aI517815
aI1919155
aI1132752
aI1132763
aI346336
aI1919228
aI84237
aI1919251
aI1394981
aI1657131
aI84270
aI346461
aI84328
aI1132937
aI1395089
aI84378
aI870840
aI346561
aI1133011
aI346588
aI608764
aI608772
aI346629
aI1657364
aI1657377
aI608820
aI608827
aI346688
aI84556
aI319931
aI871012
aI871026
aI346741
aI871043
aI14104
aI1919641
aI84651
aI1395377
aI871102
aI871126
aI84728
aI346899
aI2181915
aI609074
aI1657651
aI84824
aI2444130
aI346980
aI2706300
aI386904
aI369446
aI1237490
aI2182067
aI84919
aI2444240
aI582136
aI1395668
aI609251
aI1587025
aI347130
aI463202
aI2444312
aI2182172
aI347165
aI2968614
aI2182203
aI2182220
aI1133660
aI85095
aI85134
aI85137
aI85155
aI1133742
aI85170
aI609501
aI1920232
aI609568
aI609579
aI871726
aI85306
aI85309
aI347487
aI347500
aI347508
aI85371
aI85381
aI347565
aI871910
aI85497
aI1134080
aI1396237
aI871953
aI1396264
aI609857
aI101647
aI1134181
aI85615
aI2444921
aI347775
aI347777
aI1134211
aI1920666
aI609973
aI669645
aI85737
aI2182928
aI85821
aI1134419
aI85863
aI1396594
aI348058
aI2707363
aI85931
aI85950
aI1920968
aI2707463
aI975535
aI348189
aI348202
aI872501
aI348216
aI86107
aI86117
aI1134700
aI2679485
aI348285
aI348301
aI1396886
aI1412471
aI1921263
aI1921273
aI1134856
aI101762
aI1134899
aI2183488
aI1397066
aI872803
aI86404
aI610718
aI1921442
aI86452
aI86463
aI800848
aI1659362
aI610796
aI1921523
aI931925
aI872975
aI1397268
aI101809
aI1397290
aI1659451
aI873025
aI86604
aI86622
aI2183804
aI1659527
aI610979
aI2810652
aI348852
aI1659588
aI1135305
aI873165
aI86751
aI1921767
aI611077
aI86803
aI86809
aI348975
aI86837
aI873282
aI86860
aI1921872
aI611182
aI2446208
aI1659790
aI133830
aI611228
aI873398
aI349112
aI1135548
aI349130
aI86989
aI1922011
aI1135629
aI87097
aI873530
aI107649
aI349268
aI873580
aI873601
aI58220
aI87189
aI87197
aI87206
aI1660087
aI1397969
aI611600
aI1660192
aI626224
aI1135909
aI87356
aI2970947
aI1660228
aI1135954
aI87408
aI1136001
aI611716
aI1398150
aI873875
aI1398228
aI1398245
aI611819
aI101970
aI349710
aI1660435
aI1398296
aI87584
aI2709026
aI1237937
aI874024
aI1398333
aI1136195
aI1660501
aI874076
aI1412709
aI349820
aI1136264
aI349842
aI87736
aI874188
aI349909
aI87832
aI349990
aI626311
aI1530508
aI626318
aI350103
aI350106
aI87973
aI87979
aI1923055
aI874499
aI364206
aI88111
aI88122
aI88159
aI88165
aI1748746
aI88252
aI350400
aI350428
aI1399008
aI1102799
aI2447599
aI88313
aI874748
aI612606
aI350488
aI350491
aI675078
aI80075
aI2185526
aI612673
aI88396
aI350542
aI88448
aI350601
aI1137043
aI88485
aI1661382
aI1923551
aI350692
aI320594
aI88558
aI350722
aI612920
aI875083
aI1399374
aI88656
aI612972
aI350836
aI1923723
aI613016
aI350890
aI350891
aI1399491
aI613064
aI1641640
aI1399502
aI613130
aI1137432
aI875305
aI875311
aI1399620
aI351060
aI1137529
aI613247
aI888641
aI2024606
aI875449
aI1661895
aI613339
aI875485
aI2448356
aI875496
aI89109
aI1661987
aI351304
aI1399920
aI613495
aI1937270
aI613614
aI1137904
aI89339
aI14893
aI1544069
aI89391
aI89397
aI14902
aI89496
aI14924
aI1662411
aI89556
aI1400279
aI351758
aI351825
aI1138259
aI351836
aI876142
aI351885
aI89766
aI89769
aI876211
aI89806
aI351984
aI614141
aI876298
aI614157
aI1400596
aI2187042
aI89904
aI352061
aI2069368
aI1400672
aI2187110
aI1662828
aI352109
aI876411
aI1138559
aI352131
aI89989
aI90033
aI90042
aI1400768
aI352200
aI876497
aI90111
aI352268
aI90127
aI614418
aI90138
aI1400869
aI90155
aI614451
aI352319
aI1400897
aI1925189
aI614482
aI90203
aI90236
aI1400971
aI876686
aI352403
aI58737
aI352442
aI876739
aI90313
aI150740
aI90393
aI1401148
aI1139023
aI2449744
aI352636
aI614785
aI99033
aI90511
aI614807
aI90527
aI352672
aI1401257
aI1663425
aI352708
aI90566
aI90573
aI90575
aI352721
aI877023
aI2712050
aI614899
aI352765
aI90648
aI583092
aI1663592
aI1401510
aI90801
aI1139393
aI1139398
aI90848
aI90874
aI615182
aI877391
aI615282
aI91012
aI615306
aI1926031
aI15173
aI1644091
aI1031887
aI353268
aI1401879
aI1401895
aI2974766
aI91208
aI615520
aI91265
aI353410
aI91277
aI91299
aI877732
aI2104293
aI640261
aI1664235
aI877819
aI408453
aI615754
aI91485
aI615779
aI1402237
aI1140134
aI58961
aI1926637
aI91671
aI353821
aI878126
aI1617926
aI1402453
aI878182
aI1926762
aI1140338
aI616107
aI2713290
aI91866
aI878307
aI1140456
aI354067
aI59015
aI354132
aI878429
aI878469
aI92063
aI354247
aI92141
aI616460
aI758104
aI1402919
aI2451524
aI1665128
aI92272
aI1140873
aI878732
aI354495
aI72908
aI327079
aI1665266
aI1665288
aI354601
aI2189617
aI92493
aI1665365
aI1403246
aI616815
aI1927543
aI758165
aI1326149
aI92602
aI92606
aI1403361
aI1665507
aI496038
aI616937
aI1665544
aI879114
aI801879
aI354831
aI1403418
aI1927712
aI1403448
aI879167
aI617044
aI92764
aI1927782
aI1141383
aI92813
aI1927832
aI1141440
aI617157
aI355044
aI1665774
aI879368
aI1141537
aI879442
aI496099
aI59198
aI879485
aI93065
aI1403801
aI617373
aI355231
aI617376
aI2706605
aI355283
aI355294
aI93156
aI617450
aI2190336
aI93200
aI583513
aI1403954
aI1666116
aI1403997
aI617612
aI93343
aI355499
aI2452680
aI93430
aI99131
aI355620
aI2069044
aI93508
aI15585
aI617801
aI879977
aI880011
aI355724
aI234053
aI1404332
aI880054
aI93652
aI880094
aI617964
aI1142253
aI880118
aI617996
aI618059
aI618068
aI1404505
aI618087
aI880272
aI618136
aI356011
aI356020
aI2453173
aI1666753
aI93910
aI880349
aI93922
aI618212
aI880367
aI93961
aI93966
aI103043
aI365188
aI93988
aI2715490
aI356224
aI618369
aI94102
aI618407
aI1142712
aI1667004
aI94162
aI94173
aI631627
aI880619
aI94225
aI1142807
aI618551
aI1142881
aI618598
aI2453638
aI103105
aI880787
aI94363
aI356514
aI1142970
aI1405120
aI1143026
aI94451
aI356645
aI94519
aI976948
aI365282
aI94544
aI1143126
aI880990
aI94559
aI356708
aI1929603
aI103154
aI356815
aI618996
aI1405433
aI881190
aI94813
aI1143392
aI881272
aI1143427
aI1667763
aI1667773
aI357055
aI94915
aI881375
aI116639
aI1929959
aI94961
aI619252
aI2454267
aI1207770
aI94977
aI1930011
aI881441
aI95033
aI2454356
aI619361
aI1667960
aI95103
aI1143684
aI1667977
aI95186
aI881635
aI357360
aI1143825
aI2192409
aI619546
aI1405983
aI1085573
aI357449
aI1930331
aI95361
aI2192517
aI95382
aI95396
aI1143977
aI357556
aI1930444
aI1020792
aI1144035
aI95462
aI1930502
aI357641
aI619789
aI95504
aI1406264
aI95603
aI619895
aI882051
aI1144248
aI95674
aI1406409
aI1144275
aI95725
aI2192903
aI95810
aI1930838
aI95869
aI620179
aI620237
aI620244
aI2193111
aI620249
aI620273
aI620275
aI95999
aI358163
aI614231
aI358281
aI620448
aI96168
aI1144756
aI358328
aI1931230
aI96224
aI620537
aI620554
aI358435
aI1164169
aI1356208
aI358471
aI1931341
aI1144932
aI282538
aI96386
aI96389
aI358562
aI1145009
aI278223
aI1407222
aI358696
aI620858
aI1145161
aI883033
aI96613
aI2193767
aI96617
aI1407398
aI1145281
aI1145285
aI2456013
aI2069587
aI358952
aI1145388
aI404760
aI883294
aI359035
aI359040
aI1407656
aI883376
aI621233
aI1407672
aI125435
aI359134
aI1932011
aI621302
aI621338
aI359226
aI1145666
aI1932105
aI2718549
aI97120
aI103568
aI16193
aI97160
aI359307
aI2980751
aI621514
aI359376
aI97248
aI621583
aI2194456
aI883780
aI1408085
aI621686
aI359585
aI1408212
aI883938
aI621825
aI671619
aI97558
aI97572
aI1932588
aI97614
aI1670499
aI637866
aI884103
aI2115680
aI97688
aI359862
aI1146318
aI97745
aI234745
aI1670616
aI97754
aI97777
aI97799
aI359974
aI759051
aI954724
aI97869
aI2194248
aI1408611
aI97901
aI1408634
aI884373
aI322166
aI97992
aI1146585
aI622310
aI884463
aI98044
aI98050
aI360211
aI98109
aI622403
aI98117
aI622412
aI360274
aI2032761
aI1671066
aI2725196
aI98264
aI98275
aI622571
aI2375684
aI884778
aI584377
aI16399
aI98401
aI884862
aI2719871
aI360594
aI622772
aI98525
aI409638
aI1933542
aI584405
aI98596
aI1147197
aI1147207
aI98632
aI98636
aI98642
aI98711
aI98713
aI12016
aI885152
aI977649
aI2720182
aI623041
aI360899
aI98811
aI98848
aI902383
aI98867
aI1933888
aI453389
aI16487
aI1147529
aI98959
aI98978
aI98989
aI1671856
aI234954
aI1934041
aI361205
aI1671933
aI623358
aI99107
aI1672009
aI361320
aI99189
aI1934216
aI1147787
aI885650
aI1147796
aI623517
aI99248
aI2506915
aI540837
aI361455
aI99380
aI99389
aI2196561
aI2720864
aI361602
aI99463
aI1148051
aI540873
aI2983132
aI886001
aI623879
aI147673
aI1410342
aI1895303
aI29505
aI1152565
aI99691
aI99692
aI361855
aI1410434
aI624003
aI624069
aI2459080
aI104014
aI99834
aI99851
aI99901
aI1148505
aI99956
aI886464
aI902423
aI362241
aI886533
aI1148705
aI2459452
aI1059549
aI584674
aI362332
aI100190
aI624483
aI100237
aI2203056
aI235161
aI886697
aI100297
aI624593
aI624594
aI886749
aI624622
aI624626
aI104109
aI362531
aI362536
aI100402
aI2721865
aI2721883
aI1149024
aI100450
aI886887
aI886895
aI1411199
aI1673391
aI2197700
aI1411277
aI100565
aI362730
aI362738
aI265222
aI100647
aI1385087
aI2822833
aI362859
aI887149
aI100776
aI1149401
aI100836
aI2197994
aI3358
aI100856
aI887290
aI422353
aI235273
aI100930
aI100939
aI1149522
aI100957
aI1138137
aI100970
aI628499
aI1149577
aI1021720
aI625332
aI101095
aI1225432
aI628520
aI625403
aI363262
aI16853
aI625424
aI1411866
aI887590
aI1149785
aI101219
aI625523
aI1936245
aI101258
aI363437
aI363455
aI2575725
aI2722799
aI887798
aI1936390
aI363573
aI363592
aI363606
aI101562
aI1412324
aI363751
aI888059
aI101672
aI497544
aI625983
aI1150282
aI101715
aI2985303
aI626036
aI1150329
aI352088
aI626084
aI366493
aI101808
aI322806
aI626122
aI847099
aI279130
aI888350
aI364082
aI1936950
aI364123
aI626273
aI102008
aI102009
aI803434
aI1150599
aI1150606
aI102040
aI2461379
aI1150676
aI17025
aI1234198
aI1937263
aI102274
aI102281
aI888715
aI364485
aI1675219
aI626657
aI102371
aI322897
aI626692
aI626698
aI102441
aI102483
aI364634
aI626796
aI1413240
aI562073
aI1151135
aI626853
aI2724012
aI1413310
aI364746
aI2813306
aI1675502
aI102668
aI2724125
aI2986274
aI102703
aI104504
aI889213
aI1400069
aI1937802
aI1675670
aI1151437
aI1151456
aI104533
aI102937
aI102939
aI1151521
aI867603
aI1675825
aI1413687
aI1151554
aI365145
aI103014
aI365172
aI889475
aI103050
aI889505
aI323015
aI365237
aI889535
aI1151724
aI103165
aI103167
aI934699
aI2986757
aI103206
aI1676075
aI1151800
aI2462531
aI2724688
aI889688
aI103260
aI627569
aI518639
aI759956
aI103295
aI605744
aI1151902
aI365496
aI1414090
aI103385
aI1151974
aI2987010
aI1938435
aI2724898
aI1676347
aI259067
aI1676363
aI889941
aI1938563
aI2725031
aI103605
aI1676486
aI1938650
aI1152240
aI1676530
aI103715
aI628006
aI365872
aI365902
aI1022180
aI2463094
aI1152398
aI103842
aI103867
aI2725329
aI1152471
aI2987482
aI1152500
aI366091
aI628242
aI103959
aI1152549
aI366132
aI1414715
aI890428
aI104018
aI104040
aI890491
aI1414790
aI1414799
aI366234
aI890528
aI104117
aI104143
aI890579
aI366299
aI628447
aI1371775
aI104212
aI104223
aI1197027
aI104302
aI366447
aI104317
aI323221
aI366489
aI104349
aI1225541
aI1677299
aI1677308
aI104458
aI890904
aI628781
aI1153120
aI104564
aI628881
aI366749
aI104609
aI628916
aI366964
aI628943
aI585422
aI366816
aI2158288
aI366856
aI1153289
aI1109719
aI629125
aI1939754
aI366898
aI104779
aI104796
aI541755
aI1153396
aI366982
aI104856
aI1153435
aI891318
aI104887
aI104891
aI891338
aI104950
aI1415672
aI1153530
aI1153563
aI367141
aI104998
aI2464295
aI367174
aI891479
aI105085
aI2464386
aI367273
aI367285
aI1153719
aI2988730
aI1662019
aI1678034
aI367319
aI105224
aI629535
aI1415993
aI105326
aI2202485
aI1153938
aI891827
aI1416121
aI1153988
aI1939961
aI367591
aI105486
aI1154065
aI367649
aI2202675
aI367677
aI12243
aI1940577
aI105583
aI892029
aI105604
aI892062
aI629942
aI105672
aI105744
aI367890
aI105752
aI892200
aI1284661
aI64626
aI1154391
aI892256
aI105827
aI1852648
aI630136
aI1678718
aI105863
aI105904
aI105929
aI2727401
aI630261
aI1678858
aI630313
aI1154654
aI892535
aI106104
aI1154689
aI106114
aI368260
aI570921
aI1827903
aI1941151
aI630443
aI106189
aI106215
aI1677948
aI1679084
aI106224
aI106260
aI17713
aI1417034
aI2114871
aI106320
aI368491
aI2727801
aI3542
aI630668
aI1417114
aI368544
aI106431
aI1679310
aI1417179
aI892914
aI368630
aI760489
aI630779
aI106494
aI1679364
aI2203665
aI1417253
aI106550
aI892994
aI1679435
aI2990189
aI1155209
aI106654
aI1941665
aI106671
aI1679537
aI368821
aI1941694
aI630989
aI631004
aI631017
aI2203890
aI631033
aI893197
aI106781
aI1155358
aI542091
aI1417546
aI631147
aI2990458
aI369021
aI369025
aI893323
aI369060
aI106918
aI2204128
aI1679863
aI631312
aI107029
aI631333
aI107057
aI1417801
aI107090
aI1679964
aI369280
aI1155714
aI1155721
aI107152
aI12297
aI107158
aI369310
aI369317
aI2728618
aI358602
aI1897771
aI1417916
aI107208
aI105251
aI1155801
aI1155805
aI885204
aI369392
aI1417974
aI107294
aI107331
aI2728773
aI779340
aI256717
aI1418097
aI1680256
aI61592
aI107430
aI107444
aI369591
aI369604
aI492405
aI107510
aI1680395
aI1156119
aI369692
aI367456
aI107591
aI1942602
aI282912
aI2204759
aI369759
aI894061
aI894063
aI2466935
aI369824
aI2991266
aI1156270
aI1022836
aI631994
aI107744
aI894194
aI369930
aI61663
aI1156412
aI632168
aI894328
aI370052
aI1418643
aI1156554
aI891814
aI346387
aI236465
aI1943085
aI1943093
aI1680957
aI894565
aI370305
aI108207
aI894643
aI1418938
aI632533
aI108326
aI370481
aI108341
aI2467652
aI894799
aI1943380
aI370580
aI894881
aI1943464
aI108495
aI1681360
aI108517
aI518627
aI895002
aI108590
aI1943607
aI317862
aI895050
aI108662
aI411327
aI90909
aI760854
aI2069493
aI370861
aI221847
aI108753
aI1157346
aI108781
aI895215
aI108796
aI108827
aI2468131
aI2206004
aI1943878
aI633202
aI633239
aI1157544
aI1940552
aI633281
aI371169
aI367698
aI109069
aI633375
aI371250
aI1944117
aI109112
aI109114
aI1154145
aI105570
aI1419854
aI371327
aI109227
aI1023092
aI371388
aI371392
aI371396
aI895733
aI1157893
aI633684
aI109412
aI895876
aI1420168
aI892055
aI633770
aI109492
aI895932
aI371653
aI2206688
aI1420279
aI371739
aI2731087
aI633946
aI2508646
aI2993256
aI633970
aI61974
aI1906584
aI634003
aI1682582
aI763080
aI1158361
aI109813
aI109814
aI896249
aI109880
aI17255
aI372055
aI634203
aI372076
aI896391
aI110028
aI2207186
aI372200
aI634368
aI110088
aI1420839
aI896567
aI372283
aI2731588
aI1683022
aI110177
aI1420898
aI634474
aI634490
aI896663
aI110255
aI1158895
aI110353
aI280537
aI372550
aI1158990
aI1421140
aI1421144
aI110451
aI110453
aI1421189
aI110478
aI372643
aI1945517
aI372679
aI634824
aI1159164
aI897024
aI372743
aI630103
aI372757
aI542725
aI62130
aI372785
aI1945651
aI897112
aI372860
aI110737
aI2207894
aI110750
aI635075
aI1853479
aI324306
aI110856
aI373025
aI635171
aI1159472
aI1023368
aI1159478
aI110933
aI897407
aI635306
aI1159604
aI373177
aI1946055
aI2666055
aI2159358
aI373254
aI2208271
aI635411
aI1159735
aI111160
aI1421925
aI111219
aI1198189
aI1110808
aI111313
aI2208469
aI635608
aI111331
aI111344
aI2732801
aI897794
aI1159948
aI62255
aI635678
aI1684282
aI897868
aI111466
aI237033
aI2208671
aI2470818
aI1946537
aI306257
aI111575
aI1422297
aI111598
aI18601
aI635916
aI2733085
aI898094
aI635982
aI1160282
aI635998
aI373861
aI636009
aI632211
aI239405
aI111777
aI1023521
aI373962
aI636115
aI636131
aI898289
aI1160445
aI1684768
aI237107
aI898375
aI149732
aI1684828
aI898399
aI111988
aI1947008
aI898459
aI112041
aI892500
aI112125
aI193453
aI374293
aI112171
aI1947216
aI630372
aI2209390
aI391806
aI636579
aI1460509
aI374449
aI2209477
aI898763
aI374499
aI1160961
aI112407
aI1154692
aI1423178
aI112496
aI112500
aI1423227
aI374693
aI1423274
aI1423275
aI2617699
aI374752
aI2471910
aI1161235
aI112671
aI1924141
aI636988
aI112713
aI1161318
aI1423463
aI112765
aI112779
aI112789
aI2996376
aI911576
aI1278196
aI1423581
aI112877
aI586795
aI637236
aI112964
aI637284
aI113037
aI375209
aI637362
aI375232
aI637384
aI62544
aI899562
aI113141
aI113158
aI1423890
aI1023754
aI113229
aI899674
aI113252
aI637545
aI62571
aI1161876
aI1161878
aI1948325
aI113331
aI1242236
aI637679
aI2472697
aI113418
aI1686330
aI637791
aI2997107
aI2472820
aI637853
aI1162168
aI1067512
aI113644
aI1162233
aI113662
aI900119
aI900130
aI113727
aI375874
aI375929
aI375953
aI2735262
aI1242311
aI1286009
aI1948895
aI638225
aI2553050
aI1948990
aI900435
aI114029
aI638344
aI114066
aI114139
aI638455
aI638471
aI114196
aI376345
aI1687083
aI106418
aI114226
aI376382
aI2858934
aI376390
aI114251
aI62733
aI2997863
aI114313
aI2211479
aI376495
aI638670
aI376527
aI376535
aI324900
aI1163019
aI376610
aI114474
aI638764
aI1949486
aI106463
aI638798
aI114584
aI1425331
aI1163231
aI114662
aI638994
aI639000
aI2736153
aI2211877
aI639019
aI2090061
aI639035
aI2174281
aI482604
aI2211943
aI639119
aI114844
aI114847
aI587121
aI377014
aI639183
aI1669747
aI114986
aI115018
aI1163607
aI2736496
aI115060
aI1286210
aI1687972
aI377260
aI377270
aI115145
aI1163724
aI412409
aI115167
aI1766828
aI1163804
aI639520
aI377398
aI187148
aI377438
aI115305
aI2736755
aI901749
aI639616
aI1426079
aI2736843
aI639718
aI115432
aI639722
aI639753
aI115478
aI377628
aI377657
aI150325
aI115541
aI1688441
aI115589
aI115620
aI1679516
aI377775
aI1950649
aI849402
aI1688571
aI115722
aI115738
aI325129
aI798198
aI1426521
aI377978
aI902284
aI1164435
aI378019
aI378025
aI1164465
aI115890
aI640205
aI902358
aI640224
aI640241
aI902396
aI378151
aI1426742
aI1426743
aI378185
aI1164620
aI378200
aI378214
aI281490
aI378240
aI1164714
aI1164715
aI116148
aI1426869
aI492694
aI63051
aI1426891
aI1164767
aI1033896
aI116249
aI902691
aI1427033
aI640607
aI116339
aI378494
aI1164954
aI116388
aI368926
aI1427161
aI640739
aI640746
aI116463
aI1165041
aI116472
aI2737933
aI116509
aI116517
aI7759
aI1951544
aI116542
aI1165132
aI368957
aI150505
aI640898
aI1439964
aI1165215
aI1689565
aI903137
aI116712
aI1427460
aI1165331
aI116757
aI116768
aI2213940
aI116791
aI378979
aI641132
aI248304
aI903305
aI1951882
aI116880
aI641170
aI1951898
aI1068058
aI1951909
aI116908
aI1427631
aI587465
aI379066
aI116938
aI116941
aI379119
aI1165637
aI1427798
aI379235
aI1427878
aI641451
aI903620
aI1690078
aI1427942
aI805976
aI379445
aI1428052
aI1690199
aI1165916
aI1165922
aI379503
aI117362
aI903830
aI1690281
aI641719
aI903907
aI379693
aI204682
aI106979
aI2476907
aI904049
aI379779
aI3001267
aI63308
aI642006
aI642008
aI1428460
aI1428461
aI117748
aI2739211
aI117783
aI117802
aI1428555
aI117839
aI1952862
aI642148
aI1952879
aI642161
aI904316
aI1428606
aI2477203
aI642242
aI380161
aI281815
aI118052
aI1166638
aI118068
aI543969
aI222159
aI904556
aI118133
aI904580
aI1166727
aI369218
aI1286723
aI904624
aI1802118
aI762442
aI118228
aI904692
aI118268
aI1691146
aI1166894
aI1166926
aI980922
aI1691231
aI2477669
aI118391
aI1953420
aI1166992
aI642706
aI2553797
aI380579
aI118437
aI19750
aI380691
aI1068340
aI118587
aI380734
aI118613
aI2477916
aI2740071
aI1167210
aI187261
aI238233
aI1953819
aI643109
aI118846
aI643141
aI849935
aI381031
aI118903
aI544109
aI905374
aI381091
aI118959
aI2478264
aI118994
aI643302
aI381167
aI238292
aI381179
aI762588
aI571353
aI119114
aI119123
aI119159
aI1167744
aI119179
aI905619
aI643483
aI381345
aI119212
aI2216369
aI2478529
aI1429960
aI2216414
aI643565
aI119280
aI1167890
aI905762
aI1430055
aI1954372
aI119365
aI119366
aI1417997
aI643742
aI119459
aI19911
aI2216621
aI2216670
aI150992
aI119549
aI381716
aI381737
aI1430323
aI906050
aI119622
aI119634
aI119636
aI381801
aI1351755
aI2741114
aI643977
aI119693
aI644010
aI644037
aI906184
aI381897
aI1168342
aI1692632
aI2479087
aI1168372
aI383688
aI119823
aI119855
aI2217015
aI119895
aI1168482
aI906362
aI1430655
aI119983
aI382137
aI1168577
aI1955017
aI906511
aI644450
aI382307
aI382319
aI644467
aI2479481
aI1168802
aI644518
aI120292
aI1168884
aI1431044
aI1955374
aI1168948
aI1431182
aI644766
aI120513
aI1431238
aI382683
aI120545
aI382763
aI644958
aI120745
aI1374536
aI1169349
aI382920
aI120779
aI194894
aI120808
aI120820
aI1693725
aI1955871
aI383014
aI1169454
aI1199797
aI120955
aI645270
aI907415
aI1693859
aI2742438
aI121006
aI1431734
aI383163
aI383167
aI121035
aI194940
aI907590
aI1694043
aI2117355
aI907664
aI1694100
aI2947482
aI1431971
aI907687
aI383402
aI121260
aI907695
aI383414
aI121275
aI1549387
aI2218452
aI194980
aI383478
aI383493
aI383498
aI2742805
aI1086443
aI121416
aI121459
aI121493
aI2218653
aI383687
aI1432281
aI121562
aI121595
aI631937
aI383795
aI121674
aI2218838
aI383838
aI588264
aI763029
aI1331011
aI231010
aI383936
aI121816
aI121833
aI383986
aI369833
aI2219041
aI121908
aI1170514
aI122003
aI908494
aI384218
aI1170677
aI1374773
aI908624
aI2481497
aI122207
aI122230
aI1170816
aI122241
aI1695163
aI122313
aI384464
aI1957346
aI646634
aI384534
aI2481708
aI122428
aI646723
aI122442
aI2219600
aI908886
aI122466
aI384646
aI646806
aI384674
aI384706
aI1112699
aI646887
aI122607
aI384803
aI384808
aI20444
aI646961
aI122718
aI1171328
aI384943
aI2744240
aI894284
aI384984
aI122860
aI1695766
aI1171484
aI909361
aI2744370
aI1433665
aI909378
aI122975
aI1695843
aI385138
aI1171620
aI1171622
aI123094
aI385273
aI1696012
aI238978
aI326370
aI2744663
aI123266
aI647570
aI1434031
aI1986632
aI385478
aI2991525
aI1434089
aI123378
aI1172000
aI1958461
aI719633
aI123582
aI1172194
aI326439
aI1958659
aI123664
aI719662
aI123724
aI385897
aI1172333
aI1958771
aI195401
aI2341938
aI123844
aI385997
aI648157
aI326480
aI910330
aI1434631
aI501250
aI442512
aI1172582
aI3007597
aI648313
aI386178
aI1172611
aI12860
aI1959140
aI1172714
aI1434863
aI124160
aI2030471
aI2483542
aI910736
aI2221461
aI151791
aI1959349
aI1172945
aI955607
aI648725
aI1173047
aI2483802
aI648811
aI1697388
aI1173113
aI1173114
aI1697403
aI1435322
aI2483911
aI1173227
aI1173239
aI2483976
aI124708
aI1697575
aI386875
aI649048
aI1173341
aI911228
aI649086
aI1173391
aI64495
aI1287834
aI1173422
aI1959899
aI1173485
aI387076
aI1435657
aI124982
aI1173560
aI719884
aI1960027
aI1435741
aI151909
aI387174
aI387194
aI938350
aI632516
aI70665
aI1173729
aI1173731
aI1698073
aI125212
aI649512
aI387380
aI125246
aI125278
aI1698153
aI125320
aI649665
aI125380
aI125382
aI125389
aI1234970
aI125407
aI911870
aI1698309
aI1174024
aI125470
aI1174054
aI387623
aI1436210
aI387675
aI649852
aI1174164
aI125617
aI649979
aI387852
aI125713
aI650012
aI387880
aI370483
aI501557
aI387927
aI1960804
aI125816
aI125825
aI1698695
aI387981
aI125844
aI650136
aI650145
aI2223021
aI912318
aI912319
aI650176
aI1174467
aI2511350
aI388053
aI650228
aI1174526
aI1436684
aI1174549
aI2485280
aI650288
aI388155
aI126014
aI1698887
aI126039
aI126042
aI1436790
aI1961117
aI650405
aI650425
aI126142
aI1436874
aI388299
aI667608
aI388317
aI1174750
aI650475
aI650492
aI1436931
aI912658
aI388389
aI1961262
aI1174869
aI1174910
aI126346
aI388500
aI2747804
aI1174942
aI21063
aI912813
aI1699268
aI126414
aI912851
aI894885
aI912882
aI1175077
aI1437235
aI388661
aI912950
aI650839
aI126554
aI2748004
aI388714
aI501696
aI126611
aI388787
aI21108
aI1699518
aI391227
aI1175253
aI1437402
aI388827
aI1338124
aI913184
aI126769
aI651140
aI1437586
aI389051
aI589131
aI126916
aI913369
aI126945
aI389099
aI389146
aI127013
aI913465
aI127035
aI127046
aI1175633
aI389255
aI913559
aI64881
aI1700022
aI651541
aI2486561
aI1419315
aI651601
aI127320
aI913762
aI651647
aI1856235
aI458139
aI651701
aI127430
aI1700321
aI127479
aI127480
aI651794
aI2118405
aI1176124
aI1438307
aI3011182
aI632951
aI914155
aI127724
aI1700618
aI1700667
aI1176394
aI1176436
aI127893
aI1438628
aI127938
aI1438660
aI127947
aI127961
aI914427
aI1438733
aI914466
aI128076
aI652378
aI390278
aI390280
aI1438915
aI2749648
aI652497
aI914705
aI1176867
aI390462
aI128347
aI390513
aI501994
aI128397
aI2225572
aI128421
aI1177031
aI3012050
aI2225682
aI390695
aI196189
aI390708
aI390720
aI915022
aI652890
aI128645
aI912104
aI652945
aI128660
aI390807
aI390812
aI390829
aI2225842
aI1287455
aI283608
aI653116
aI390989
aI633150
aI1701776
aI128940
aI653230
aI128967
aI1439688
aI128977
aI327335
aI653298
aI266167
aI391161
aI1177636
aI2511882
aI129104
aI653394
aI2686650
aI129124
aI2074990
aI129175
aI108915
aI2750684
aI1964272
aI152619
aI129306
aI371077
aI915751
aI653614
aI615740
aI391531
aI391554
aI653708
aI1964435
aI1178007
aI1178016
aI1026459
aI589555
aI129474
aI1178052
aI129492
aI764326
aI2249815
aI1964573
aI327429
aI129570
aI1440298
aI129599
aI1178189
aI114340
aI916084
aI653941
aI129655
aI391850
aI129750
aI1178337
aI916225
aI2226988
aI654128
aI1440565
aI1288678
aI392044
aI916365
aI392130
aI1440720
aI1965084
aI1178669
aI1965110
aI1702990
aI2751573
aI1846161
aI130167
aI130168
aI392315
aI1288725
aI1965189
aI392348
aI130224
aI916657
aI130228
aI130288
aI130304
aI1703195
aI1769353
aI130376
aI1441122
aI1703291
aI654730
aI654731
aI392632
aI654801
aI130515
aI130516
aI2489815
aI130532
aI392694
aI589740
aI877472
aI392730
aI130597
aI808203
aI130683
aI130758
aI1441485
aI655062
aI502399
aI1441544
aI130832
aI917293
aI992484
aI655172
aI130922
aI393077
aI1856831
aI1179517
aI1441666
aI655249
aI130964
aI546117
aI1697796
aI131021
aI131057
aI917527
aI917548
aI655418
aI655424
aI131140
aI917616
aI655504
aI131227
aI48015
aI1966247
aI917672
aI393487
aI393488
aI1442086
aI131368
aI1966402
aI1179974
aI393550
aI655696
aI30563
aI131427
aI131433
aI1442158
aI284051
aI655756
aI393639
aI393657
aI131527
aI458832
aI393701
aI655855
aI371457
aI2228771
aI1442340
aI655927
aI131640
aI393786
aI131652
aI131659
aI1704529
aI131693
aI131697
aI1704563
aI1507439
aI393889
aI393908
aI656069
aI918215
aI2753231
aI131795
aI131871
aI131872
aI109360
aI852103
aI131889
aI131907
aI131926
aI131929
aI131968
aI394167
aI1180620
aI1180621
aI132047
aI132070
aI371537
aI2229229
aI1967100
aI656397
aI1180686
aI2491410
aI1278839
aI1180711
aI1180720
aI1442870
aI1442874
aI132162
aI2031799
aI1442918
aI1594897
aI132270
aI109427
aI394431
aI633719
aI1180883
aI2556111
aI656612
aI132325
aI132374
aI1376473
aI1967396
aI1180966
aI1967402
aI132396
aI2753864
aI1181011
aI1181050
aI1967484
aI656769
aI196844
aI2491792
aI3016088
aI656806
aI918959
aI132528
aI1769720
aI656853
aI1967597
aI1967613
aI132675
aI196884
aI1705598
aI1245462
aI132785
aI1967857
aI2754321
aI1957923
aI132903
aI395072
aI395079
aI1443664
aI196921
aI395146
aI919445
aI395181
aI395202
aI2230260
aI657439
aI657487
aI133203
aI919674
aI1968258
aI395430
aI133374
aI415448
aI657703
aI3017003
aI133426
aI657720
aI1444193
aI395628
aI395629
aI657792
aI395659
aI133520
aI2492841
aI657852
aI633935
aI395760
aI133645
aI657941
aI395821
aI2492977
aI657970
aI395863
aI658010
aI133732
aI920173
aI1706642
aI133802
aI395947
aI1182383
aI395974
aI395975
aI415522
aI371834
aI1182436
aI1968918
aI920345
aI920371
aI133943
aI1706901
aI396216
aI1182653
aI920511
aI728975
aI134098
aI920539
aI396255
aI1707035
aI920607
aI134176
aI134201
aI2231366
aI1707091
aI1182822
aI134252
aI396458
aI134340
aI1707253
aI1182971
aI658718
aI1183010
aI396618
aI2231632
aI396675
aI1183126
aI134554
aI396730
aI396732
aI396743
aI396747
aI66125
aI658907
aI134633
aI1707520
aI310001
aI658991
aI1183284
aI134711
aI1969734
aI2231887
aI134758
aI921193
aI921204
aI3018377
aI1969804
aI921244
aI2231972
aI921254
aI134824
aI659138
aI48136
aI397016
aI1969893
aI2232044
aI134894
aI134937
aI659296
aI1944896
aI659354
aI135078
aI2756547
aI1970125
aI135138
aI1857533
aI135152
aI2756638
aI921653
aI1445967
aI659540
aI921713
aI1446005
aI135294
aI1970317
aI1446058
aI1708220
aI109942
aI2494665
aI415784
aI1970426
aI2119725
aI1446173
aI1970487
aI135494
aI659804
aI397667
aI397677
aI135535
aI659854
aI1970580
aI922009
aI135589
aI135624
aI397786
aI135644
aI1708509
aI1184230
aI1988693
aI135683
aI1970746
aI1446466
aI922184
aI660143
aI1970896
aI1184481
aI1708801
aI135946
aI135952
aI398136
aI2495331
aI136054
aI660374
aI1184673
aI660408
aI2233285
aI922584
aI398309
aI809131
aI1114966
aI136216
aI136247
aI136248
aI136264
aI2495576
aI372239
aI2757729
aI398441
aI398460
aI398469
aI136328
aI136363
aI1971372
aI1447087
aI1709245
aI1071311
aI136418
aI1464529
aI1945127
aI398575
aI136445
aI136452
aI1447173
aI136476
aI2556807
aI922954
aI398670
aI398672
aI136540
aI136542
aI398715
aI1447326
aI896588
aI398797
aI398815
aI923104
aI1185254
aI1185262
aI660990
aI398885
aI923179
aI1709621
aI1447481
aI136790
aI1971807
aI398963
aI136825
aI1709700
aI1185432
aI590790
aI399037
aI1971902
aI503413
aI661196
aI22818
aI923349
aI136928
aI661232
aI1971954
aI136954
aI399104
aI399113
aI136971
aI923498
aI661363
aI1185665
aI661398
aI923560
aI137132
aI1148071
aI399317
aI399343
aI1972218
aI3020802
aI661519
aI1185845
aI923720
aI399457
aI1448047
aI1972350
aI328725
aI137366
aI137369
aI2234527
aI923837
aI923847
aI721956
aI137435
aI503508
aI1027798
aI137483
aI661773
aI1448212
aI399649
aI661797
aI399663
aI1186155
aI137584
aI1448363
aI399815
aI1448419
aI924149
aI896769
aI3021355
aI662073
aI2234942
aI1710672
aI1448554
aI399992
aI1425488
aI400026
aI1972909
aI400055
aI400056
aI459897
aI662250
aI2235132
aI1448704
aI1639556
aI547291
aI1710906
aI1071587
aI1710942
aI138088
aI1186689
aI1331415
aI1683277
aI924653
aI1186817
aI138256
aI1973271
aI328882
aI138304
aI924820
aI400545
aI400547
aI2759848
aI138475
aI1449199
aI2759934
aI138513
aI1973552
aI2497852
aI138561
aI3022173
aI138604
aI138606
aI2235766
aI1187194
aI1187220
aI2644553
aI1187293
aI138732
aI1187315
aI663028
aI663030
aI925202
aI138772
aI1187403
aI138830
aI138837
aI663130
aI401001
aI138862
aI401025
aI2498192
aI1711782
aI1711796
aI138933
aI401082
aI809596
aI139010
aI1187594
aI139063
aI925504
aI2236253
aI1711975
aI401277
aI1449925
aI401352
aI1449956
aI1449982
aI663551
aI925702
aI1187855
aI925792
aI925806
aI139396
aI401571
aI2498729
aI139459
aI925913
aI925927
aI139506
aI401656
aI1820286
aI401667
aI401712
aI401727
aI401728
aI2761035
aI139649
aI663957
aI1450401
aI401835
aI926143
aI664010
aI1188310
aI2499035
aI139746
aI401906
aI664080
aI1968689
aI1017224
aI2236976
aI402008
aI402011
aI402027
aI402033
aI1115584
aI139909
aI664224
aI139985
aI140037
aI1450778
aI140070
aI926520
aI402253
aI664421
aI402322
aI926620
aI926662
aI140234
aI1450967
aI140260
aI926701
aI1450993
aI926710
aI402428
aI1713149
aI664577
aI402482
aI664642
aI664676
aI198165
aI154477
aI416623
aI926905
aI926907
aI1189086
aI664856
aI140576
aI402723
aI927034
aI2499943
aI402805
aI1713531
aI1451449
aI140740
aI877591
aI1334182
aI140803
aI140816
aI140827
aI231645
aI1640031
aI547766
aI665163
aI1377895
aI403053
aI140934
aI547779
aI766233
aI1189548
aI665261
aI403132
aI2500326
aI141042
aI173773
aI927477
aI141081
aI1189662
aI1451820
aI665456
aI1189745
aI141172
aI141179
aI403335
aI241986
aI1189885
aI403455
aI1858561
aI141321
aI1452047
aI665657
aI23572
aI141438
aI1072150
aI1976457
aI141494
aI766328
aI141522
aI403759
aI1976626
aI1814922
aI928072
aI2500965
aI141688
aI1452410
aI141708
aI403875
aI373151
aI141774
aI666079
aI403950
aI1976843
aI1714714
aI1452591
aI404033
aI404051
aI1714780
aI1452703
aI404165
aI373196
aI2033442
aI928467
aI666331
aI404192
aI404201
aI88442
aI285828
aI3025732
aI142162
aI2501460
aI404345
aI1190783
aI404357
aI1715088
aI666533
aI404395
aI142263
aI928711
aI853836
aI266609
aI142299
aI404497
aI404501
aI1190934
aI1453080
aI928814
aI404536
aI404568
aI142434
aI142446
aI1191034
aI1191056
aI2764076
aI929075
aI1715579
aI142716
aI142722
aI2239897
aI2239904
aI1453475
aI1191341
aI1191373
aI2239958
aI2764255
aI1977828
aI142822
aI142824
aI2502126
aI1191425
aI1715716
aI2240009
aI405013
aI405018
aI405022
aI67505
aI1116084
aI591801
aI405117
aI142983
aI2240155
aI22221
aI143069
aI810277
aI417065
aI1715960
aI460761
aI1191727
aI667440
aI405303
aI111245
aI143184
aI1191766
aI2240355
aI111256
aI722929
aI143295
aI1454020
aI143305
aI1978330
aI405492
aI405521
aI667690
aI143473
aI1978482
aI1716339
aI1716357
aI143505
aI23921
aI143531
aI30967
aI2240706
aI405725
aI143585
aI930030
aI329769
aI1716487
aI1454346
aI143652
aI67637
aI985143
aI1454436
aI111335
aI143732
aI405906
aI930207
aI1192381
aI810400
aI930271
aI143845
aI360592
aI406009
aI143938
aI143942
aI930391
aI143969
aI143972
aI1979005
aI1454719
aI930450
aI1716909
aI1192702
aI668417
aI1192728
aI668455
aI1717036
aI406323
aI1192761
aI144211
aI930663
aI144244
aI668540
aI406429
aI519818
aI930728
aI144302
aI2241463
aI930748
aI1192906
aI668622
aI1979347
aI2765783
aI1717225
aI668650
aI2765843
aI930847
aI144424
aI144432
aI1717300
aI1160045
aI1193136
aI519827
aI1193148
aI931007
aI144578
aI1116365
aI2503916
aI504701
aI668929
aI825346
aI668951
aI144670
aI668963
aI668970
aI1979703
aI2504013
aI2504021
aI1193321
aI406896
aI373653
aI931258
aI406987
aI931277
aI772981
aI931354
aI407076
aI931366
aI931379
aI2187087
aI592139
aI144983
aI2504283
aI931428
aI2776681
aI145019
aI1980029
aI407170
aI669337
aI1160138
aI407236
aI931530
aI886465
aI407277
aI1072765
aI24195
aI931607
aI145185
aI931622
aI2242355
aI1029089
aI1193808
aI145238
aI1193829
aI1980282
aI931721
aI407438
aI407466
aI1456046
aI1718213
aI145392
aI407549
aI548526
aI231799
aI1194067
aI407651
aI931982
aI145567
aI145574
aI2300586
aI932051
aI286419
aI932108
aI548568
aI1174543
aI2242863
aI199048
aI145757
aI407903
aI145768
aI145775
aI1456500
aI932225
aI407944
aI1203948
aI1194415
aI2767300
aI932307
aI1980918
aI932359
aI408079
aI2243092
aI670234
aI145976
aI932418
aI145989
aI146003
aI146006
aI932440
aI408199
aI932506
aI1719010
aI68051
aI146182
aI1456914
aI1719067
aI408351
aI854492
aI932656
aI408393
aI1981279
aI408440
aI408465
aI146325
aI146347
aI65977
aI146408
aI1195001
aI932899
aI592392
aI1195139
aI493707
aI408738
aI240566
aI1195197
aI146622
aI1253136
aI408808
aI408815
aI1195273
aI670994
aI286595
aI1981720
aI408863
aI2506050
aI933189
aI671092
aI1195383
aI24468
aI933250
aI671116
aI1466267
aI1378888
aI330315
aI146885
aI671187
aI242940
aI1859495
aI330325
aI505088
aI1719862
aI147025
aI409172
aI2506382
aI409283
aI147141
aI1457863
aI671543
aI1457980
aI147265
aI1458016
aI1458028
aI147320
aI933756
aI1815873
aI409486
aI3030934
aI671639
aI147373
aI409524
aI671676
aI2902950
aI2244588
aI417791
aI147463
aI409611
aI147481
aI933926
aI409655
aI1458232
aI671827
aI2506840
aI409744
aI147601
aI2860598
aI1458374
aI1458377
aI671988
aI1196285
aI409875
aI155695
aI409891
aI1458482
aI811071
aI672135
aI1458569
aI410012
aI672186
aI2507230
aI1720816
aI672246
aI2507266
aI1196603
aI112053
aI1196618
aI1458771
aI148059
aI1720938
aI1196670
aI1720972
aI410289
aI410293
aI112079
aI148217
aI1248044
aI410439
aI672586
aI148332
aI1990802
aI74772
aI286871
aI934796
aI148381
aI1196963
aI1510214
aI1684977
aI148423
aI672736
aI1197045
aI934913
aI2245668
aI934960
aI2245707
aI2471439
aI1117029
aI410737
aI3131203
aI410747
aI148607
aI148608
aI410767
aI148631
aI935079
aI2507946
aI854899
aI672958
aI410823
aI410824
aI1459405
aI410860
aI1459442
aI1197313
aI286934
aI148765
aI1197359
aI410946
aI1983814
aI148844
aI148870
aI411022
aI68507
aI1459621
aI148909
aI148926
aI935404
aI1983983
aI935439
aI1984039
aI418057
aI411216
aI411247
aI1197699
aI243314
aI411316
aI411326
aI673471
aI935627
aI811299
aI149206
aI1160825
aI411376
aI24874
aI411393
aI149282
aI149311
aI411459
aI149331
aI1266697
aI149341
aI935779
aI1722236
aI149374
aI68587
aI1722245
aI149392
aI149395
aI149412
aI673726
aI673730
aI673735
aI673759
aI411645
aI592898
aI2246674
aI673901
aI411767
aI411846
aI1722596
aI411902
aI1460495
aI674066
aI149789
aI936231
aI418183
aI149808
aI1198389
aI149818
aI411965
aI1460545
aI936263
aI1597837
aI1597838
aI1460591
aI149872
aI1423083
aI1198474
aI1460626
aI1460628
aI412082
aI1460665
aI1722818
aI149956
aI936414
aI150016
aI1722907
aI1198631
aI118474
aI374537
aI1722944
aI1460830
aI674446
aI150166
aI461937
aI936676
aI243494
aI412390
aI674553
aI2771717
aI2771718
aI936736
aI150333
aI150339
aI150371
aI25066
aI68757
aI936832
aI247159
aI936869
aI150474
aI2247689
aI156164
aI1199132
aI150566
aI937049
aI412763
aI412770
aI150703
aI675006
aI25122
aI1199311
aI150771
aI675065
aI937222
aI937223
aI1199386
aI1335855
aI412957
aI150830
aI767881
aI150882
aI150884
aI1985947
aI150978
aI413127
aI413129
aI2248138
aI1461713
aI112548
aI151004
aI151019
aI1723893
aI287316
aI1292203
aI1199662
aI675383
aI1199731
aI1461893
aI413337
aI675502
aI680565
aI1724097
aI413379
aI413397
aI675552
aI413414
aI1554386
aI151292
aI675589
aI1199882
aI2772755
aI151344
aI675637
aI1462074
aI413501
aI151365
aI151372
aI1986430
aI413569
aI413575
aI2510749
aI937892
aI1986477
aI151501
aI151502
aI1200132
aI413735
aI938024
aI2777778
aI942772
aI151631
aI855395
aI151645
aI151650
aI1724533
aI413872
aI413910
aI899126
aI1462604
aI2511197
aI414058
aI1462636
aI676215
aI414076
aI1947725
aI414173
aI152061
aI3035648
aI152082
aI152109
aI1462846
aI1200715
aI938573
aI414345
aI1725096
aI938694
aI414408
aI1117650
aI414462
aI69083
aI676644
aI414521
aI1463100
aI676675
aI938825
aI2511718
aI676731
aI152449
aI938899
aI3036055
aI938909
aI1073990
aI1987514
aI676803
aI1201103
aI243875
aI1000190
aI152578
aI2249738
aI676877
aI939023
aI1987605
aI152601
aI152602
aI2511915
aI152621
aI1201210
aI1201235
aI2249812
aI152661
aI414813
aI414826
aI1201272
aI1201317
aI1201324
aI677056
aI152794
aI1201371
aI2249962
aI939247
aI1463552
aI1201415
aI1201423
aI677139
aI414997
aI152867
aI3036488
aI152946
aI152948
aI152963
aI152984
aI2250148
aI1947889
aI415157
aI939497
aI1988097
aI1725975
aI200291
aI415320
aI153184
aI415347
aI153225
aI677518
aI1201831
aI153285
aI249518
aI2512617
aI939781
aI549848
aI2512687
aI153393
aI153407
aI939860
aI153430
aI677719
aI1202025
aI415600
aI610305
aI153498
aI287727
aI153503
aI1336310
aI153545
aI287735
aI432836
aI940010
aI415727
aI1726448
aI940020
aI912935
aI153621
aI940057
aI2775083
aI940096
aI153714
aI153728
aI1464452
aI549910
aI1464455
aI415892
aI415893
aI2610869
aI940217
aI940246
aI3037405
aI1988845
aI153980
aI416135
aI940428
aI1989025
aI1464763
aI416206
aI678410
aI154152
aI416300
aI678448
aI943199
aI416335
aI940642
aI1727092
aI1817029
aI287857
aI1465011
aI154306
aI940745
aI416467
aI154325
aI2775766
aI416521
aI1202968
aI940834
aI416549
aI416564
aI1729675
aI154445
aI2775900
aI154461
aI416627
aI154494
aI154496
aI154513
aI1161711
aI154527
aI1203182
aI941045
aI416767
aI154630
aI154640
aI941130
aI154722
aI154726
aI1989739
aI113173
aI1989769
aI154770
aI941206
aI1727645
aI416926
aI156869
aI1203425
aI416996
aI1989884
aI2428802
aI1465623
aI1465624
aI1203489
aI941357
aI154949
aI855950
aI941398
aI154975
aI679277
aI1118101
aI155020
aI812269
aI812272
aI417194
aI1990089
aI417228
aI637517
aI1203673
aI1465828
aI155137
aI417291
aI417292
aI417302
aI417345
aI1990228
aI1203810
aI1203881
aI1203882
aI679600
aI155362
aI417516
aI155392
aI417568
aI941864
aI155438
aI1728309
aI1466188
aI941913
aI1204061
aI25920
aI417685
aI155547
aI2514846
aI1204134
aI1728427
aI2777005
aI1204143
aI2777012
aI417721
aI679894
aI679913
aI155626
aI679916
aI2514942
aI155666
aI1990684
aI2252830
aI942113
aI679982
aI417864
aI2772291
aI1204330
aI942224
aI1204370
aI680093
aI69673
aI462891
aI942391
aI680268
aI680318
aI680327
aI244461
aI2515353
aI418235
aI1728973
aI156116
aI418267
aI2515426
aI156142
aI942596
aI418352
aI680503
aI942671
aI1466970
aI942689
aI1729980
aI156272
aI1686291
aI418439
aI1118321
aI942774
aI1467115
aI1729265
aI244521
aI156410
aI418556
aI418563
aI942852
aI156522
aI680847
aI1467304
aI680925
aI943079
aI156678
aI2035885
aI156695
aI156708
aI624980
aI418859
aI1205299
aI681012
aI681040
aI156755
aI1118394
aI156767
aI156771
aI109970
aI1729689
aI2516131
aI1729773
aI419075
aI1729802
aI2778422
aI943432
aI1729869
aI157027
aI1729909
aI157247
aI157080
aI1729949
aI1205715
aI681444
aI463100
aI157168
aI375722
aI26197
aI419338
aI419371
aI419377
aI157254
aI943690
aI157277
aI1205867
aI419448
aI1424321
aI157324
aI157336
aI1686472
aI419516
aI157404
aI2167078
aI1205997
aI1730307
aI1206052
aI1206062
aI113632
aI485343
aI1992558
aI419705
aI157591
aI944070
aI2779079
aI1716141
aI419788
aI1468366
aI69966
aI419805
aI1992679
aI157672
aI944108
aI2254845
aI157705
aI419863
aI1206301
aI157762
aI944201
aI1206369
aI2517093
aI419970
aI157852
aI419525
aI420001
aI157882
aI420047
aI944336
aI157921
aI2255089
aI1206536
aI682257
aI682263
aI2123487
aI1249675
aI682324
aI1468803
aI158121
aI1206706
aI2255301
aI944593
aI1468919
aI682495
aI1731083
aI1206800
aI1249710
aI944678
aI1206837
aI682559
aI158288
aI1993319
aI158334
aI944768
aI1469061
aI1993366
aI682648
aI944849
aI2517719
aI1207003
aI420593
aI420613
aI113794
aI1337135
aI1207086
aI1731383
aI1469277
aI1207146
aI945034
aI1207195
aI201202
aI158658
aI682965
aI158680
aI158701
aI158730
aI158758
aI1207358
aI1469503
aI683077
aI945226
aI158847
aI420996
aI2256006
aI119772
aI2256028
aI421049
aI683201
aI1031372
aI1993958
aI421113
aI683261
aI421137
aI1731862
aI158999
aI421162
aI945477
aI421195
aI945485
aI1207649
aI421245
aI683444
aI683453
aI1207769
aI1118801
aI421372
aI2256405
aI1207867
aI945742
aI1732176
aI159326
aI1207908
aI1207921
aI1470092
aI159388
aI594544
aI159434
aI683735
aI683739
aI2256606
aI2256629
aI2256633
aI421642
aI421652
aI945945
aI2256686
aI683825
aI159538
aI159570
aI201359
aI421753
aI2256775
aI421784
aI421788
aI159658
aI683965
aI946137
aI684020
aI2256910
aI288773
aI946224
aI159793
aI1732709
aI1208445
aI159874
aI946312
aI1470614
aI2257052
aI422060
aI422080
aI159946
aI159964
aI1162620
aI1208581
aI2257185
aI160082
aI332517
aI1995170
aI422312
aI70386
aI1733060
aI160206
aI2257374
aI946679
aI684549
aI422437
aI684582
aI160300
aI160313
aI1733179
aI684635
aI160361
aI684650
aI160378
aI101361
aI422597
aI684742
aI2519770
aI1471203
aI1250087
aI422651
aI1471231
aI160527
aI160539
aI160577
aI1471314
aI684920
aI1424875
aI684934
aI947114
aI422869
aI422870
aI201554
aI422924
aI1209369
aI160799
aI160811
aI1031689
aI1209430
aI947304
aI114194
aI160887
aI376340
aI1733754
aI2258047
aI947357
aI160950
aI423105
aI1471699
aI1031716
aI685314
aI2782483
aI161081
aI947526
aI1471829
aI685422
aI161161
aI2782628
aI161201
aI685495
aI1209799
aI423373
aI1436932
aI1734130
aI685641
aI1734279
aI161457
aI1210038
aI685760
aI1210060
aI1210071
aI685806
aI423673
aI161575
aI161580
aI1472331
aI685948
aI685962
aI1210260
aI625146
aI1210278
aI686008
aI423868
aI948160
aI686036
aI686041
aI1734635
aI2783229
aI423943
aI423955
aI637082
aI948268
aI423991
aI948283
aI1472628
aI2521214
aI1734803
aI161995
aI2783440
aI1643558
aI857132
aI948550
aI162171
aI1210760
aI686478
aI1210779
aI948652
aI424413
aI424434
aI1473024
aI948774
aI1306033
aI900873
aI424509
aI1210966
aI1735262
aI162407
aI162410
aI1211000
aI162461
aI507675
aI1211095
aI1735406
aI2036867
aI101434
aI1997626
aI70795
aI162634
aI162684
aI162694
aI949147
aI1473446
aI424903
aI162792
aI949266
aI162836
aI949300
aI162895
aI949359
aI162932
aI1997949
aI1473663
aI1735865
aI687315
aI1473751
aI163053
aI1735954
aI949553
aI1211744
aI163186
aI2260356
aI2260362
aI425367
aI687514
aI425406
aI949700
aI687572
aI1211906
aI2522630
aI2522681
aI425533
aI1736287
aI857361
aI1212044
aI163498
aI1474237
aI572834
aI2624159
aI425738
aI687884
aI507864
aI2785047
aI2260761
aI1474402
aI1474421
aI1474434
aI950178
aI950189
aI950199
aI950218
aI1212363
aI163818
aI950252
aI950253
aI764882
aI1818625
aI2523147
aI2823515
aI2785358
aI2255544
aI688213
aI163961
aI1736847
aI426133
aI950427
aI1212596
aI1212605
aI2261204
aI688355
aI1474815
aI1212681
aI426276
aI426329
aI71059
aI164213
aI426360
aI426377
aI426379
aI950670
aI1737117
aI426412
aI426429
aI164299
aI426463
aI688653
aI1999374
aI1212960
aI1999393
aI464306
aI1737285
aI1737321
aI1949808
aI813853
aI114804
aI1737407
aI164553
aI688843
aI164602
aI426756
aI158508
aI1475346
aI1213230
aI426834
aI1166447
aI426877
aI1475461
aI951181
aI164802
aI164835
aI3048442
aI223717
aI164909
aI689206
aI164933
aI1737813
aI1737819
aI164998
aI165009
aI427155
aI951448
aI951467
aI782381
aI165103
aI1475834
aI2000123
aI165119
aI2524447
aI857649
aI1213738
aI427309
aI2786653
aI165216
aI1381951
aI639210
aI427413
aI165292
aI165297
aI165315
aI1213900
aI1476062
aI1213934
aI246014
aI1738252
aI165393
aI427598
aI427622
aI1214055
aI1214089
aI2524814
aI165520
aI689853
aI689867
aI1214163
aI165589
aI689893
aI952046
aI427763
aI165629
aI1214236
aI165674
aI1476401
aI1105376
aI952135
aI1476439
aI165737
aI690032
aI2262910
aI1961634
aI1214417
aI690139
aI428013
aI690164
aI27653
aI2263089
aI1644214
aI1214542
aI1214611
aI3049628
aI2787486
aI166067
aI952526
aI952648
aI1214800
aI166235
aI690553
aI952747
aI166339
aI1477076
aI1119997
aI2525706
aI1245065
aI319787
aI2263584
aI1477200
aI428627
aI690777
aI1215076
aI428665
aI1215106
aI166538
aI428705
aI166589
aI428753
aI166611
aI1477333
aI953068
aI1294802
aI1215222
aI166661
aI690952
aI1215251
aI166678
aI166686
aI1477421
aI953140
aI166712
aI1215291
aI166749
aI166761
aI428916
aI691074
aI2526083
aI691083
aI691105
aI428972
aI1917215
aI2561865
aI166850
aI1215441
aI953327
aI1076393
aI429063
aI166949
aI166955
aI429108
aI901641
aI552116
aI429133
aI1829930
aI167016
aI1739882
aI1382251
aI3050643
aI1163802
aI2788538
aI2526413
aI953550
aI1215724
aI953648
aI953701
aI167365
aI691688
aI1513384
aI167425
aI1216003
aI953896
aI595909
aI2561993
aI1216246
aI1740554
aI167735
aI167745
aI692054
aI692065
aI167814
aI429972
aI2264997
aI692168
aI167925
aI954358
aI167973
aI692263
aI167980
aI430128
aI692275
aI1731935
aI508601
aI2527322
aI1216609
aI1207655
aI1478764
aI246461
aI168086
aI2789554
aI1216702
aI168175
aI168196
aI168212
aI168233
aI954680
aI692560
aI168288
aI2789764
aI954761
aI430480
aI430482
aI1216956
aI2527678
aI1120333
aI1216976
aI954843
aI290213
aI954852
aI159145
aI168465
aI430615
aI168493
aI1217087
aI168548
aI955011
aI1217178
aI168657
aI955107
aI1217253
aI1741542
aI377639
aI1479414
aI2790141
aI168703
aI2003763
aI430904
aI1741671
aI430954
aI433344
aI955261
aI1122939
aI2982225
aI1479570
aI814576
aI431012
aI693166
aI1295179
aI168903
aI431053
aI168986
aI1741864
aI28169
aI169045
aI2528372
aI115563
aI955526
aI693387
aI1479833
aI431270
aI1479853
aI169150
aI639868
aI2004206
aI1445926
aI431356
aI431359
aI2004265
aI431415
aI169277
aI182690
aI431441
aI1480018
aI639891
aI169346
aI2266536
aI169397
aI1218010
aI2004459
aI693752
aI693765
aI1218054
aI431639
aI1742376
aI1513735
aI169534
aI1480268
aI596242
aI431769
aI1251613
aI693959
aI1218254
aI377816
aI169754
aI169781
aI159369
aI2518666
aI2791256
aI431998
aI432021
aI694184
aI956341
aI1218500
aI432115
aI170013
aI1480740
aI1218598
aI170028
aI432209
aI694378
aI432248
aI432259
aI1218762
aI170196
aI170224
aI432378
aI956671
aI956691
aI2791703
aI2791708
aI694576
aI1218881
aI1743201
aI1481061
aI170383
aI694691
aI1218985
aI902217
aI170443
aI432589
aI694736
aI170451
aI956884
aI432649
aI432657
aI694804
aI1481262
aI1219125
aI1219137
aI2267723
aI170587
aI170619
aI957055
aI1481345
aI432806
aI170664
aI957103
aI1743551
aI1481408
aI957130
aI1943531
aI432859
aI115835
aI3054317
aI1481472
aI432903
aI170781
aI1426565
aI170842
aI2530139
aI432997
aI2792338
aI1219487
aI433078
aI170974
aI957407
aI1743852
aI2006009
aI171012
aI695343
aI171061
aI2792531
aI957548
aI814956
aI695443
aI1120793
aI957595
aI433314
aI695461
aI1366353
aI433348
aI433374
aI957731
aI1219955
aI2006403
aI171461
aI2530763
aI171469
aI989774
aI1482207
aI433646
aI2006556
aI171585
aI2530885
aI958051
aI3055219
aI433789
aI433790
aI433814
aI2006690
aI433835
aI1220269
aI2006839
aI1220409
aI696130
aI378167
aI206491
aI57010
aI696216
aI958370
aI1482709
aI958431
aI1482726
aI434171
aI958464
aI2269200
aI696358
aI1178729
aI2269278
aI1120958
aI958602
aI958614
aI172211
aI381083
aI958670
aI696538
aI203476
aI696632
aI172363
aI72420
aI1221005
aI1121008
aI1483186
aI72437
aI958918
aI696792
aI3056090
aI72443
aI958954
aI959053
aI1221203
aI434793
aI434799
aI1745544
aI959118
aI2007748
aI697031
aI697099
aI959251
aI172821
aI697114
aI959263
aI334642
aI435003
aI2794315
aI435093
aI697243
aI697281
aI1221571
aI173074
aI1489700
aI1221660
aI173101
aI173149
aI697449
aI173206
aI422085
aI1221807
aI435394
aI697560
aI435436
aI2532621
aI697630
aI173355
aI203657
aI2532674
aI173421
aI697711
aI697715
aI435583
aI435605
aI1746344
aI1208563
aI173514
aI1484294
aI960048
aI697909
aI2795068
aI1164899
aI2563001
aI173670
aI173677
aI173689
aI509551
aI698040
aI960195
aI435912
aI2533082
aI435978
aI1222420
aI1222425
aI1746750
aI2271039
aI173892
aI91362
aI72673
aI1316213
aI1306419
aI1427098
aI1222564
aI1484739
aI436166
aI436176
aI1484779
aI1746952
aI960524
aI960558
aI1222712
aI1427124
aI174144
aI960619
aI174230
aI436376
aI1427144
aI72746
aI1485064
aI960778
aI174349
aI3057934
aI640731
aI960828
aI436560
aI1485216
aI1485235
aI2271680
aI174574
aI961018
aI961028
aI961113
aI961125
aI436841
aI1223291
aI247573
aI961159
aI174728
aI961215
aI2534090
aI1223376
aI1733070
aI1747706
aI2534148
aI174868
aI2362664
aI437025
aI961314
aI174884
aI699224
aI2534236
aI699233
aI203925
aI174982
aI961480
aI175051
aI961487
aI175070
aI1223693
aI437282
aI1223719
aI175153
aI175156
aI782719
aI961737
aI175308
aI2519589
aI961810
aI1223962
aI116614
aI175422
aI116621
aI1224016
aI2432230
aI175469
aI437624
aI1140620
aI437679
aI961977
aI437703
aI175645
aI962111
aI378806
aI1224272
aI1486440
aI772035
aI2797230
aI2797275
aI175849
aI2213842
aI700174
aI700180
aI1748763
aI815749
aI1748769
aI700209
aI700232
aI2535242
aI175976
aI291475
aI597310
aI2011019
aI962452
aI2797476
aI1486762
aI903163
aI101884
aI438319
aI1165320
aI176180
aI378897
aI1034258
aI73070
aI176291
aI176336
aI438512
aI2273540
aI438544
aI946904
aI2011421
aI1749281
aI176430
aI946915
aI176496
aI510017
aI176549
aI700848
aI176569
aI2535866
aI1225162
aI176597
aI438742
aI597419
aI963076
aI378968
aI963103
aI176741
aI1225328
aI1225337
aI176765
aI176769
aI1340183
aI612206
aI1296497
aI176818
aI438970
aI1749693
aI2273992
aI438992
aI2798291
aI176873
aI1225463
aI1749753
aI176897
aI2223067
aI439058
aI2274071
aI176958
aI2536255
aI176974
aI963412
aI439171
aI728556
aI439194
aI379039
aI177136
aI177145
aI177154
aI177161
aI1487882
aI1487886
aI439317
aI439368
aI728593
aI439407
aI963700
aI701560
aI439427
aI2274471
aI177324
aI1225917
aI1225993
aI2012441
aI177492
aI177520
aI439667
aI701813
aI701829
aI2536842
aI177567
aI439716
aI1034484
aI701884
aI439751
aI439788
aI439793
aI177701
aI964135
aI2012715
aI337621
aI177728
aI177758
aI702048
aI1226354
aI177784
aI439945
aI439963
aI259562
aI440010
aI177883
aI177920
aI1488644
aI177931
aI440076
aI903469
aI772399
aI1226540
aI702290
aI178003
aI2799472
aI178033
aI2013044
aI1750904
aI178042
aI178060
aI964506
aI2013115
aI1488843
aI964592
aI2013169
aI1751027
aI641367
aI440336
aI1226804
aI178274
aI1226852
aI1489009
aI964741
aI702599
aI178341
aI702638
aI440502
aI178382
aI440558
aI178433
aI440602
aI2738565
aI2799949
aI178526
aI964976
aI1777388
aI1227152
aI965016
aI178597
aI1865233
aI702948
aI440827
aI965146
aI1122053
aI178753
aI178758
aI1489493
aI1751640
aI2013835
aI1489639
aI859955
aI179057
aI179068
aI772590
aI703382
aI965535
aI441250
aI1227732
aI965593
aI965648
aI441368
aI179233
aI1752121
aI1752193
aI441478
aI2538644
aI703693
aI1228015
aI703759
aI3063077
aI554205
aI510515
aI965979
aI441692
aI1751787
aI1027277
aI179573
aI320226
aI2014619
aI1228193
aI179630
aI1228221
aI966078
aI966082
aI179741
aI441899
aI441902
aI1490482
aI441907
aI966196
aI1490530
aI1490555
aI179850
aI179864
aI1228454
aI966314
aI2539189
aI442041
aI179910
aI179991
aI966474
aI704335
aI966491
aI704374
aI180090
aI1228672
aI180100
aI442255
aI442256
aI966550
aI1463748
aI335858
aI180145
aI180152
aI966590
aI1490882
aI704513
aI198040
aI180239
aI1490962
aI180244
aI180247
aI180258
aI966698
aI442451
aI1228887
aI704616
aI180335
aI1491081
aI2083523
aI491770
aI248521
aI442558
aI180416
aI1229023
aI2015517
aI180516
aI180524
aI1229103
aI180538
aI442716
aI180573
aI442720
aI442724
aI110762
aI1229192
aI442785
aI180650
aI180659
aI967100
aI442468
aI180674
aI967142
aI442856
aI2277872
aI967154
aI204883
aI705048
aI180770
aI180784
aI442945
aI705175
aI967330
aI1035041
aI2015965
aI967426
aI2214701
aI641838
aI1148194
aI181065
aI443217
aI1753943
aI181106
aI1297214
aI181136
aI181144
aI181150
aI1754020
aI443310
aI2540471
aI2802622
aI967638
aI1690448
aI967659
aI2278380
aI443387
aI1492005
aI2739041
aI181336
aI705635
aI443515
aI2016386
aI443523
aI1492106
aI705676
aI729282
aI1690481
aI2278573
aI2564301
aI705773
aI181497
aI1230123
aI443716
aI968016
aI2016628
aI968064
aI3065232
aI1754572
aI641955
aI1230360
aI968261
aI706119
aI181836
aI444028
aI1230475
aI181915
aI706204
aI1230594
aI706317
aI968490
aI2541416
aI1492861
aI968589
aI182173
aI74057
aI968632
aI1492947
aI379897
aI2541560
aI1122645
aI182275
aI1230853
aI1230864
aI182289
aI706628
aI706650
aI1755242
aI182393
aI1297972
aI74098
aI182462
aI706780
aI968951
aI968969
aI706836
aI2803994
aI968988
aI93370
aI182590
aI182629
aI154476
aI182668
aI773189
aI182693
aI182705
aI1493432
aI1493439
aI2542027
aI182768
aI598445
aI416352
aI707111
aI182837
aI3066467
aI1493608
aI969325
aI1231484
aI445112
aI182971
aI445131
aI1253844
aI2542332
aI183037
aI445190
aI969494
aI183100
aI183110
aI707399
aI707414
aI183172
aI2804617
aI445322
aI3001496
aI183203
aI445350
aI445367
aI2018247
aI183251
aI2804703
aI445452
aI707608
aI445468
aI183328
aI329079
aI2018340
aI969784
aI445517
aI685923
aI969812
aI707671
aI183395
aI183397
aI445543
aI707693
aI183406
aI3067018
aI1122840
aI2018455
aI607013
aI183528
aI2804972
aI445715
aI183579
aI2542919
aI183652
aI337819
aI1428716
aI1341338
aI708036
aI445901
aI970200
aI1756636
aI183828
aI970308
aI1847951
aI2281056
aI183915
aI2543279
aI642340
aI708333
aI446210
aI1494802
aI446229
aI879034
aI184100
aI446251
aI1232685
aI708434
aI708436
aI970616
aI184201
aI446357
aI184234
aI446407
aI241821
aI446461
aI2281472
aI184325
aI446496
aI708646
aI446515
aI446529
aI205494
aI2783244
aI1757258
aI2805846
aI860857
aI446552
aI1690982
aI1233018
aI446591
aI184456
aI1495181
aI184499
aI3068108
aI184536
aI184581
aI118145
aI446738
aI2040537
aI184601
aI446746
aI2708960
aI971040
aI971041
aI416412
aI184646
aI292921
aI971127
aI1495442
aI184730
aI446885
aI467705
aI184792
aI2544089
aI608457
aI74491
aI446963
aI446976
aI2652246
aI2282011
aI1865826
aI118201
aI971355
aI336656
aI161895
aI971423
aI184998
aI3008950
aI185022
aI185031
aI185034
aI185041
aI447191
aI922712
aI709399
aI185130
aI971566
aI1123123
aI2695990
aI971592
aI1758037
aI1758051
aI447369
aI971684
aI1210528
aI447426
aI1758149
aI2544584
aI185310
aI185322
aI2020340
aI971808
aI709689
aI1496122
aI1743253
aI447599
aI185541
aI2806996
aI185565
aI709881
aI185596
aI709910
aI1496362
aI185655
aI185657
aI3069254
aI447822
aI205711
aI447842
aI92018
aI185722
aI185723
aI992151
aI710051
aI710064
aI185799
aI972241
aI185840
aI511571
aI972285
aI2545172
aI642653
aI185919
aI448078
aI861114
aI1496675
aI467900
aI185971
aI2283165
aI74694
aI186035
aI448192
aI2914592
aI642680
aI710360
aI2283238
aI186099
aI448244
aI2021114
aI186123
aI2021142
aI448296
aI1759028
aI710480
aI1759063
aI972647
aI467944
aI2021252
aI972684
aI2827250
aI186338
aI1497059
aI186359
aI380587
aI2021409
aI2021412
aI448551
aI186429
aI1235040
aI448625
aI972932
aI2215617
aI972946
aI2283678
aI118469
aI249543
aI162167
aI710877
aI224440
aI2545936
aI186663
aI448810
aI186674
aI711031
aI74815
aI1235336
aI31136
aI2546136
aI711129
aI1497565
aI186858
aI1497579
aI2021883
aI186880
aI711170
aI2546262
aI1759845
aI1235565
aI1235584
aI1497729
aI449187
aI2040095
aI711347
aI2546418
aI187141
aI973580
aI449310
aI449325
aI187206
aI449355
aI973667
aI2284431
aI1235867
aI2022301
aI187309
aI1760178
aI187343
aI617271
aI293369
aI711654
aI711659
aI449553
aI2022428
aI711718
aI187464
aI1236045
aI774398
aI1236051
aI2284641
aI187492
aI449652
aI1236099
aI449693
aI2022562
aI187570
aI2022595
aI861388
aI449739
aI187606
aI1236185
aI1236217
aI1498389
aI861403
aI187702
aI1498427
aI449856
aI31288
aI187730
aI468195
aI449886
aI974186
aI2022845
aI712183
aI599307
aI187986
aI450139
aI2023013
aI974442
aI188014
aI974474
aI974485
aI2285214
aI712358
aI188090
aI188094
aI188107
aI450271
aI285594
aI188167
aI372887
aI1254709
aI188264
aI188331
aI1499066
aI450496
aI450534
aI460184
aI1499142
aI2547739
aI188449
aI188453
aI2547753
aI1237040
aI712765
aI188496
aI905230
aI2023533
aI450743
aI75126
aI188622
aI188626
aI975066
aI774183
aI450812
aI712960
aI2023728
aI1237297
aI713047
aI1237347
aI713106
aI188822
aI450989
aI975292
aI188865
aI451013
aI118860
aI1761749
aI2548187
aI914111
aI1761838
aI2023987
aI2546444
aI1237575
aI1237610
aI1237617
aI451192
aI189058
aI2548394
aI451243
aI713414
aI1237711
aI75215
aI189186
aI2286380
aI555830
aI975700
aI189293
aI1762193
aI975773
aI713646
aI1762224
aI189361
aI451518
aI2810825
aI451540
aI451590
aI975887
aI451600
aI2810910
aI713773
aI451634
aI189516
aI975959
aI1238164
aI189608
aI468508
aI643271
aI1910301
aI713937
aI976095
aI2024692
aI381140
aI2548988
aI714009
aI976155
aI451894
aI2024761
aI818060
aI451941
aI451951
aI381161
aI512605
aI2286990
aI31641
aI189849
aI714146
aI2287012
aI714151
aI2549202
aI259466
aI1238522
aI189950
aI189974
aI835585
aI189992
aI190007
aI23786
aI949067
aI452307
aI190189
aI1238771
aI190200
aI190201
aI1211349
aI714501
aI190223
aI452372
aI1342427
aI1910406
aI1763110
aI1763165
aI714618
aI714665
aI1238957
aI2287538
aI1501182
aI390581
aI1763363
aI976947
aI190566
aI452723
aI190596
aI452752
aI1239189
aI977081
aI714965
aI714968
aI714969
aI1763562
aI977143
aI715056
aI2025784
aI977244
aI190816
aI2828006
aI1239406
aI452991
aI190857
aI453005
aI715171
aI1501613
aI190896
aI2550264
aI643500
aI190986
aI250286
aI2812438
aI206599
aI191064
aI1501794
aI191084
aI977520
aI1501853
aI1036741
aI1239718
aI191148
aI1501870
aI715454
aI2812610
aI453331
aI977676
aI191259
aI453435
aI191300
aI715592
aI818316
aI1561062
aI1239939
aI191367
aI453513
aI1239967
aI2026417
aI453590
aI453594
aI453596
aI2550754
aI191459
aI1692156
aI977919
aI453708
aI978005
aI993126
aI1764456
aI191596
aI453767
aI993133
aI1342661
aI31945
aI1472862
aI978136
aI2813148
aI294097
aI2026742
aI716076
aI191797
aI243943
aI1764693
aI454017
aI469029
aI3075488
aI978360
aI2813377
aI191969
aI1764836
aI1240557
aI978502
aI978525
aI978558
aI978567
aI454312
aI1765039
aI454322
aI1240763
aI1502932
aI978676
aI1240839
aI978756
aI454470
aI1765193
aI978769
aI1240930
aI192373
aI454533
aI1503130
aI2129224
aI1503155
aI2303988
aI192444
aI454597
aI2027465
aI978917
aI1765353
aI454638
aI454671
aI454686
aI905906
aI1241141
aI979000
aI1241193
aI250560
aI591261
aI1241244
aI2959387
aI1255453
aI1241276
aI717027
aI1241334
aI1241335
aI192801
aI1503535
aI454967
aI1765692
aI2027839
aI119527
aI455020
aI128629
aI600132
aI717214
aI192958
aI979401
aI192976
aI1241558
aI993366
aI193033
aI717341
aI1503780
aI979505
aI979507
aI717398
aI455257
aI193128
aI1503849
aI979590
aI1503886
aI717457
aI1241765
aI717481
aI717520
aI193246
aI193256
aI455417
aI3076872
aI979722
aI455449
aI193315
aI979752
aI717630
aI193385
aI1588217
aI979879
aI2028459
aI2028461
aI193467
aI455615
aI1242054
aI193509
aI1242093
aI1766382
aI2791009
aI800788
aI1242146
aI717898
aI818703
aI193634
aI717932
aI980092
aI455814
aI2815172
aI2028750
aI455900
aI193772
aI1766655
aI1242380
aI1504556
aI193850
aI193874
aI1242461
aI193886
aI193892
aI2291056
aI193906
aI980344
aI456062
aI456073
aI1037210
aI2291134
aI456135
aI718287
aI1766868
aI980439
aI980442
aI980454
aI1242601
aI980472
aI718339
aI194065
aI456228
aI980520
aI980521
aI163423
aI456274
aI1242826
aI2291424
aI2553639
aI512994
aI1255737
aI456564
aI1505146
aI980869
aI1243038
aI718764
aI1505221
aI1767366
aI2029566
aI194566
aI456719
aI194609
aI981045
aI194639
aI718972
aI2029739
aI194764
aI1505487
aI1243350
aI456956
aI381995
aI1692719
aI981284
aI1243436
aI1243464
aI719212
aI981405
aI194978
aI194982
aI719292
aI32502
aI457208
aI1505792
aI719363
aI76205
aI1767992
aI195130
aI1768043
aI981715
aI457444
aI2554605
aI111991
aI1506071
aI1768226
aI1768232
aI1768238
aI719673
aI1243985
aI1243996
aI981868
aI1244013
aI1506175
aI3079042
aI981892
aI195463
aI1506264
aI982007
aI2086065
aI195625
aI993803
aI982084
aI2030691
aI719988
aI982149
aI1506440
aI720030
aI1506465
aI906442
aI513227
aI1168588
aI195802
aI2292966
aI195823
aI457982
aI720133
aI1649198
aI1244442
aI720161
aI720163
aI720176
aI720186
aI982341
aI195912
aI1244489
aI2817371
aI720236
aI195956
aI2030972
aI458157
aI1768894
aI1244610
aI196068
aI1244652
aI196095
aI458248
aI982542
aI196134
aI720436
aI1168654
aI720489
aI196211
aI458365
aI458368
aI458370
aI906523
aI1219872
aI720569
aI1686001
aI196315
aI1769213
aI458501
aI2817802
aI458509
aI233495
aI1769273
aI458561
aI196455
aI1387157
aI3080094
aI458668
aI294905
aI196596
aI1245240
aI1507393
aI196683
aI775523
aI1256121
aI458901
aI1245344
aI721079
aI458968
aI196838
aI196852
aI196869
aI459093
aI196963
aI1245545
aI721269
aI983430
aI197011
aI459185
aI2032064
aI459233
aI197091
aI197101
aI2556407
aI1770031
aI197198
aI459347
aI197205
aI983645
aI2556517
aI197229
aI721525
aI459413
aI459431
aI2294456
aI1125151
aI197319
aI197325
aI2556654
aI459557
aI459572
aI459579
aI1263556
aI983881
aI1246027
aI1649466
aI197473
aI983949
aI197532
aI197574
aI459743
aI644603
aI197606
aI197610
aI3081206
aI197657
aI1508387
aI197680
aI197685
aI1246262
aI2032712
aI459886
aI197772
aI1508506
aI197788
aI197831
aI459981
aI1770716
aI1508629
aI1508671
aI984393
aI1770831
aI1246574
aI644669
aI198006
aI460156
aI2819469
aI722362
aI198087
aI198108
aI198153
aI1019167
aI460306
aI198164
aI469935
aI984618
aI1508907
aI460343
aI198212
aI2033265
aI198274
aI722565
aI460449
aI120444
aI984823
aI984830
aI1900748
aI1509129
aI460557
aI338904
aI722760
aI722762
aI460638
aI722783
aI1420715
aI198536
aI1771402
aI1509264
aI513690
aI985012
aI985051
aI2033637
aI460785
aI460790
aI775849
aI460802
aI3082247
aI722952
aI2033675
aI3082272
aI2033703
aI1247302
aI985184
aI985210
aI723113
aI1673868
aI1509578
aI1518628
aI118293
aI198935
aI985369
aI2558244
aI198996
aI461237
aI1247705
aI199148
aI199163
aI1737130
aI76465
aI1247781
aI723506
aI199249
aI1516759
aI985715
aI199288
aI259705
aI199305
aI723618
aI461499
aI199397
aI513838
aI1649804
aI985949
aI199536
aI2558882
aI723920
aI1081849
aI2034653
aI461800
aI120044
aI251741
aI986169
aI1562474
aI986283
aI2821298
aI462006
aI1248472
aI986385
aI986387
aI462113
aI732379
aI2559313
aI1772907
aI986485
aI724361
aI1780973
aI986516
aI93953
aI2559412
aI1248724
aI986593
aI200166
aI1510905
aI724506
aI120753
aI1868384
aI462408
aI1912077
aI1248861
aI462445
aI986760
aI724626
aI462512
aI1773233
aI3083955
aI77087
aI200410
aI2821894
aI462604
aI986903
aI200477
aI1281004
aI2821954
aI724835
aI897041
aI462728
aI863555
aI200609
aI1249225
aI2822093
aI3084258
aI1249271
aI2035715
aI725003
aI462870
aI725021
aI462936
aI987244
aI462963
aI1773699
aI1249416
aI1824795
aI200898
aI987339
aI463052
aI200924
aI987358
aI2298085
aI987401
aI776244
aI725306
aI2560319
aI987457
aI463196
aI1511776
aI987490
aI987492
aI987519
aI1774001
aI463304
aI1249744
aI463324
aI201197
aI1511951
aI201251
aI201306
aI645226
aI987777
aI93995
aI2036372
aI201393
aI987847
aI201498
aI201506
aI77278
aI201530
aI1250107
aI1774411
aI201557
aI463721
aI1512308
aI988052
aI201672
aI463824
aI77308
aI201722
aI1250303
aI617750
aI463897
aI1774618
aI726047
aI1774643
aI1250357
aI201794
aI726092
aI242405
aI463994
aI2036866
aI77335
aI1541137
aI201906
aI2299084
aI726239
aI2036983
aI201986
aI202007
aI202009
aI202020
aI464166
aI464188
aI202085
aI1512836
aI726422
aI202160
aI1250772
aI202214
aI202224
aI1512950
aI202242
aI202275
aI1513024
aI1041842
aI77409
aI3085932
aI202375
aI988828
aI202431
aI464581
aI2299638
aI202504
aI202553
aI726845
aI464709
aI726863
aI464744
aI2037610
aI2037653
aI1775528
aI726954
aI1251254
aI202694
aI1775561
aI2299864
aI202722
aI989169
aI1082367
aI1513504
aI464988
aI1257146
aI464991
aI1513568
aI989324
aI727201
aI465076
aI2824390
aI1251549
aI1251570
aI203018
aI465179
aI203036
aI1169798
aI2300217
aI465223
aI727371
aI2562421
aI465274
aI2824571
aI1251715
aI727429
aI33857
aI727432
aI727439
aI465323
aI203200
aI203204
aI465378
aI1514010
aI1251870
aI989747
aI33889
aI727674
aI989857
aI864027
aI465582
aI2300597
aI203459
aI2038468
aI1252040
aI296055
aI2305826
aI465620
aI2824919
aI776658
aI2300708
aI465710
aI203573
aI203576
aI203583
aI1252169
aI203600
aI1252186
aI3087209
aI2786452
aI1776510
aI203705
aI1776597
aI728023
aI1776603
aI2038768
aI990208
aI990223
aI1252368
aI203802
aI728102
aI740027
aI121356
aI1252434
aI203882
aI728184
aI2301056
aI203907
aI203908
aI1514645
aI32978
aI203968
aI1252595
aI990461
aI2301185
aI1126273
aI204042
aI466191
aI466250
aI2563422
aI1514861
aI204143
aI990596
aI990616
aI1777058
aI204205
aI1777072
aI1777090
aI530543
aI466402
aI614135
aI990750
aI728610
aI1515052
aI204371
aI155201
aI466590
aI2563754
aI2031946
aI466631
aI466646
aI204512
aI728812
aI204547
aI252552
aI204594
aI1777471
aI2039619
aI2301782
aI951609
aI991065
aI204634
aI208871
aI1560584
aI204665
aI1253250
aI1126380
aI728971
aI466862
aI204769
aI204782
aI204786
aI204788
aI1515522
aI204840
aI204845
aI1515592
aI2039932
aI729239
aI729242
aI204965
aI729261
aI204984
aI2040040
aI991479
aI1515819
aI991538
aI645854
aI467257
aI1515834
aI34201
aI729513
aI467379
aI2782669
aI2564545
aI729539
aI2564557
aI467411
aI205292
aI1516042
aI467473
aI991778
aI991788
aI3088947
aI467512
aI3136271
aI205426
aI467592
aI2302643
aI467648
aI205512
aI205521
aI205528
aI2655695
aI2040545
aI2040552
aI471164
aI2564847
aI205585
aI729881
aI1778465
aI205608
aI467764
aI1254208
aI730001
aI467874
aI467968
aI1254417
aI1953431
aI1516597
aI1516709
aI383861
aI206020
aI1254628
aI1254659
aI121735
aI252808
aI1516873
aI1254730
aI1516879
aI468304
aI2565457
aI468311
aI121747
aI2189127
aI1254812
aI1779136
aI730589
aI206367
aI2303568
aI206417
aI2827885
aI3090039
aI730759
aI206476
aI689775
aI2041542
aI1388837
aI1255142
aI206591
aI1255173
aI1255181
aI468763
aI206674
aI993109
aI2136768
aI1517453
aI1255317
aI731040
aI2566052
aI1517501
aI993246
aI2041850
aI1779715
aI206854
aI1255433
aI731174
aI731183
aI515085
aI1517648
aI469077
aI2041950
aI78182
aI1517678
aI469106
aI731262
aI2041986
aI993416
aI731284
aI469153
aI1517735
aI207036
aI469201
aI469218
aI469220
aI1517798
aI1255656
aI1517816
aI1255713
aI469300
aI207161
aI1255746
aI1613043
aI207223
aI207238
aI1255825
aI469414
aI1563723
aI993742
aI207313
aI731620
aI731650
aI207364
aI207421
aI471478
aI2042457
aI993892
aI1518182
aI121971
aI2304702
aI207552
aI2829009
aI2042583
aI207596
aI207604
aI253056
aI207646
aI207652
aI207666
aI908425
aI994125
aI1256278
aI1518429
aI731998
aI340455
aI732016
aI994168
aI207764
aI207776
aI384155
aI207791
aI2304962
aI2042841
aI207868
aI1780772
aI994342
aI470062
aI207927
aI207935
aI1256525
aI78351
aI732284
aI1256583
aI208013
aI470184
aI732347
aI208065
aI732374
aI732454
aI994605
aI208180
aI120410
aI470365
aI967131
aI122101
aI470477
aI1256914
aI1781206
aI208344
aI2043355
aI470535
aI994834
aI559026
aI208446
aI1432843
aI1519178
aI732771
aI1782379
aI208576
aI208581
aI995020
aI2567911
aI995052
aI208660
aI470838
aI1237744
aI995139
aI995156
aI233906
aI470912
aI1607660
aI1257372
aI208809
aI2337609
aI995333
aI471070
aI471136
aI864955
aI995429
aI471149
aI471160
aI733309
aI2568341
aI733345
aI471213
aI471214
aI995548
aI2044135
aI471272
aI733456
aI471324
aI1257771
aI471341
aI2568511
aI34880
aI1520019
aI471481
aI1257932
aI209359
aI995822
aI2830842
aI209427
aI995876
aI995891
aI471607
aI209467
aI995926
aI209513
aI1520285
aI209574
aI996017
aI209591
aI1782481
aI209629
aI1258206
aI1520364
aI471795
aI1258245
aI209691
aI602928
aI521996
aI209706
aI384484
aI734069
aI209856
aI996305
aI472020
aI1782745
aI209899
aI1520640
aI472109
aI472111
aI734276
aI472134
aI1782868
aI996493
aI210070
aI2045079
aI1695258
aI2307233
aI210102
aI2045131
aI472270
aI1782997
aI78716
aI210216
aI472393
aI1783115
aI996695
aI210271
aI1783163
aI210344
aI908874
aI210368
aI210380
aI734687
aI1039952
aI734691
aI210421
aI384598
aI210445
aI1521217
aI210526
aI1259109
aI1521258
aI1913790
aI210559
aI2045570
aI210563
aI734860
aI2307753
aI2045611
aI472772
aI472792
aI996309
aI734984
aI210713
aI1521453
aI472883
aI1083704
aI2570072
aI210780
aI1651690
aI1258479
aI1259426
aI384673
aI997330
aI1521627
aI472058
aI473070
aI1259510
aI473081
aI735284
aI2308157
aI473181
aI1521765
aI1521776
aI211070
aI559467
aI997555
aI1784003
aI473286
aI211149
aI646863
aI2570465
aI2438182
aI211197
aI211205
aI211232
aI473395
aI996405
aI211277
aI233598
aI997782
aI2046372
aI735680
aI1214885
aI473622
aI473655
aI211563
aI35264
aI473792
aI473798
aI211665
aI211674
aI341117
aI211701
aI1784585
aI1522462
aI1260322
aI998181
aI211760
aI1522522
aI1522562
aI998299
aI474034
aI122697
aI253773
aI211920
aI1784818
aI1522691
aI2571313
aI474171
aI474189
aI474193
aI2571376
aI736391
aI1260702
aI474287
aI2088822
aI734413
aI1260778
aI212211
aI212215
aI736518
aI474375
aI998668
aI998692
aI778118
aI2833718
aI998759
aI1260904
aI1260926
aI1523072
aI1785223
aI1523120
aI1785339
aI2833924
aI998938
aI998965
aI1523263
aI1785412
aI212555
aI1261157
aI212589
aI1261166
aI999043
aI1523342
aI474780
aI736937
aI212665
aI736961
aI212678
aI210211
aI2875348
aI212731
aI737040
aI1957849
aI1523490
aI474986
aI212862
aI1261439
aI212870
aI1523648
aI999375
aI1040376
aI1785811
aI212952
aI2047962
aI2310111
aI166566
aI475150
aI35501
aI909317
aI475217
aI999506
aI1290264
aI2834520
aI213098
aI213136
aI2310289
aI210290
aI737455
aI631913
aI1786065
aI2834652
aI516138
aI213269
aI475456
aI475472
aI737636
aI999782
aI690924
aI475551
aI999865
aI2048448
aI2572756
aI213464
aI213480
aI1371872
aI1262066
aI1262067
aI999924
aI737790
aI2310673
aI213525
aI1262104
aI737842
aI1564766
aI475746
aI475756
aI737925
aI475829
aI2310866
aI213717
aI213725
aI1000159
aI738017
aI1524450
aI213758
aI2573093
aI321366
aI2573153
aI213901
aI476048
aI603633
aI1262542
aI2311148
aI476142
aI2573304
aI214010
aI2573309
aI1262652
aI1786972
aI1262686
aI476260
aI214149
aI2311327
aI214178
aI2049208
aI1787081
aI214260
aI1000753
aI476467
aI2311528
aI2049397
aI738708
aI738711
aI214429
aI1525165
aI738746
aI214477
aI214525
aI1000959
aI1787394
aI1525291
aI476716
aI461055
aI1001027
aI476747
aI476791
aI214668
aI476828
aI476846
aI476860
aI210549
aI2049736
aI214756
aI2574080
aI461062
aI214790
aI214792
aI739090
aI1805335
aI476992
aI822240
aI477008
aI214890
aI214892
aI1787809
aI1525682
aI1263543
aI739270
aI477127
aI1263565
aI2312175
aI215030
aI215039
aI1001490
aI1787973
aI254307
aI385387
aI477349
aI1001686
aI477399
aI1263838
aI215266
aI477415
aI477420
aI477454
aI215311
aI2312474
aI2312497
aI477494
aI1263942
aI866022
aI1128171
aI1788390
aI1264138
aI15907
aI2312749
aI984832
aI477771
aI2312796
aI739937
aI215651
aI739950
aI123336
aI477878
aI1264321
aI215752
aI1264369
aI2837260
aI215887
aI1264476
aI234145
aI1264545
aI2575266
aI215974
aI216011
aI216021
aI2307921
aI216063
aI478209
aI216074
aI216104
aI216111
aI740409
aI1264705
aI129404
aI1789072
aI478380
aI1264826
aI478399
aI2482720
aI740553
aI216287
aI1002790
aI36061
aI216374
aI2051392
aI216431
aI2051454
aI1789356
aI216517
aI1527244
aI1527284
aI516701
aI85776
aI478831
aI1003142
aI2176962
aI216742
aI1003189
aI735177
aI216764
aI1827453
aI1527544
aI478995
aI1789724
aI1652704
aI216911
aI2051925
aI2314073
aI216941
aI2051952
aI741249
aI429377
aI2817976
aI1265572
aI3007132
aI1003444
aI217019
aI479180
aI1696418
aI217071
aI217079
aI1265660
aI2052097
aI741404
aI1914887
aI254643
aI1265724
aI741442
aI1003608
aI217189
aI217197
aI217269
aI741558
aI1265850
aI1172174
aI217324
aI217332
aI2052346
aI217389
aI1003886
aI479610
aI3101090
aI452425
aI741849
aI1266191
aI217672
aI1528401
aI1790571
aI479863
aI217731
aI742033
aI321496
aI479900
aI217761
aI1790644
aI36305
aI479989
aI217850
aI217862
aI1004307
aI1528610
aI130640
aI1790800
aI1266551
aI1266600
aI218028
aI1565512
aI391338
aI1004477
aI218065
aI2315238
aI218098
aI1790964
aI218105
aI742404
aI742409
aI1266705
aI218139
aI742467
aI742469
aI218196
aI1791103
aI1528985
aI480417
aI480431
aI480483
aI480536
aI2053415
aI2577734
aI218454
aI218473
aI910227
aI1267068
aI742797
aI3102098
aI123802
aI480691
aI1004981
aI2352031
aI218589
aI1267168
aI1565609
aI218618
aI1791487
aI2053650
aI742932
aI1005102
aI1267263
aI480848
aI1791574
aI1791578
aI218717
aI743027
aI1005184
aI1267329
aI1005235
aI1005236
aI648138
aI1267396
aI480975
aI36472
aI480980
aI481009
aI1529609
aI481044
aI2053913
aI743203
aI743214
aI218956
aI2316112
aI218978
aI1529709
aI2316156
aI1529758
aI1005481
aI1267661
aI1267663
aI481248
aI1529853
aI481286
aI219155
aI219159
aI735580
aI219183
aI1005619
aI481343
aI3102786
aI219210
aI219217
aI2840714
aI219394
aI1530143
aI1268003
aI481602
aI2308497
aI36587
aI219525
aI219584
aI2054593
aI779341
aI2054671
aI481828
aI219686
aI1530410
aI1268294
aI481863
aI1006179
aI124007
aI219758
aI481927
aI1530549
aI219865
aI1268557
aI219985
aI1530718
aI220040
aI2841481
aI1827992
aI2579359
aI220070
aI1006504
aI342518
aI1006555
aI744415
aI220147
aI482317
aI744484
aI1530938
aI1268813
aI744531
aI1268844
aI1006711
aI1268895
aI1531054
aI1531064
aI220351
aI1325423
aI124111
aI473637
aI1006836
aI1006863
aI688206
aI482628
aI220485
aI1006944
aI220529
aI2579839
aI2317720
aI482717
aI220579
aI1081017
aI1565939
aI220599
aI1531334
aI220627
aI2317829
aI220710
aI1007169
aI220738
aI1959181
aI2055782
aI220790
aI220834
aI1041691
aI745127
aI1007273
aI1793718
aI1269446
aI1793752
aI220912
aI1007364
aI1793799
aI1531657
aI220986
aI220988
aI2055998
aI1793898
aI190670
aI1793915
aI745359
aI745412
aI2352462
aI1269727
aI483349
aI221213
aI1871879
aI1269809
aI1269875
aI221348
aI2580686
aI29407
aI1223532
aI1172859
aI1007845
aI483566
aI483567
aI1270000
aI483616
aI2580773
aI1270063
aI1532256
aI2056545
aI745827
aI735974
aI1007991
aI1478722
aI483728
aI2745755
aI745924
aI1794538
aI2580975
aI2056772
aI1008222
aI2581128
aI483987
aI1008278
aI1008279
aI3105452
aI1008310
aI1008331
aI1566160
aI484073
aI221951
aI221955
aI221965
aI2319179
aI746334
aI746360
aI1008520
aI2581401
aI484261
aI1270725
aI222163
aI2057208
aI1270789
aI2319378
aI1270812
aI2319407
aI124426
aI2057294
aI1270865
aI222325
aI222356
aI692420
aI222364
aI1795230
aI746655
aI2057380
aI1173023
aI222397
aI1270976
aI222403
aI1270989
aI1270995
aI484566
aI1008891
aI222467
aI2581783
aI746802
aI1533240
aI746823
aI1271136
aI2581872
aI574799
aI222593
aI746921
aI222651
aI1795530
aI124493
aI222674
aI484882
aI1435226
aI484894
aI1216776
aI222774
aI3106360
aI605108
aI484972
aI889053
aI222851
aI1271435
aI222867
aI1271465
aI222892
aI1610015
aI222908
aI1795776
aI1795780
aI222923
aI222926
aI3106513
aI1271541
aI2057983
aI485146
aI747320
aI1795924
aI223073
aI2058085
aI1533803
aI223092
aI747392
aI2058133
aI1533884
aI747456
aI485337
aI223196
aI223201
aI20520
aI747536
aI758133
aI692580
aI223370
aI223386
aI1534123
aI1271985
aI223424
aI223429
aI223440
aI1534183
aI223478
aI779989
aI747873
aI1010048
aI485792
aI2320817
aI223686
aI1796579
aI223806
aI748102
aI2702433
aI68556
aI485971
aI2058839
aI486057
aI223970
aI223992
aI224004
aI1534725
aI224018
aI2583329
aI2583347
aI1796961
aI748416
aI435187
aI224206
aI224222
aI748524
aI224239
aI474283
aI1648527
aI224279
aI1535002
aI224286
aI748597
aI2059328
aI1272917
aI224346
aI748689
aI1010868
aI112222
aI748766
aI1273080
aI224508
aI486688
aI748850
aI1606867
aI2583876
aI748883
aI243164
aI1535358
aI1011075
aI748943
aI2198470
aI224671
aI1086034
aI224774
aI486920
aI224848
aI1535575
aI1535592
aI224935
aI487099
aI1535679
aI649163
aI749284
aI225004
aI81193
aI1535738
aI225074
aI139417
aI487302
aI487305
aI487313
aI1535892
aI2846665
aI1173495
aI862946
aI2322396
aI1011704
aI749588
aI592348
aI1697798
aI1011791
aI487509
aI487524
aI487534
aI225396
aI487545
aI2584700
aI1798304
aI225448
aI225467
aI2846923
aI2060505
aI487649
aI2060521
aI487662
aI487663
aI1011979
aI1011995
aI225591
aI225667
aI1274248
aI1798593
aI1274314
aI750040
aI1536486
aI225771
aI225801
aI225814
aI81328
aI1012284
aI488012
aI1798751
aI1536611
aI225899
aI488054
aI256108
aI1012372
aI1012381
aI649329
aI2061042
aI750378
aI1268954
aI488241
aI226127
aI1012590
aI81385
aI225757
aI750510
aI226266
aI2061276
aI750563
aI488433
aI488454
aI750613
aI1274911
aI750650
aI1274957
aI81424
aI1537128
aI750711
aI1275002
aI488579
aI3110029
aI226449
aI256196
aI226469
aI226476
aI226485
aI1799355
aI226526
aI488700
aI226568
aI1275169
aI226606
aI1799530
aI1013112
aI488830
aI749517
aI1275292
aI1013153
aI2061763
aI1275355
aI2353403
aI751077
aI81501
aI751158
aI1013317
aI1013327
aI2324078
aI2324108
aI226958
aI226975
aI1275577
aI489160
aI3110608
aI227081
aI227103
aI489261
aI751448
aI1275757
aI227192
aI751484
aI489363
aI489364
aI227228
aI751527
aI2266098
aI489403
aI227267
aI474786
aI1800173
aI227313
aI1538041
aI653519
aI605869
aI2062384
aI227426
aI227442
aI489607
aI227532
aI256376
aI1538258
aI1538264
aI489697
aI489718
aI1538311
aI227615
aI1014091
aI227665
aI824377
aI1276252
aI751986
aI758280
aI1276306
aI227755
aI1276341
aI1276374
aI1014234
aI227803
aI906677
aI474883
aI81668
aI2587166
aI227884
aI212749
aI1348709
aI227994
aI228016
aI752320
aI752366
aI228114
aI2587430
aI1538856
aI1348743
aI228145
aI1538881
aI490315
aI490322
aI116742
aI1276759
aI562319
aI1801070
aI228208
aI1276804
aI2063238
aI1014666
aI1538986
aI2849738
aI228371
aI228373
aI490526
aI1276965
aI1014830
aI1801279
aI490562
aI212833
aI490614
aI752781
aI1014979
aI490696
aI228591
aI752901
aI38104
aI752918
aI490787
aI752952
aI1277252
aI228689
aI228692
aI2587989
aI562410
aI2063766
aI1015201
aI490925
aI1277362
aI490961
aI2325987
aI228843
aI753170
aI1015327
aI1277476
aI1539680
aI229041
aI753341
aI1539779
aI1015495
aI229072
aI1539800
aI125562
aI229087
aI229091
aI491243
aI229106
aI2850548
aI1832000
aI2588463
aI229178
aI2064208
aI2850651
aI256660
aI229266
aI1277859
aI1277864
aI753603
aI753621
aI1802203
aI753663
aI491527
aI491553
aI1174201
aI753769
aI2588800
aI229513
aI2064527
aI229535
aI491682
aI1540264
aI374265
aI1540341
aI1654825
aI491790
aI1802512
aI229743
aI491897
aI1540479
aI754048
aI754060
aI229810
aI1305332
aI2064835
aI754147
aI2851301
aI754161
aI229896
aI1278476
aI1802775
aI492064
aI2064964
aI1278585
aI754300
aI492158
aI492185
aI1016516
aI1803007
aI1278725
aI256815
aI1278748
aI230188
aI754477
aI492348
aI125750
aI492364
aI492390
aI156061
aI492410
aI230267
aI12178
aI2327517
aI1278943
aI2065418
aI492561
aI1279002
aI1016891
aI169484
aI492624
aI38415
aI754787
aI1436519
aI230513
aI1037703
aI1279145
aI2327745
aI2589896
aI2065611
aI1541334
aI492760
aI492773
aI1541374
aI1017130
aI492918
aI1272477
aI1541533
aI1803692
aI1279406
aI1279443
aI1218129
aI493038
aI493067
aI230955
aI2065969
aI2852431
aI493161
aI231093
aI755401
aI2354134
aI231211
aI755533
aI1804131
aI1392956
aI493423
aI231290
aI231298
aI1017787
aI38561
aI1804251
aI125946
aI231397
aI749674
aI231417
aI231456
aI1280050
aI3115098
aI755804
aI493682
aI231567
aI1280156
aI2066598
aI493749
aI2328763
aI1018075
aI755932
aI231677
aI493823
aI2591002
aI562906
aI2328889
aI493928
aI562919
aI1804678
aI1280410
aI2591131
aI431856
aI231853
aI1280438
aI231917
aI231929
aI756233
aI231961
aI344497
aI1018419
aI1018473
aI802070
aI1280654
aI3115739
aI494307
aI232175
aI1018611
aI232196
aI2853637
aI1729885
aI232206
aI2591503
aI1018659
aI232235
aI494428
aI2067338
aI1018783
aI494501
aI1524209
aI494540
aI232403
aI232416
aI1280997
aI2329659
aI756809
aI494667
aI1805388
aI42659
aI232539
aI232542
aI1805407
aI2067561
aI2067571
aI232593
aI232610
aI304533
aI232671
aI756968
aI232695
aI2067704
aI232707
aI1281306
aI1281331
aI2067771
aI198825
aI1543498
aI1281385
aI757100
aI1543541
aI1990169
aI1281407
aI1281433
aI232867
aI1019336
aI232918
aI495081
aI233014
aI1043721
aI233048
aI1281644
aI126229
aI2592409
aI233142
aI233163
aI1281750
aI757471
aI757479
aI757483
aI2068211
aI233266
aI82569
aI495416
aI234723
aI233306
aI208538
aI1281930
aI495545
aI495558
aI825336
aI1544153
aI3117035
aI2854908
aI82609
aI741015
aI495663
aI1544250
aI2660367
aI2592874
aI537515
aI2441921
aI495796
aI2330815
aI495832
aI1020123
aI233692
aI233751
aI1203662
aI495906
aI213727
aI233792
aI1275092
aI1349691
aI233829
aI233907
aI233965
aI234009
aI341091
aI234039
aI1806944
aI2331271
aI496289
aI1020588
aI758446
aI1655585
aI496351
aI3184763
aI51445
aI16529
aI1282835
aI234307
aI1282907
aI1282908
aI2069350
aI694426
aI234405
aI758708
aI758710
aI1545183
aI1545195
aI234499
aI475993
aI496680
aI1545259
aI758831
aI2331714
aI2331746
aI1283215
aI1545363
aI496798
aI758946
aI496830
aI759019
aI426812
aI2331953
aI912947
aI1773303
aI1545584
aI234901
aI234922
aI234938
aI497087
aI3118541
aI126541
aI497106
aI1283554
aI356986
aI2594281
aI1037852
aI1917867
aI235019
aI759316
aI497182
aI1283633
aI235058
aI991432
aI2332217
aI365719
aI1961575
aI497339
aI497364
aI1021661
aI497381
aI497418
aI2332434
aI1021725
aI1021737
aI1568393
aI235333
aI2594636
aI235354
aI2594662
aI2070400
aI1021835
aI759762
aI1437347
aI497623
aI1284073
aI1284077
aI2835455
aI1022048
aI2594924
aI810918
aI235654
aI1022119
aI1022141
aI235710
aI2223826
aI1284353
aI235825
aI497984
aI1218956
aI1546574
aI1808743
aI1022330
aI498048
aI956826
aI2333093
aI1022435
aI39334
aI236014
aI498182
aI2333222
aI760393
aI236128
aI236136
aI236137
aI236152
aI432575
aI607341
aI2071253
aI236255
aI607357
aI1547018
aI3080491
aI236334
aI236345
aI2595642
aI760641
aI760656
aI236370
aI236398
aI498609
aI236521
aI236528
aI1998098
aI563718
aI498727
aI1809463
aI1023060
aI1198979
aI236671
aI825879
aI760986
aI498860
aI1285303
aI1023164
aI2531314
aI1809671
aI1023248
aI2071828
aI1023272
aI1285418
aI1285431
aI126859
aI236895
aI39489
aI236936
aI499112
aI1023421
aI1285589
aI330867
aI83196
aI1285615
aI2334192
aI761330
aI499214
aI2660952
aI1023597
aI761467
aI2858650
aI1285811
aI237237
aI499448
aI499449
aI1219199
aI237321
aI499466
aI2596621
aI499485
aI499489
aI237363
aI3120948
aI83253
aI1023815
aI2858853
aI126952
aI1810328
aI1286062
aI2975782
aI761791
aI610215
aI170671
aI2617352
aI237619
aI1525091
aI499797
aI1810525
aI2596983
aI237733
aI237740
aI499922
aI237815
aI237955
aI1548689
aI2073001
aI1286621
aI238052
aI127059
aI1548788
aI238086
aI1286667
aI98177
aI1282369
aI238134
aI520288
aI826123
aI500314
aI1811044
aI2859652
aI238242
aI1831027
aI762567
aI1024722
aI762580
aI1286872
aI238303
aI500451
aI500478
aI261079
aI1024796
aI913543
aI2335562
aI1000930
aI238419
aI238421
aI500571
aI2859911
aI762766
aI238546
aI500693
aI389287
aI238578
aI500725
aI762913
aI51591
aI238639
aI71421
aI238704
aI500865
aI1549471
aI500897
aI575338
aI1287342
aI1025201
aI500916
aI520394
aI238849
aI86515
aI238884
aI2073912
aI238906
aI2598204
aI1297445
aI501110
aI2336121
aI238985
aI1811853
aI1287593
aI1287607
aI2041826
aI501196
aI2598349
aI501217
aI239074
aI1025525
aI239101
aI1287707
aI2336315
aI520458
aI1025599
aI239168
aI763459
aI651536
aI763505
aI239243
aI763585
aI392046
aI501459
aI1812182
aI239333
aI501483
aI1550073
aI77804
aI1288032
aI476817
aI1044799
aI2598783
aI2336725
aI2598882
aI258388
aI1219590
aI2598988
aI1026132
aI1288294
aI1026154
aI764040
aI501913
aI1288408
aI1831293
aI1394393
aI502059
aI239916
aI764206
aI2337147
aI1026453
aI1288598
aI83695
aI240049
aI240078
aI502240
aI2599416
aI1026572
aI764474
aI2075219
aI1026645
aI764550
aI502428
aI1551022
aI1026764
aI240337
aI1026805
aI1132337
aI240443
aI240457
aI1551209
aI1551233
aI2075524
aI240581
aI2862023
aI1027040
aI240646
aI2862100
aI83805
aI240695
aI240698
aI1551435
aI765009
aI913935
aI240733
aI1813616
aI1027186
aI1813625
aI1027207
aI1263471
aI1027228
aI1813669
aI502950
aI2600187
aI2862341
aI240921
aI95313
aI1289525
aI503095
aI1813853
aI1813858
aI2076008
aI241022
aI241039
aI2862485
aI1875187
aI241097
aI1551841
aI2338277
aI1027568
aI1289716
aI322276
aI1551896
aI346031
aI1289758
aI1289775
aI1289799
aI503397
aI2076365
aI765652
aI2076382
aI241379
aI1552113
aI258689
aI575427
aI2862892
aI241453
aI241462
aI765762
aI241475
aI241518
aI241536
aI1290119
aI241552
aI241590
aI914080
aI2338775
aI503804
aI503825
aI765971
aI241717
aI127669
aI241753
aI503900
aI241776
aI766108
aI1290438
aI1552585
aI1290442
aI241876
aI241899
aI2339071
aI2601263
aI739379
aI1290557
aI241990
aI766311
aI242042
aI504213
aI242123
aI1028560
aI1290720
aI258813
aI242182
aI504368
aI643146
aI242231
aI1290882
aI242345
aI766640
aI1553090
aI242397
aI1815311
aI504596
aI1326159
aI1553203
aI1815355
aI69178
aI1305725
aI854793
aI504685
aI1291122
aI2137578
aI504717
aI8078
aI1815485
aI2312352
aI242644
aI1029088
aI1291238
aI766969
aI2601995
aI504845
aI242762
aI1029225
aI504956
aI2864275
aI1029272
aI1553563
aI346309
aI767143
aI127859
aI767160
aI127863
aI1291492
aI242930
aI1657044
aI242988
aI1613365
aI505154
aI1176462
aI767328
aI505191
aI243089
aI2078099
aI243134
aI243191
aI243203
aI243233
aI1029673
aI243245
aI477451
aI243274
aI2864740
aI505482
aI243373
aI1291961
aI767678
aI2602687
aI243442
aI2618323
aI1029890
aI2340612
aI1029893
aI1029916
aI1816356
aI1816367
aI2749406
aI84278
aI1554255
aI767843
aI505714
aI505722
aI427105
aI1554314
aI767896
aI243613
aI243709
aI870743
aI1292300
aI1292309
aI898478
aI505893
aI390153
aI1030209
aI243782
aI1292393
aI768110
aI243831
aI506005
aI1030409
aI243991
aI243999
aI1292605
aI768323
aI1176631
aI768334
aI1030529
aI1554844
aI244128
aI1817031
aI1518255
aI1554935
aI244246
aI1292848
aI244296
aI244360
aI768650
aI244365
aI935374
aI506544
aI1817269
aI1817324
aI768756
aI244473
aI121618
aI768795
aI2865949
aI1293087
aI2079526
aI2079527
aI506705
aI506721
aI1555319
aI1293179
aI768894
aI768896
aI768935
aI506796
aI506855
aI506879
aI1031175
aI2079765
aI1293377
aI244803
aI215568
aI769137
aI507018
aI1031312
aI244888
aI507043
aI507099
aI769265
aI1031417
aI769275
aI390357
aI2225373
aI1482632
aI477754
aI2866531
aI259310
aI2181703
aI1293744
aI1293755
aI1818045
aI245189
aI2080264
aI171950
aI2342446
aI1818198
aI507484
aI1293950
aI507519
aI245418
aI128285
aI1031888
aI1031945
aI1031955
aI507674
aI1031979
aI245552
aI871050
aI84619
aI507738
aI1818488
aI507810
aI104200
aI245679
aI245706
aI2080746
aI245770
aI245813
aI444639
aI508035
aI508057
aI245914
aI770242
aI508126
aI770303
aI246041
aI1818911
aI1032480
aI508214
aI770361
aI508219
aI770452
aI508328
aI2662475
aI246263
aI1294908
aI1032796
aI508537
aI1032875
aI1032890
aI740127
aI1819326
aI477997
aI1033026
aI2605902
aI508760
aI218121
aI2343795
aI303254
aI246714
aI715269
aI1033230
aI1295422
aI1819720
aI1557584
aI2081889
aI246886
aI1033324
aI1819765
aI2868352
aI771253
aI521760
aI1033422
aI247003
aI247013
aI247038
aI247071
aI247090
aI509303
aI771469
aI1033622
aI84889
aI509344
aI247221
aI1439305
aI509369
aI1033706
aI2082301
aI2606603
aI509477
aI652895
aI771665
aI654187
aI2082437
aI2344584
aI509619
aI509627
aI1276856
aI247533
aI771837
aI2082620
aI2082631
aI1820501
aI509813
aI1558392
aI771964
aI771966
aI509840
aI772000
aI509865
aI247763
aI784043
aI509967
aI1296402
aI1820695
aI772122
aI1820722
aI985906
aI1832636
aI2518118
aI1352041
aI2607240
aI772240
aI3131537
aI247985
aI2345141
aI1820928
aI248082
aI565635
aI1296660
aI772385
aI248123
aI248129
aI510294
aI1296737
aI1296806
aI1034737
aI2869772
aI1089967
aI248432
aI772743
aI1559201
aI248498
aI1559260
aI510711
aI772865
aI128812
aI248656
aI1821524
aI1297272
aI1559445
aI2345913
aI2345933
aI773113
aI511012
aI2083882
aI200328
aI511125
aI2346144
aI248994
aI2182351
aI1297641
aI511287
aI249180
aI303674
aI2084190
aI2608497
aI837557
aI511362
aI249237
aI2870704
aI1035698
aI773565
aI1297881
aI249327
aI773616
aI773623
aI511529
aI1822278
aI511562
aI2084433
aI1298028
aI249460
aI1035935
aI1298089
aI127359
aI249538
aI216353
aI1035991
aI249571
aI85287
aI511736
aI773885
aI249623
aI128988
aI511797
aI249654
aI511804
aI249663
aI249667
aI511837
aI249699
aI3133292
aI1570793
aI2346900
aI2084774
aI2609085
aI774116
aI1822698
aI1822712
aI1036285
aI1560583
aI512008
aI249878
aI2347081
aI1560673
aI2347107
aI1560681
aI1029621
aI512155
aI915484
aI250030
aI774328
aI1116914
aI427321
aI512241
aI2085106
aI774395
aI1701937
aI774444
aI512309
aI1298762
aI1298796
aI774511
aI1298815
aI250259
aI250260
aI95624
aI1298874
aI1823181
aI1789351
aI1823225
aI85421
aI2085392
aI512535
aI1299005
aI774719
aI250517
aI1561247
aI250540
aI1823424
aI250614
aI1823497
aI250648
aI1299267
aI1299305
aI512907
aI1299376
aI512958
aI1037251
aI1823686
aI512993
aI775138
aI1037294
aI1823740
aI250903
aI513057
aI994737
aI250978
aI2086009
aI653511
aI436084
aI1299675
aI1396265
aI1037574
aI251153
aI251154
aI251173
aI1037609
aI1037626
aI513340
aI513342
aI775513
aI1561970
aI775544
aI251303
aI391411
aI1037767
aI1562071
aI251370
aI2086401
aI706695
aI1824286
aI775715
aI513618
aI1300056
aI251491
aI1824361
aI251505
aI2086538
aI251543
aI251589
aI1300167
aI1300187
aI575766
aI513769
aI513828
aI251708
aI1300288
aI513868
aI513872
aI251738
aI680519
aI1038204
aI776084
aI1396378
aI1562548
aI1562558
aI251876
aI1562633
aI514065
aI3135546
aI1824835
aI252000
aI1038438
aI1300626
aI514235
aI1300669
aI1169357
aI252109
aI85711
aI1562850
aI252155
aI2611492
aI1038641
aI252228
aI1300817
aI776591
aI260516
aI1038826
aI1038832
aI2087450
aI1309107
aI1563204
aI252489
aI514635
aI3056745
aI514687
aI391618
aI1301144
aI2349721
aI2532464
aI252591
aI2349750
aI1301197
aI2087640
aI2087646
aI252648
aI2087674
aI1563394
aI252676
aI252687
aI2087705
aI479023
aI252704
aI252736
aI304270
aI1301373
aI252840
aI267045
aI515029
aI515034
aI515054
aI1039360
aI2088000
aI2350145
aI1047052
aI515203
aI85868
aI3136664
aI515254
aI653856
aI759126
aI1563878
aI253186
aI2874662
aI515455
aI1826186
aI515584
aI253468
aI759140
aI2350719
aI1564311
aI253594
aI777890
aI515797
aI1564449
aI515922
aI1003503
aI1302445
aI1586874
aI778166
aI516027
aI253890
aI1302488
aI1921018
aI1302506
aI778234
aI217089
aI148121
aI778255
aI253984
aI253994
aI516167
aI254046
aI254061
aI516220
aI254103
aI129732
aI254109
aI3013334
aI1623538
aI42372
aI254279
aI516433
aI254306
aI42386
aI1302907
aI254343
aI2489072
aI778659
aI778687
aI1302978
aI104491
aI1303001
aI1565171
aI1040885
aI254477
aI516664
aI1565247
aI254585
aI2613885
aI1827457
aI516748
aI254617
aI1134705
aI1134707
aI2089665
aI1565399
aI1827551
aI1041132
aI778990
aI3138305
aI2749401
aI1303334
aI516910
aI779076
aI779130
aI42475
aI1827727
aI1041336
aI517073
aI1303506
aI517134
aI1921199
aI1041442
aI779348
aI255061
aI2090070
aI42512
aI517247
aI1303680
aI517254
aI779408
aI255139
aI3138755
aI2227064
aI779513
aI1041665
aI1041680
aI517408
aI2352432
aI2139699
aI255293
aI2314464
aI2876739
aI1041742
aI347368
aI255337
aI517483
aI255363
aI1041822
aI517558
aI517561
aI779709
aI1566194
aI255479
aI1566221
aI348424
aI2090555
aI1304164
aI517740
aI1042031
aI517781
aI1047493
aI255667
aI255688
aI2615022
aI121993
aI1304325
aI1566473
aI255830
aI255836
aI1042273
aI1566588
aI1042335
aI255909
aI1440755
aI610634
aI506078
aI255982
aI255985
aI255986
aI2353188
aI1042483
aI780396
aI261142
aI1042572
aI2615437
aI715582
aI130076
aI2091199
aI2091200
aI52176
aI1965099
aI1566990
aI1304862
aI1042731
aI518469
aI780694
aI518587
aI1042889
aI314056
aI518616
aI2615824
aI256544
aI1305121
aI872883
aI1042999
aI256618
aI1305253
aI86473
aI1305302
aI1829593
aI518901
aI2353911
aI523391
aI1043198
aI2314709
aI2616073
aI2576857
aI256793
aI1567566
aI1043279
aI2354012
aI1567585
aI1567588
aI519037
aI2091925
aI1043352
aI1305501
aI1305516
aI2354099
aI314073
aI781313
aI781332
aI257090
aI86542
aI257111
aI340265
aI257122
aI2616445
aI1305740
aI519334
aI519383
aI1043683
aI1830141
aI257299
aI781610
aI2092358
aI257356
aI257364
aI519515
aI2616681
aI519539
aI257449
aI1043882
aI2616755
aI257465
aI2183755
aI257501
aI781792
aI2354663
aI257530
aI785663
aI257568
aI519718
aI2092587
aI519755
aI257635
aI257636
aI1306221
aI1830513
aI1568380
aI519814
aI781965
aI261402
aI1568420
aI519859
aI115193
aI782034
aI610940
aI2092870
aI1306452
aI2879327
aI257954
aI194476
aI1306546
aI257990
aI1306585
aI1790632
aI1213202
aI258120
aI520359
aI2643110
aI2355392
aI86733
aI258289
aI782609
aI1047940
aI258355
aI2093375
aI1569108
aI2617694
aI1831275
aI520567
aI1831329
aI258483
aI258489
aI2355649
aI1307094
aI217852
aI258539
aI520684
aI1831442
aI2880020
aI1569315
aI392626
aI520779
aI258636
aI1045074
aI1045081
aI782938
aI258670
aI174184
aI782997
aI1569443
aI785864
aI258741
aI783043
aI217890
aI523725
aI258791
aI520957
aI1831682
aI258851
aI1045299
aI1045309
aI2093934
aI783280
aI521180
aI521195
aI2618369
aI1045512
aI1021196
aI1307695
aI1831987
aI783412
aI794242
aI289782
aI259130
aI783448
aI1965587
aI521347
aI1048087
aI783510
aI783524
aI259237
aI1048093
aI259248
aI349043
aI2094270
aI1832154
aI226861
aI43222
aI2880781
aI259348
aI521495
aI521505
aI521525
aI2094399
aI2880879
aI1045902
aI1832350
aI259541
aI259576
aI1308171
aI829698
aI521754
aI783910
aI521799
aI1548505
aI1046094
aI130659
aI2926863
aI1570415
aI259747
aI611274
aI1570523
aI1570534
aI2881298
aI2094882
aI259889
aI259900
aI2357112
aI1308570
aI784338
aI2095090
aI1570834
aI260127
aI1570872
aI261812
aI1308790
aI784540
aI2357411
aI619699
aI1834700
aI522444
aI260311
aI260329
aI1046810
aI1308986
aI522561
aI260424
aI1046894
aI260511
aI522663
aI392946
aI260541
aI522729
aI261887
aI784909
aI522770
aI260633
aI784925
aI2619950
aI1005569
aI784975
aI1833653
aI1047269
aI1571602
aI260885
aI260894
aI1047365
aI785229
aI523091
aI2053265
aI785262
aI1047418
aI260990
aI305644
aI1047448
aI567795
aI785349
aI261062
aI523215
aI1309650
aI1833961
aI261098
aI1310546
aI261122
aI2758343
aI1047582
aI1571871
aI2409182
aI261156
aI261159
aI2096177
aI1352969
aI523325
aI261188
aI803041
aI1047667
aI785541
aI1571997
aI785566
aI1834147
aI261378
aI785745
aI523612
aI995089
aI261542
aI523744
aI523758
aI2358786
aI1572356
aI593559
aI1073657
aI1048157
aI1572450
aI261734
aI523908
aI523980
aI131024
aI1048330
aI130929
aI122201
aI1310566
aI1048427
aI786284
aI262022
aI1310604
aI786337
aI786351
aI262067
aI262114
aI1048572
a.